

Microchip Technology PIC18 LITE Macro Assembler V1.37 build -260352376 
                                                                                               Wed Mar 18 22:23:11 2020

Microchip Technology Omniscient Code Generator v1.37 (Free mode) build 201603110536
     1                           	processor	18F2550
     2                           	fnconf	rparam,??,?,0
     3                           	opt	pw 120
     4                           	opt	lm
     5                           	psect	cinit,global,reloc=2,class=CODE,delta=1
     6                           	psect	bssCOMRAM,global,class=COMRAM,space=1,delta=1
     7                           	psect	cstackCOMRAM,global,class=COMRAM,space=1,delta=1
     8                           	psect	text0,global,reloc=2,class=CODE,delta=1
     9                           	psect	text1,global,reloc=2,class=CODE,delta=1
    10                           	psect	text2,global,reloc=2,class=CODE,delta=1
    11                           	psect	text3,global,reloc=2,class=CODE,delta=1
    12                           	psect	text4,global,reloc=2,class=CODE,delta=1
    13                           	psect	text5,global,reloc=2,class=CODE,delta=1
    14                           	psect	intsave_regs,global,class=BIGRAM,space=1,delta=1
    15                           	psect	rparam,global,class=COMRAM,space=1,delta=1
    16  0000                     _PIR1bits	set	3998
    17  0000                     _SSPADD	set	4040
    18  0000                     _SSPBUF	set	4041
    19  0000                     _SSPCON1bits	set	4038
    20  0000                     _SSPCON2bits	set	4037
    21  0000                     _SSPSTATbits	set	4039
    22  0000                     _INTSRC	set	31967
    23  0000                     _IRCF0	set	32412
    24  0000                     _IRCF1	set	32413
    25  0000                     _IRCF2	set	32414
    26  0000                     _RB0	set	31752
    27  0000                     _RB1	set	31753
    28  0000                     _RC0	set	31760
    29  0000                     _TRISB0	set	31896
    30  0000                     _TRISB1	set	31897
    31  0000                     _TRISC0	set	31904
    32                           
    33                           ; #config settings
    34  0000                     
    35                           	psect	cinit
    36  007EE8                     __pcinit:
    37                           	opt stack 0
    38  007EE8                     start_initialization:
    39                           	opt stack 0
    40  007EE8                     __initialization:
    41                           	opt stack 0
    42                           
    43                           ; Clear objects allocated to COMRAM (14 bytes)
    44  007EE8  EE00  F001         	lfsr	0,__pbssCOMRAM
    45  007EEC  0E0E               	movlw	14
    46  007EEE                     clear_0:
    47  007EEE  6AEE               	clrf	postinc0,c
    48  007EF0  06E8               	decf	wreg,f,c
    49  007EF2  E1FD               	bnz	clear_0
    50  007EF4                     end_of_initialization:
    51                           	opt stack 0
    52  007EF4                     __end_of__initialization:
    53                           	opt stack 0
    54  007EF4  0100               	movlb	0
    55  007EF6  EFCF  F03F         	goto	_main	;jump to C main() function
    56                           postinc0	equ	0xFEE
    57                           wreg	equ	0xFE8
    58                           
    59                           	psect	bssCOMRAM
    60  000001                     __pbssCOMRAM:
    61                           	opt stack 0
    62  000001                     _time_array:
    63                           	opt stack 0
    64  000001                     	ds	3
    65  000004                     _dakika:
    66                           	opt stack 0
    67  000004                     	ds	1
    68  000005                     _saat:
    69                           	opt stack 0
    70  000005                     	ds	1
    71  000006                     _saniye:
    72                           	opt stack 0
    73  000006                     	ds	1
    74  000007                     _t_i:
    75                           	opt stack 0
    76  000007                     	ds	1
    77  000008                     _unnecessary:
    78                           	opt stack 0
    79  000008                     	ds	1
    80  000009                     _zaman:
    81                           	opt stack 0
    82  000009                     	ds	6
    83                           postinc0	equ	0xFEE
    84                           wreg	equ	0xFE8
    85                           
    86                           	psect	cstackCOMRAM
    87  00000F                     __pcstackCOMRAM:
    88                           	opt stack 0
    89  00000F                     ??_wait:
    90  00000F                     ??_I2C_initialize:
    91  00000F                     ??_I2C_Start:
    92  00000F                     ??_I2C_data_send:
    93  00000F                     
    94                           ; 1 bytes @ 0x0
    95  00000F                     	ds	1
    96  000010                     wait@val:
    97                           	opt stack 0
    98  000010                     I2C_data_send@data:
    99                           	opt stack 0
   100                           
   101                           ; 1 bytes @ 0x1
   102  000010                     	ds	1
   103  000011                     wait@k:
   104                           	opt stack 0
   105                           
   106                           ; 1 bytes @ 0x2
   107  000011                     	ds	1
   108  000012                     ??_main:
   109                           
   110                           ; 1 bytes @ 0x3
   111  000012                     	ds	1
   112                           postinc0	equ	0xFEE
   113                           wreg	equ	0xFE8
   114                           
   115 ;;
   116 ;;Main: autosize = 0, tempsize = 1, incstack = 0, save=0
   117 ;;
   118 ;; *************** function _main *****************
   119 ;; Defined at:
   120 ;;		line 79 in file "PIC18F2550I2C.c"
   121 ;; Parameters:    Size  Location     Type
   122 ;;		None
   123 ;; Auto vars:     Size  Location     Type
   124 ;;		None
   125 ;; Return value:  Size  Location     Type
   126 ;;                  1    wreg      void 
   127 ;; Registers used:
   128 ;;		wreg, status,2, status,0, cstack
   129 ;; Tracked objects:
   130 ;;		On entry : 0/0
   131 ;;		On exit  : 0/0
   132 ;;		Unchanged: 0/0
   133 ;; Data sizes:     COMRAM   BANK0   BANK1   BANK2   BANK3   BANK4   BANK5   BANK6   BANK7
   134 ;;      Params:         0       0       0       0       0       0       0       0       0
   135 ;;      Locals:         0       0       0       0       0       0       0       0       0
   136 ;;      Temps:          1       0       0       0       0       0       0       0       0
   137 ;;      Totals:         1       0       0       0       0       0       0       0       0
   138 ;;Total ram usage:        1 bytes
   139 ;; Hardware stack levels required when called:    1
   140 ;; This function calls:
   141 ;;		_I2C_Start
   142 ;;		_I2C_Stop
   143 ;;		_I2C_data_send
   144 ;;		_I2C_initialize
   145 ;;		_wait
   146 ;; This function is called by:
   147 ;;		Startup code after reset
   148 ;; This function uses a non-reentrant model
   149 ;;
   150                           
   151                           	psect	text0
   152  007F9E                     __ptext0:
   153                           	opt stack 0
   154  007F9E                     _main:
   155                           	opt stack 30
   156                           
   157                           ;PIC18F2550I2C.c: 82: INTSRC = 1;
   158                           
   159                           ;incstack = 0
   160  007F9E  8E9B               	bsf	3995,7,c	;volatile
   161                           
   162                           ;PIC18F2550I2C.c: 87: _delay((unsigned long)((5)*(4000000UL/4000.0)));
   163  007FA0  0E07               	movlw	7
   164  007FA2  6E12               	movwf	??_main& (0+255),c
   165  007FA4  0E7D               	movlw	125
   166  007FA6                     u207:
   167  007FA6  2EE8               	decfsz	wreg,f,c
   168  007FA8  D7FE               	goto	u207
   169  007FAA  2E12               	decfsz	??_main& (0+255),f,c
   170  007FAC  D7FC               	goto	u207
   171  007FAE  F000               	nop	
   172                           
   173                           ;PIC18F2550I2C.c: 92: IRCF2 = 1;
   174  007FB0  8CD3               	bsf	4051,6,c	;volatile
   175                           
   176                           ;PIC18F2550I2C.c: 93: IRCF1 = 1;
   177  007FB2  8AD3               	bsf	4051,5,c	;volatile
   178                           
   179                           ;PIC18F2550I2C.c: 94: IRCF0 = 0;
   180  007FB4  98D3               	bcf	4051,4,c	;volatile
   181                           
   182                           ;PIC18F2550I2C.c: 95: I2C_initialize();
   183  007FB6  EC9E  F03F         	call	_I2C_initialize	;wreg free
   184                           
   185                           ;PIC18F2550I2C.c: 97: _delay((unsigned long)((10)*(4000000UL/4000.0)));
   186  007FBA  0E0D               	movlw	13
   187  007FBC  6E12               	movwf	??_main& (0+255),c
   188  007FBE  0EFC               	movlw	252
   189  007FC0                     u217:
   190  007FC0  2EE8               	decfsz	wreg,f,c
   191  007FC2  D7FE               	goto	u217
   192  007FC4  2E12               	decfsz	??_main& (0+255),f,c
   193  007FC6  D7FC               	goto	u217
   194                           
   195                           ;PIC18F2550I2C.c: 98: wait(50);
   196  007FC8  0E32               	movlw	50
   197  007FCA  EC8D  F03F         	call	_wait
   198                           
   199                           ;PIC18F2550I2C.c: 99: TRISC0 = 0;
   200  007FCE  9094               	bcf	3988,0,c	;volatile
   201  007FD0                     l892:
   202                           
   203                           ;PIC18F2550I2C.c: 101: {
   204                           ;PIC18F2550I2C.c: 102: I2C_Start();
   205  007FD0  EC7D  F03F         	call	_I2C_Start	;wreg free
   206                           
   207                           ;PIC18F2550I2C.c: 103: _delay((unsigned long)((1)*(4000000UL/4000.0)));
   208  007FD4  0EFA               	movlw	250
   209  007FD6                     u227:
   210  007FD6  F000               	nop	
   211  007FD8  2EE8               	decfsz	wreg,f,c
   212  007FDA  D7FD               	goto	u227
   213                           
   214                           ;PIC18F2550I2C.c: 104: I2C_data_send(0b01010101);
   215  007FDC  0E55               	movlw	85
   216  007FDE  ECB5  F03F         	call	_I2C_data_send
   217                           
   218                           ;PIC18F2550I2C.c: 105: _delay((unsigned long)((1)*(4000000UL/4000.0)));
   219  007FE2  0EFA               	movlw	250
   220  007FE4                     u237:
   221  007FE4  F000               	nop	
   222  007FE6  2EE8               	decfsz	wreg,f,c
   223  007FE8  D7FD               	goto	u237
   224                           
   225                           ;PIC18F2550I2C.c: 106: I2C_Stop();
   226  007FEA  EC6F  F03F         	call	_I2C_Stop	;wreg free
   227                           
   228                           ;PIC18F2550I2C.c: 109: RC0 = ~RC0;
   229  007FEE  B082               	btfsc	3970,0,c	;volatile
   230  007FF0  D002               	goto	u180
   231  007FF2  8082               	bsf	3970,0,c	;volatile
   232  007FF4  D001               	goto	l904
   233  007FF6                     u180:
   234  007FF6  9082               	bcf	3970,0,c	;volatile
   235  007FF8                     l904:
   236                           
   237                           ;PIC18F2550I2C.c: 110: wait(100);
   238  007FF8  0E64               	movlw	100
   239  007FFA  EC8D  F03F         	call	_wait
   240  007FFE  D7E8               	goto	l892
   241  008000                     __end_of_main:
   242                           	opt stack 0
   243                           postinc0	equ	0xFEE
   244                           wreg	equ	0xFE8
   245                           
   246 ;; *************** function _wait *****************
   247 ;; Defined at:
   248 ;;		line 69 in file "PIC18F2550I2C.c"
   249 ;; Parameters:    Size  Location     Type
   250 ;;  val             1    wreg     unsigned char 
   251 ;; Auto vars:     Size  Location     Type
   252 ;;  val             1    1[COMRAM] unsigned char 
   253 ;;  k               1    2[COMRAM] unsigned char 
   254 ;; Return value:  Size  Location     Type
   255 ;;                  1    wreg      void 
   256 ;; Registers used:
   257 ;;		wreg, status,2, status,0, cstack
   258 ;; Tracked objects:
   259 ;;		On entry : 0/0
   260 ;;		On exit  : 0/0
   261 ;;		Unchanged: 0/0
   262 ;; Data sizes:     COMRAM   BANK0   BANK1   BANK2   BANK3   BANK4   BANK5   BANK6   BANK7
   263 ;;      Params:         0       0       0       0       0       0       0       0       0
   264 ;;      Locals:         2       0       0       0       0       0       0       0       0
   265 ;;      Temps:          1       0       0       0       0       0       0       0       0
   266 ;;      Totals:         3       0       0       0       0       0       0       0       0
   267 ;;Total ram usage:        3 bytes
   268 ;; Hardware stack levels used:    1
   269 ;; This function calls:
   270 ;;		Nothing
   271 ;; This function is called by:
   272 ;;		_main
   273 ;; This function uses a non-reentrant model
   274 ;;
   275                           
   276                           	psect	text1
   277  007F1A                     __ptext1:
   278                           	opt stack 0
   279  007F1A                     _wait:
   280                           	opt stack 30
   281                           
   282                           ;incstack = 0
   283                           ;wait@val stored from wreg
   284  007F1A  6E10               	movwf	wait@val,c
   285                           
   286                           ;PIC18F2550I2C.c: 72: for(byte k = 0; k < val; k++)_delay((unsigned long)((10)*(4000000U
      +                          L/4000.0)));
   287  007F1C  0E00               	movlw	0
   288  007F1E  6E11               	movwf	wait@k,c
   289  007F20  D008               	goto	l758
   290  007F22                     l754:
   291  007F22  0E0D               	movlw	13
   292  007F24  6E0F               	movwf	??_wait& (0+255),c
   293  007F26  0EFC               	movlw	252
   294  007F28                     u247:
   295  007F28  2EE8               	decfsz	wreg,f,c
   296  007F2A  D7FE               	goto	u247
   297  007F2C  2E0F               	decfsz	??_wait& (0+255),f,c
   298  007F2E  D7FC               	goto	u247
   299  007F30  2A11               	incf	wait@k,f,c
   300  007F32                     l758:
   301  007F32  5010               	movf	wait@val,w,c
   302  007F34  5C11               	subwf	wait@k,w,c
   303  007F36  B0D8               	btfsc	status,0,c
   304  007F38  0012               	return	
   305  007F3A  D7F3               	goto	l754
   306  007F3C                     __end_of_wait:
   307                           	opt stack 0
   308                           postinc0	equ	0xFEE
   309                           wreg	equ	0xFE8
   310                           status	equ	0xFD8
   311                           
   312 ;; *************** function _I2C_initialize *****************
   313 ;; Defined at:
   314 ;;		line 150 in file "I2C.h"
   315 ;; Parameters:    Size  Location     Type
   316 ;;		None
   317 ;; Auto vars:     Size  Location     Type
   318 ;;		None
   319 ;; Return value:  Size  Location     Type
   320 ;;                  1    wreg      void 
   321 ;; Registers used:
   322 ;;		wreg, status,2
   323 ;; Tracked objects:
   324 ;;		On entry : 0/0
   325 ;;		On exit  : 0/0
   326 ;;		Unchanged: 0/0
   327 ;; Data sizes:     COMRAM   BANK0   BANK1   BANK2   BANK3   BANK4   BANK5   BANK6   BANK7
   328 ;;      Params:         0       0       0       0       0       0       0       0       0
   329 ;;      Locals:         0       0       0       0       0       0       0       0       0
   330 ;;      Temps:          1       0       0       0       0       0       0       0       0
   331 ;;      Totals:         1       0       0       0       0       0       0       0       0
   332 ;;Total ram usage:        1 bytes
   333 ;; Hardware stack levels used:    1
   334 ;; This function calls:
   335 ;;		Nothing
   336 ;; This function is called by:
   337 ;;		_main
   338 ;; This function uses a non-reentrant model
   339 ;;
   340                           
   341                           	psect	text2
   342  007F3C                     __ptext2:
   343                           	opt stack 0
   344  007F3C                     _I2C_initialize:
   345                           	opt stack 30
   346                           
   347                           ;I2C.h: 160: TRISB1 = 1;
   348                           
   349                           ;incstack = 0
   350  007F3C  8293               	bsf	3987,1,c	;volatile
   351                           
   352                           ;I2C.h: 161: TRISB0 = 1;
   353  007F3E  8093               	bsf	3987,0,c	;volatile
   354                           
   355                           ;I2C.h: 162: RB1 = RB0 = 0;
   356  007F40  9081               	bcf	3969,0,c	;volatile
   357  007F42  9281               	bcf	3969,1,c	;volatile
   358                           
   359                           ;I2C.h: 164: SSPCON1bits.SSPM3 = 1;
   360  007F44  86C6               	bsf	4038,3,c	;volatile
   361                           
   362                           ;I2C.h: 165: SSPCON1bits.SSPM2 = 0;
   363  007F46  94C6               	bcf	4038,2,c	;volatile
   364                           
   365                           ;I2C.h: 166: SSPCON1bits.SSPM1 = 0;
   366  007F48  92C6               	bcf	4038,1,c	;volatile
   367                           
   368                           ;I2C.h: 167: SSPCON1bits.SSPM0 = 0;
   369  007F4A  90C6               	bcf	4038,0,c	;volatile
   370                           
   371                           ;I2C.h: 197: SSPSTATbits.SMP = 1;
   372  007F4C  8EC7               	bsf	4039,7,c	;volatile
   373                           
   374                           ;I2C.h: 198: SSPSTATbits.CKE = 0;
   375  007F4E  9CC7               	bcf	4039,6,c	;volatile
   376                           
   377                           ;I2C.h: 199: SSPADD = 39;
   378  007F50  0E27               	movlw	39
   379  007F52  6EC8               	movwf	4040,c	;volatile
   380                           
   381                           ;I2C.h: 205: SSPCON1bits.SSPEN = 1 ;
   382  007F54  8AC6               	bsf	4038,5,c	;volatile
   383                           
   384                           ;I2C.h: 206: PIR1bits.SSPIF = 0;
   385  007F56  969E               	bcf	3998,3,c	;volatile
   386                           
   387                           ;I2C.h: 207: _delay((unsigned long)((5)*(4000000UL/4000.0)));
   388  007F58  0E07               	movlw	7
   389  007F5A  6E0F               	movwf	??_I2C_initialize& (0+255),c
   390  007F5C  0E7D               	movlw	125
   391  007F5E                     u257:
   392  007F5E  2EE8               	decfsz	wreg,f,c
   393  007F60  D7FE               	goto	u257
   394  007F62  2E0F               	decfsz	??_I2C_initialize& (0+255),f,c
   395  007F64  D7FC               	goto	u257
   396  007F66  F000               	nop	
   397  007F68  0012               	return		;funcret
   398  007F6A                     __end_of_I2C_initialize:
   399                           	opt stack 0
   400                           postinc0	equ	0xFEE
   401                           wreg	equ	0xFE8
   402                           status	equ	0xFD8
   403                           
   404 ;; *************** function _I2C_data_send *****************
   405 ;; Defined at:
   406 ;;		line 256 in file "I2C.h"
   407 ;; Parameters:    Size  Location     Type
   408 ;;  data            1    wreg     unsigned char 
   409 ;; Auto vars:     Size  Location     Type
   410 ;;  data            1    1[COMRAM] unsigned char 
   411 ;; Return value:  Size  Location     Type
   412 ;;                  1    wreg      void 
   413 ;; Registers used:
   414 ;;		wreg, status,2, status,0
   415 ;; Tracked objects:
   416 ;;		On entry : 0/0
   417 ;;		On exit  : 0/0
   418 ;;		Unchanged: 0/0
   419 ;; Data sizes:     COMRAM   BANK0   BANK1   BANK2   BANK3   BANK4   BANK5   BANK6   BANK7
   420 ;;      Params:         0       0       0       0       0       0       0       0       0
   421 ;;      Locals:         1       0       0       0       0       0       0       0       0
   422 ;;      Temps:          1       0       0       0       0       0       0       0       0
   423 ;;      Totals:         2       0       0       0       0       0       0       0       0
   424 ;;Total ram usage:        2 bytes
   425 ;; Hardware stack levels used:    1
   426 ;; This function calls:
   427 ;;		Nothing
   428 ;; This function is called by:
   429 ;;		_main
   430 ;;		_DS1307_shared_get
   431 ;;		_DS1307_set_shared
   432 ;; This function uses a non-reentrant model
   433 ;;
   434                           
   435                           	psect	text3
   436  007F6A                     __ptext3:
   437                           	opt stack 0
   438  007F6A                     _I2C_data_send:
   439                           	opt stack 30
   440                           
   441                           ;incstack = 0
   442                           ;I2C_data_send@data stored from wreg
   443  007F6A  6E10               	movwf	I2C_data_send@data,c
   444                           
   445                           ;I2C.h: 304: PIR1bits.SSPIF = 0;
   446  007F6C  969E               	bcf	3998,3,c	;volatile
   447                           
   448                           ;I2C.h: 307: SSPBUF = data ;
   449  007F6E  C010  FFC9         	movff	I2C_data_send@data,4041	;volatile
   450  007F72                     l66:
   451  007F72  A0C7               	btfss	4039,0,c	;volatile
   452  007F74  D006               	goto	l69
   453  007F76  D7FD               	goto	l66
   454  007F78                     l778:
   455  007F78  2A08               	incf	_unnecessary,f,c
   456  007F7A  0EC8               	movlw	200
   457  007F7C  1808               	xorwf	_unnecessary,w,c
   458  007F7E  B4D8               	btfsc	status,2,c
   459  007F80  D002               	goto	l72
   460  007F82                     l69:
   461  007F82  A69E               	btfss	3998,3,c	;volatile
   462  007F84  D7F9               	goto	l778
   463  007F86                     l72:
   464                           
   465                           ;I2C.h: 324: PIR1bits.SSPIF = 0;
   466  007F86  969E               	bcf	3998,3,c	;volatile
   467                           
   468                           ;I2C.h: 325: _delay((unsigned long)((20)*(4000000UL/4000.0)));
   469  007F88  0E1A               	movlw	26
   470  007F8A  6E0F               	movwf	??_I2C_data_send& (0+255),c
   471  007F8C  0EF8               	movlw	248
   472  007F8E                     u267:
   473  007F8E  2EE8               	decfsz	wreg,f,c
   474  007F90  D7FE               	goto	u267
   475  007F92  2E0F               	decfsz	??_I2C_data_send& (0+255),f,c
   476  007F94  D7FC               	goto	u267
   477  007F96  D000               	nop2	
   478                           
   479                           ;I2C.h: 327: unnecessary = 0;
   480  007F98  0E00               	movlw	0
   481  007F9A  6E08               	movwf	_unnecessary,c
   482  007F9C  0012               	return		;funcret
   483  007F9E                     __end_of_I2C_data_send:
   484                           	opt stack 0
   485                           postinc0	equ	0xFEE
   486                           wreg	equ	0xFE8
   487                           status	equ	0xFD8
   488                           
   489 ;; *************** function _I2C_Stop *****************
   490 ;; Defined at:
   491 ;;		line 380 in file "I2C.h"
   492 ;; Parameters:    Size  Location     Type
   493 ;;		None
   494 ;; Auto vars:     Size  Location     Type
   495 ;;		None
   496 ;; Return value:  Size  Location     Type
   497 ;;                  1    wreg      void 
   498 ;; Registers used:
   499 ;;		None
   500 ;; Tracked objects:
   501 ;;		On entry : 0/0
   502 ;;		On exit  : 0/0
   503 ;;		Unchanged: 0/0
   504 ;; Data sizes:     COMRAM   BANK0   BANK1   BANK2   BANK3   BANK4   BANK5   BANK6   BANK7
   505 ;;      Params:         0       0       0       0       0       0       0       0       0
   506 ;;      Locals:         0       0       0       0       0       0       0       0       0
   507 ;;      Temps:          0       0       0       0       0       0       0       0       0
   508 ;;      Totals:         0       0       0       0       0       0       0       0       0
   509 ;;Total ram usage:        0 bytes
   510 ;; Hardware stack levels used:    1
   511 ;; This function calls:
   512 ;;		Nothing
   513 ;; This function is called by:
   514 ;;		_main
   515 ;;		_DS1307_shared_get
   516 ;;		_DS1307_set_shared
   517 ;; This function uses a non-reentrant model
   518 ;;
   519                           
   520                           	psect	text4
   521  007EDE                     __ptext4:
   522                           	opt stack 0
   523  007EDE                     _I2C_Stop:
   524                           	opt stack 30
   525                           
   526                           ;I2C.h: 382: SSPCON2bits.PEN = 1;
   527                           
   528                           ;incstack = 0
   529  007EDE  84C5               	bsf	4037,2,c	;volatile
   530  007EE0                     l88:
   531  007EE0  B4C5               	btfsc	4037,2,c	;volatile
   532  007EE2  D7FE               	goto	l88
   533                           
   534                           ;I2C.h: 385: PIR1bits.SSPIF = 0;
   535  007EE4  969E               	bcf	3998,3,c	;volatile
   536  007EE6  0012               	return		;funcret
   537  007EE8                     __end_of_I2C_Stop:
   538                           	opt stack 0
   539                           postinc0	equ	0xFEE
   540                           wreg	equ	0xFE8
   541                           status	equ	0xFD8
   542                           
   543 ;; *************** function _I2C_Start *****************
   544 ;; Defined at:
   545 ;;		line 215 in file "I2C.h"
   546 ;; Parameters:    Size  Location     Type
   547 ;;		None
   548 ;; Auto vars:     Size  Location     Type
   549 ;;		None
   550 ;; Return value:  Size  Location     Type
   551 ;;                  1    wreg      void 
   552 ;; Registers used:
   553 ;;		wreg
   554 ;; Tracked objects:
   555 ;;		On entry : 0/0
   556 ;;		On exit  : 0/0
   557 ;;		Unchanged: 0/0
   558 ;; Data sizes:     COMRAM   BANK0   BANK1   BANK2   BANK3   BANK4   BANK5   BANK6   BANK7
   559 ;;      Params:         0       0       0       0       0       0       0       0       0
   560 ;;      Locals:         0       0       0       0       0       0       0       0       0
   561 ;;      Temps:          1       0       0       0       0       0       0       0       0
   562 ;;      Totals:         1       0       0       0       0       0       0       0       0
   563 ;;Total ram usage:        1 bytes
   564 ;; Hardware stack levels used:    1
   565 ;; This function calls:
   566 ;;		Nothing
   567 ;; This function is called by:
   568 ;;		_main
   569 ;;		_DS1307_shared_get
   570 ;;		_DS1307_set_shared
   571 ;; This function uses a non-reentrant model
   572 ;;
   573                           
   574                           	psect	text5
   575  007EFA                     __ptext5:
   576                           	opt stack 0
   577  007EFA                     _I2C_Start:
   578                           	opt stack 30
   579                           
   580                           ;I2C.h: 217: SSPCON2bits.SEN = 1;
   581                           
   582                           ;incstack = 0
   583  007EFA  80C5               	bsf	4037,0,c	;volatile
   584  007EFC                     l46:
   585  007EFC  B0C5               	btfsc	4037,0,c	;volatile
   586  007EFE  D7FE               	goto	l46
   587  007F00                     l49:
   588  007F00  A6C7               	btfss	4039,3,c	;volatile
   589  007F02  D7FE               	goto	l49
   590                           
   591                           ;I2C.h: 223: SSPSTATbits.S = 0;
   592  007F04  96C7               	bcf	4039,3,c	;volatile
   593                           
   594                           ;I2C.h: 224: PIR1bits.SSPIF = 0;
   595  007F06  969E               	bcf	3998,3,c	;volatile
   596                           
   597                           ;I2C.h: 225: _delay((unsigned long)((20)*(4000000UL/4000.0)));
   598  007F08  0E1A               	movlw	26
   599  007F0A  6E0F               	movwf	??_I2C_Start& (0+255),c
   600  007F0C  0EF8               	movlw	248
   601  007F0E                     u277:
   602  007F0E  2EE8               	decfsz	wreg,f,c
   603  007F10  D7FE               	goto	u277
   604  007F12  2E0F               	decfsz	??_I2C_Start& (0+255),f,c
   605  007F14  D7FC               	goto	u277
   606  007F16  D000               	nop2	
   607  007F18  0012               	return		;funcret
   608  007F1A                     __end_of_I2C_Start:
   609                           	opt stack 0
   610  0000                     postinc0	equ	0xFEE
   611                           wreg	equ	0xFE8
   612                           status	equ	0xFD8
   613                           postinc0	equ	0xFEE
   614                           wreg	equ	0xFE8
   615                           status	equ	0xFD8
   616                           
   617                           	psect	rparam
   618  0000                     postinc0	equ	0xFEE
   619                           wreg	equ	0xFE8
   620                           status	equ	0xFD8


Data Sizes:
    Strings     0
    Constant    0
    Data        0
    BSS         14
    Persistent  0
    Stack       0

Auto Spaces:
    Space          Size  Autos    Used
    COMRAM           95      4      18
    BANK0           160      0       0
    BANK1           256      0       0
    BANK2           256      0       0
    BANK3           256      0       0
    BANK4           256      0       0
    BANK5           256      0       0
    BANK6           256      0       0
    BANK7           256      0       0

Pointer List with Targets:

    None.

Critical Paths under _main in COMRAM

    _main->_wait

Critical Paths under _main in BANK0

    None.

Critical Paths under _main in BANK1

    None.

Critical Paths under _main in BANK2

    None.

Critical Paths under _main in BANK3

    None.

Critical Paths under _main in BANK4

    None.

Critical Paths under _main in BANK5

    None.

Critical Paths under _main in BANK6

    None.

Critical Paths under _main in BANK7

    None.

Call Graph Tables:

 ---------------------------------------------------------------------------------
 (Depth) Function   	        Calls       Base Space   Used Autos Params    Refs
 ---------------------------------------------------------------------------------
 (0) _main                                                 1     1      0      45
                                              3 COMRAM     1     1      0
                          _I2C_Start
                           _I2C_Stop
                      _I2C_data_send
                     _I2C_initialize
                               _wait
 ---------------------------------------------------------------------------------
 (1) _wait                                                 3     3      0      30
                                              0 COMRAM     3     3      0
 ---------------------------------------------------------------------------------
 (1) _I2C_initialize                                       1     1      0       0
                                              0 COMRAM     1     1      0
 ---------------------------------------------------------------------------------
 (1) _I2C_data_send                                        2     2      0      15
                                              0 COMRAM     2     2      0
 ---------------------------------------------------------------------------------
 (1) _I2C_Stop                                             0     0      0       0
 ---------------------------------------------------------------------------------
 (1) _I2C_Start                                            1     1      0       0
                                              0 COMRAM     1     1      0
 ---------------------------------------------------------------------------------
 Estimated maximum stack depth 1
 ---------------------------------------------------------------------------------

 Call Graph Graphs:

 _main (ROOT)
   _I2C_Start
   _I2C_Stop
   _I2C_data_send
   _I2C_initialize
   _wait

 Address spaces:
Name               Size   Autos  Total    Cost      Usage
BIGRAM             7FF      0       0      21        0.0%
EEDATA             100      0       0       0        0.0%
BITBANK7           100      0       0      18        0.0%
BANK7              100      0       0      19        0.0%
BITBANK6           100      0       0      16        0.0%
BANK6              100      0       0      17        0.0%
BITBANK5           100      0       0      14        0.0%
BANK5              100      0       0      15        0.0%
BITBANK4           100      0       0      12        0.0%
BANK4              100      0       0      13        0.0%
BITBANK3           100      0       0      10        0.0%
BANK3              100      0       0      11        0.0%
BITBANK2           100      0       0       8        0.0%
BANK2              100      0       0       9        0.0%
BITBANK1           100      0       0       6        0.0%
BANK1              100      0       0       7        0.0%
BITBANK0            A0      0       0       4        0.0%
BANK0               A0      0       0       5        0.0%
BITCOMRAM           5F      0       0       0        0.0%
COMRAM              5F      4      12       1       18.9%
BITSFR               0      0       0      40        0.0%
SFR                  0      0       0      40        0.0%
STACK                0      0       0       2        0.0%
NULL                 0      0       0       0        0.0%
ABS                  0      0      12      20        0.0%
DATA                 0      0      12       3        0.0%
CODE                 0      0       0       0        0.0%


Microchip Technology PIC18 Macro Assembler V1.37 build -260352376 
Symbol Table                                                                                   Wed Mar 18 22:23:11 2020

     __size_of_I2C_Start 0020              _SSPSTATbits 000FC7                       l46 7EFC  
                     l72 7F86                       l49 7F00                       l66 7F72  
                     l69 7F82                       l88 7EE0              __CFG_BOR$ON 000000  
            __CFG_BORV$3 000000             __CFG_CP0$OFF 000000             __CFG_CP1$OFF 000000  
           __CFG_CP2$OFF 000000             __CFG_CP3$OFF 000000              __CFG_LVP$ON 000000  
                    l904 7FF8                      l754 7F22                      l758 7F32  
                    l778 7F78                      l892 7FD0             __CFG_CPB$OFF 000000  
                    _RB0 007C08                      _RB1 007C09                      _RC0 007C10  
                    u207 7FA6                      u217 7FC0                      u227 7FD6  
                    u180 7FF6                      u237 7FE4                      u247 7F28  
                    u257 7F5E             __CFG_CPD$OFF 000000                      u267 7F8E  
                    u277 7F0E              _unnecessary 0008                      _t_i 0007  
                    wreg 000FE8             __CFG_IESO$ON 000000             __CFG_WDT$OFF 000000  
                   _main 7F9E                     _saat 0005                     _wait 7F1A  
       __end_of_I2C_Stop 7EE8                     start 0000         ??_I2C_initialize 000F  
           ___param_bank 000010            __CFG_PLLDIV$1 000000           __CFG_CCP2MX$ON 000000  
                  ?_main 000F                    ?_wait 000F                    _IRCF0 007E9C  
                  _IRCF1 007E9D                    _IRCF2 007E9E            __CFG_USBDIV$2 000000  
          __CFG_PWRT$OFF 000000            __CFG_WRT0$OFF 000000            __CFG_WRT1$OFF 000000  
          __CFG_WRT2$OFF 000000            __CFG_WRT3$OFF 000000           __CFG_EBTR0$OFF 000000  
         __CFG_FCMEN$OFF 000000           __CFG_EBTR1$OFF 000000           __CFG_EBTR2$OFF 000000  
         __CFG_EBTR3$OFF 000000            __CFG_WRTB$OFF 000000            __CFG_WRTC$OFF 000000  
          __CFG_WRTD$OFF 000000           __CFG_EBTRB$OFF 000000                    _zaman 0009  
      __end_of_I2C_Start 7F1A                    wait@k 0011                    status 000FD8  
         __CFG_PBADEN$ON 000000           __CFG_MCLRE$OFF 000000          __initialization 7EE8  
           __end_of_main 8000             __end_of_wait 7F3C                   ??_main 0012  
                 ??_wait 000F            __activetblptr 000000                   _INTSRC 007CDF  
                 _SSPADD 000FC8                   _TRISB0 007C98                   _TRISB1 007C99  
                 _TRISC0 007CA0                   _SSPBUF 000FC9   __size_of_I2C_data_send 0034  
         __CFG_XINST$OFF 000000                   _dakika 0004           __CFG_STVREN$ON 000000  
                 clear_0 7EEE                   _saniye 0006                ?_I2C_Stop 000F  
             __accesstop 0060  __end_of__initialization 7EF4            ___rparam_used 000001  
         __pcstackCOMRAM 000F            _I2C_data_send 7F6A               ??_I2C_Stop 000F  
         ?_I2C_data_send 000F          __CFG_VREGEN$OFF 000000                _I2C_Start 7EFA  
                __Hparam 0000                  __Lparam 0000                  __pcinit 7EE8  
                __ramtop 0800                  __ptext0 7F9E                  __ptext1 7F1A  
                __ptext2 7F3C                  __ptext3 7F6A                  __ptext4 7EDE  
                __ptext5 7EFA     end_of_initialization 7EF4               ?_I2C_Start 000F  
                wait@val 0010                  postinc0 000FEE               _time_array 0001  
        ??_I2C_data_send 000F  __size_of_I2C_initialize 002E        __size_of_I2C_Stop 000A  
    start_initialization 7EE8              ??_I2C_Start 000F         __CFG_LPT1OSC$OFF 000000  
            __pbssCOMRAM 0001           _I2C_initialize 7F3C                 _I2C_Stop 7EDE  
               _PIR1bits 000F9E         __CFG_WDTPS$32768 000000   __end_of_I2C_initialize 7F6A  
      I2C_data_send@data 0010                 __Hrparam 0000                 __Lrparam 0000  
        ?_I2C_initialize 000F    __CFG_FOSC$INTOSCIO_EC 000000    __end_of_I2C_data_send 7F9E  
          __size_of_main 0062            __size_of_wait 0022    __CFG_CPUDIV$OSC1_PLL2 000000  
            _SSPCON1bits 000FC6              _SSPCON2bits 000FC5  
