

Microchip Technology PIC18 LITE Macro Assembler V1.37 build -260352376 
                                                                                               Wed Mar 18 11:48:25 2020

Microchip Technology Omniscient Code Generator v1.37 (Free mode) build 201603110536
     1                           	processor	18F66K80
     2                           	fnconf	rparam,??,?,0
     3                           	opt	pw 120
     4                           	opt	lm
     5                           	psect	idataCOMRAM,global,class=CODE,delta=1
     6                           	psect	idataBIGRAM,global,class=CODE,delta=1
     7                           	psect	smallconst,global,reloc=2,class=SMALLCONST,delta=1
     8                           	psect	cinit,global,reloc=2,class=CODE,delta=1
     9                           	psect	bssCOMRAM,global,class=COMRAM,space=1,delta=1
    10                           	psect	dataCOMRAM,global,class=COMRAM,space=1,delta=1
    11                           	psect	bssBANK0,global,class=BANK0,space=1,delta=1
    12                           	psect	dataBIGRAM,global,class=BIGRAM,space=1,delta=1
    13                           	psect	cstackCOMRAM,global,class=COMRAM,space=1,delta=1
    14                           	psect	text0,global,reloc=2,class=CODE,delta=1
    15                           	psect	text1,global,reloc=2,class=CODE,delta=1
    16                           	psect	text2,global,reloc=2,class=CODE,delta=1
    17                           	psect	text3,global,reloc=2,class=CODE,delta=1
    18                           	psect	text4,global,reloc=2,class=CODE,delta=1
    19                           	psect	text5,global,reloc=2,class=CODE,delta=1
    20                           	psect	text6,global,reloc=2,class=CODE,delta=1
    21                           	psect	text7,global,reloc=2,class=CODE,delta=1
    22                           	psect	text8,global,reloc=2,class=CODE,delta=1
    23                           	psect	text9,global,reloc=2,class=CODE,delta=1
    24                           	psect	text10,global,reloc=2,class=CODE,delta=1
    25                           	psect	text11,global,reloc=2,class=CODE,delta=1
    26                           	psect	text12,global,reloc=2,class=CODE,delta=1
    27                           	psect	text13,global,reloc=2,class=CODE,delta=1
    28                           	psect	text14,global,reloc=2,class=CODE,delta=1
    29                           	psect	text15,global,reloc=2,class=CODE,delta=1
    30                           	psect	text16,global,reloc=2,class=CODE,delta=1
    31                           	psect	text17,global,reloc=2,class=CODE,delta=1
    32                           	psect	text18,global,reloc=2,class=CODE,delta=1
    33                           	psect	text19,global,reloc=2,class=CODE,delta=1
    34                           	psect	text20,global,reloc=2,class=CODE,delta=1
    35                           	psect	text21,global,reloc=2,class=CODE,delta=1
    36                           	psect	text22,global,reloc=2,class=CODE,delta=1
    37                           	psect	text23,global,reloc=2,class=CODE,delta=1
    38                           	psect	text24,global,reloc=2,class=CODE,delta=1
    39                           	psect	text25,global,reloc=2,class=CODE,delta=1
    40                           	psect	text26,global,reloc=2,class=CODE,delta=1
    41                           	psect	text27,global,reloc=2,class=CODE,delta=1
    42                           	psect	text28,global,reloc=2,class=CODE,delta=1
    43                           	psect	text29,global,reloc=2,class=CODE,delta=1
    44                           	psect	text30,global,reloc=2,class=CODE,delta=1
    45                           	psect	text31,global,reloc=2,class=CODE,delta=1
    46                           	psect	text32,global,reloc=2,class=CODE,delta=1
    47                           	psect	text33,global,reloc=2,class=CODE,delta=1
    48                           	psect	text34,global,reloc=2,class=CODE,delta=1
    49                           	psect	intsave_regs,global,class=BIGRAM,space=1,delta=1
    50                           	psect	rparam,global,class=COMRAM,space=1,delta=1
    51  0000                     
    52                           	psect	idataCOMRAM
    53  001D24                     __pidataCOMRAM:
    54                           	opt stack 0
    55                           
    56                           ;initializer for __x
    57  001D24  01                 	db	1
    58                           
    59                           ;initializer for __y
    60  001D25  01                 	db	1
    61                           
    62                           	psect	idataBIGRAM
    63  00118C                     __pidataBIGRAM:
    64                           	opt stack 0
    65                           
    66                           ;initializer for _buff
    67  00118C  44                 	db	68
    68  00118D  65                 	db	101
    69  00118E  6E                 	db	110
    70  00118F  65                 	db	101
    71  001190  6D                 	db	109
    72  001191  65                 	db	101
    73  001192  6C                 	db	108
    74  001193  69                 	db	105
    75  001194  6B                 	db	107
    76  001195  00                 	db	0
    77  001196  00                 	db	0
    78  001197  00                 	db	0
    79  001198  00                 	db	0
    80  001199  00                 	db	0
    81  00119A  00                 	db	0
    82  00119B  00                 	db	0
    83  00119C  00                 	db	0
    84  00119D  00                 	db	0
    85  00119E  00                 	db	0
    86  00119F  00                 	db	0
    87  0011A0  00                 	db	0
    88  0011A1  00                 	db	0
    89  0011A2  00                 	db	0
    90  0011A3  00                 	db	0
    91  0011A4  00                 	db	0
    92  0011A5  00                 	db	0
    93  0011A6  00                 	db	0
    94  0011A7  00                 	db	0
    95  0011A8  00                 	db	0
    96  0011A9  00                 	db	0
    97  0011AA  00                 	db	0
    98  0011AB  00                 	db	0
    99  0011AC  00                 	db	0
   100  0011AD  00                 	db	0
   101  0011AE  00                 	db	0
   102  0011AF  00                 	db	0
   103  0011B0  00                 	db	0
   104  0011B1  00                 	db	0
   105  0011B2  00                 	db	0
   106  0011B3  00                 	db	0
   107  0011B4  00                 	db	0
   108  0011B5  00                 	db	0
   109  0011B6  00                 	db	0
   110  0011B7  00                 	db	0
   111  0011B8  00                 	db	0
   112  0011B9  00                 	db	0
   113  0011BA  00                 	db	0
   114  0011BB  00                 	db	0
   115  0011BC  00                 	db	0
   116  0011BD  00                 	db	0
   117  0011BE  00                 	db	0
   118  0011BF  00                 	db	0
   119  0011C0  00                 	db	0
   120  0011C1  00                 	db	0
   121  0011C2  00                 	db	0
   122  0011C3  00                 	db	0
   123  0011C4  00                 	db	0
   124  0011C5  00                 	db	0
   125  0011C6  00                 	db	0
   126  0011C7  00                 	db	0
   127  0011C8  00                 	db	0
   128  0011C9  00                 	db	0
   129  0011CA  00                 	db	0
   130  0011CB  00                 	db	0
   131  0011CC  00                 	db	0
   132  0011CD  00                 	db	0
   133  0011CE  00                 	db	0
   134  0011CF  00                 	db	0
   135  0011D0  00                 	db	0
   136  0011D1  00                 	db	0
   137  0011D2  00                 	db	0
   138  0011D3  00                 	db	0
   139  0011D4  00                 	db	0
   140  0011D5  00                 	db	0
   141  0011D6  00                 	db	0
   142  0011D7  00                 	db	0
   143  0011D8  00                 	db	0
   144  0011D9  00                 	db	0
   145  0011DA  00                 	db	0
   146  0011DB  00                 	db	0
   147  0011DC  00                 	db	0
   148  0011DD  00                 	db	0
   149  0011DE  00                 	db	0
   150  0011DF  00                 	db	0
   151  0011E0  00                 	db	0
   152  0011E1  00                 	db	0
   153  0011E2  00                 	db	0
   154  0011E3  00                 	db	0
   155  0011E4  00                 	db	0
   156  0011E5  00                 	db	0
   157  0011E6  00                 	db	0
   158  0011E7  00                 	db	0
   159  0011E8  00                 	db	0
   160  0011E9  00                 	db	0
   161  0011EA  00                 	db	0
   162  0011EB  00                 	db	0
   163  0011EC  00                 	db	0
   164  0011ED  00                 	db	0
   165  0011EE  00                 	db	0
   166  0011EF  00                 	db	0
   167  0011F0  00                 	db	0
   168  0011F1  00                 	db	0
   169  0011F2  00                 	db	0
   170  0011F3  00                 	db	0
   171  0011F4  00                 	db	0
   172  0011F5  00                 	db	0
   173  0011F6  00                 	db	0
   174  0011F7  00                 	db	0
   175  0011F8  00                 	db	0
   176  0011F9  00                 	db	0
   177  0011FA  00                 	db	0
   178  0011FB  00                 	db	0
   179  0011FC  00                 	db	0
   180  0011FD  00                 	db	0
   181  0011FE  00                 	db	0
   182  0011FF  00                 	db	0
   183  001200  00                 	db	0
   184  001201  00                 	db	0
   185  001202  00                 	db	0
   186  001203  00                 	db	0
   187  001204  00                 	db	0
   188  001205  00                 	db	0
   189  001206  00                 	db	0
   190  001207  00                 	db	0
   191  001208  00                 	db	0
   192  001209  00                 	db	0
   193  00120A  00                 	db	0
   194  00120B  00                 	db	0
   195  00120C  00                 	db	0
   196  00120D  00                 	db	0
   197  00120E  00                 	db	0
   198  00120F  00                 	db	0
   199  001210  00                 	db	0
   200  001211  00                 	db	0
   201  001212  00                 	db	0
   202  001213  00                 	db	0
   203  001214  00                 	db	0
   204  001215  00                 	db	0
   205  001216  00                 	db	0
   206  001217  00                 	db	0
   207  001218  00                 	db	0
   208  001219  00                 	db	0
   209  00121A  00                 	db	0
   210  00121B  00                 	db	0
   211  00121C  00                 	db	0
   212  00121D  00                 	db	0
   213  00121E  00                 	db	0
   214  00121F  00                 	db	0
   215  001220  00                 	db	0
   216  001221  00                 	db	0
   217  001222  00                 	db	0
   218  001223  00                 	db	0
   219  001224  00                 	db	0
   220  001225  00                 	db	0
   221  001226  00                 	db	0
   222  001227  00                 	db	0
   223  001228  00                 	db	0
   224  001229  00                 	db	0
   225  00122A  00                 	db	0
   226  00122B  00                 	db	0
   227  00122C  00                 	db	0
   228  00122D  00                 	db	0
   229  00122E  00                 	db	0
   230  00122F  00                 	db	0
   231  001230  00                 	db	0
   232  001231  00                 	db	0
   233  001232  00                 	db	0
   234  001233  00                 	db	0
   235  001234  00                 	db	0
   236  001235  00                 	db	0
   237  001236  00                 	db	0
   238  001237  00                 	db	0
   239  001238  00                 	db	0
   240  001239  00                 	db	0
   241  00123A  00                 	db	0
   242  00123B  00                 	db	0
   243  00123C  00                 	db	0
   244  00123D  00                 	db	0
   245  00123E  00                 	db	0
   246  00123F  00                 	db	0
   247  001240  00                 	db	0
   248  001241  00                 	db	0
   249  001242  00                 	db	0
   250  001243  00                 	db	0
   251  001244  00                 	db	0
   252  001245  00                 	db	0
   253  001246  00                 	db	0
   254  001247  00                 	db	0
   255  001248  00                 	db	0
   256  001249  00                 	db	0
   257  00124A  00                 	db	0
   258  00124B  00                 	db	0
   259  00124C  00                 	db	0
   260  00124D  00                 	db	0
   261  00124E  00                 	db	0
   262  00124F  00                 	db	0
   263  001250  00                 	db	0
   264  001251  00                 	db	0
   265  001252  00                 	db	0
   266  001253  00                 	db	0
   267  001254  00                 	db	0
   268  001255  00                 	db	0
   269  001256  00                 	db	0
   270  001257  00                 	db	0
   271  001258  00                 	db	0
   272  001259  00                 	db	0
   273  00125A  00                 	db	0
   274  00125B  00                 	db	0
   275  00125C  00                 	db	0
   276  00125D  00                 	db	0
   277  00125E  00                 	db	0
   278  00125F  00                 	db	0
   279  001260  00                 	db	0
   280  001261  00                 	db	0
   281  001262  00                 	db	0
   282  001263  00                 	db	0
   283  001264  00                 	db	0
   284  001265  00                 	db	0
   285  001266  00                 	db	0
   286  001267  00                 	db	0
   287  001268  00                 	db	0
   288  001269  00                 	db	0
   289  00126A  00                 	db	0
   290  00126B  00                 	db	0
   291  00126C  00                 	db	0
   292  00126D  00                 	db	0
   293  00126E  00                 	db	0
   294  00126F  00                 	db	0
   295  001270  00                 	db	0
   296  001271  00                 	db	0
   297  001272  00                 	db	0
   298  001273  00                 	db	0
   299  001274  00                 	db	0
   300  001275  00                 	db	0
   301  001276  00                 	db	0
   302  001277  00                 	db	0
   303  001278  00                 	db	0
   304  001279  00                 	db	0
   305  00127A  00                 	db	0
   306  00127B  00                 	db	0
   307  00127C  00                 	db	0
   308  00127D  00                 	db	0
   309  00127E  00                 	db	0
   310  00127F  00                 	db	0
   311  001280  00                 	db	0
   312  001281  00                 	db	0
   313  001282  00                 	db	0
   314  001283  00                 	db	0
   315  001284  00                 	db	0
   316  001285  00                 	db	0
   317  001286  00                 	db	0
   318  001287  00                 	db	0
   319  001288  00                 	db	0
   320  001289  00                 	db	0
   321  00128A  00                 	db	0
   322  00128B  00                 	db	0
   323  00128C  00                 	db	0
   324  00128D  00                 	db	0
   325  00128E  00                 	db	0
   326  00128F  00                 	db	0
   327  001290  00                 	db	0
   328  001291  00                 	db	0
   329  001292  00                 	db	0
   330  001293  00                 	db	0
   331  001294  00                 	db	0
   332  001295  00                 	db	0
   333  001296  00                 	db	0
   334  001297  00                 	db	0
   335  001298  00                 	db	0
   336  001299  00                 	db	0
   337  00129A  00                 	db	0
   338  00129B  00                 	db	0
   339  00129C  00                 	db	0
   340  00129D  00                 	db	0
   341  00129E  00                 	db	0
   342  00129F  00                 	db	0
   343  0012A0  00                 	db	0
   344  0012A1  00                 	db	0
   345  0012A2  00                 	db	0
   346  0012A3  00                 	db	0
   347  0012A4  00                 	db	0
   348  0012A5  00                 	db	0
   349  0012A6  00                 	db	0
   350  0012A7  00                 	db	0
   351  0012A8  00                 	db	0
   352  0012A9  00                 	db	0
   353  0012AA  00                 	db	0
   354  0012AB  00                 	db	0
   355  0012AC  00                 	db	0
   356  0012AD  00                 	db	0
   357  0012AE  00                 	db	0
   358  0012AF  00                 	db	0
   359  0012B0  00                 	db	0
   360  0012B1  00                 	db	0
   361  0012B2  00                 	db	0
   362  0012B3  00                 	db	0
   363  0012B4  00                 	db	0
   364  0012B5  00                 	db	0
   365  0012B6  00                 	db	0
   366  0012B7  00                 	db	0
   367  0012B8  00                 	db	0
   368  0012B9  00                 	db	0
   369  0012BA  00                 	db	0
   370  0012BB  00                 	db	0
   371  0012BC  00                 	db	0
   372  0012BD  00                 	db	0
   373  0012BE  00                 	db	0
   374  0012BF  00                 	db	0
   375  0012C0  00                 	db	0
   376  0012C1  00                 	db	0
   377  0012C2  00                 	db	0
   378  0012C3  00                 	db	0
   379  0012C4  00                 	db	0
   380  0012C5  00                 	db	0
   381  0012C6  00                 	db	0
   382  0012C7  00                 	db	0
   383  0012C8  00                 	db	0
   384  0012C9  00                 	db	0
   385  0012CA  00                 	db	0
   386  0012CB  00                 	db	0
   387  0012CC  00                 	db	0
   388  0012CD  00                 	db	0
   389  0012CE  00                 	db	0
   390  0012CF  00                 	db	0
   391  0012D0  00                 	db	0
   392  0012D1  00                 	db	0
   393  0012D2  00                 	db	0
   394  0012D3  00                 	db	0
   395  0012D4  00                 	db	0
   396  0012D5  00                 	db	0
   397  0012D6  00                 	db	0
   398  0012D7  00                 	db	0
   399  0012D8  00                 	db	0
   400  0012D9  00                 	db	0
   401  0012DA  00                 	db	0
   402  0012DB  00                 	db	0
   403  0012DC  00                 	db	0
   404  0012DD  00                 	db	0
   405  0012DE  00                 	db	0
   406  0012DF  00                 	db	0
   407  0012E0  00                 	db	0
   408  0012E1  00                 	db	0
   409  0012E2  00                 	db	0
   410  0012E3  00                 	db	0
   411  0012E4  00                 	db	0
   412  0012E5  00                 	db	0
   413  0012E6  00                 	db	0
   414  0012E7  00                 	db	0
   415  0012E8  00                 	db	0
   416  0012E9  00                 	db	0
   417  0012EA  00                 	db	0
   418  0012EB  00                 	db	0
   419  0012EC  00                 	db	0
   420  0012ED  00                 	db	0
   421  0012EE  00                 	db	0
   422  0012EF  00                 	db	0
   423  0012F0  00                 	db	0
   424  0012F1  00                 	db	0
   425  0012F2  00                 	db	0
   426  0012F3  00                 	db	0
   427  0012F4  00                 	db	0
   428  0012F5  00                 	db	0
   429  0012F6  00                 	db	0
   430  0012F7  00                 	db	0
   431  0012F8  00                 	db	0
   432  0012F9  00                 	db	0
   433  0012FA  00                 	db	0
   434  0012FB  00                 	db	0
   435  0012FC  00                 	db	0
   436  0012FD  00                 	db	0
   437  0012FE  00                 	db	0
   438  0012FF  00                 	db	0
   439  001300  00                 	db	0
   440  001301  00                 	db	0
   441  001302  00                 	db	0
   442  001303  00                 	db	0
   443  001304  00                 	db	0
   444  001305  00                 	db	0
   445  001306  00                 	db	0
   446  001307  00                 	db	0
   447  001308  00                 	db	0
   448  001309  00                 	db	0
   449  00130A  00                 	db	0
   450  00130B  00                 	db	0
   451  00130C  00                 	db	0
   452  00130D  00                 	db	0
   453  00130E  00                 	db	0
   454  00130F  00                 	db	0
   455  001310  00                 	db	0
   456  001311  00                 	db	0
   457  001312  00                 	db	0
   458  001313  00                 	db	0
   459  001314  00                 	db	0
   460  001315  00                 	db	0
   461  001316  00                 	db	0
   462  001317  00                 	db	0
   463  001318  00                 	db	0
   464  001319  00                 	db	0
   465  00131A  00                 	db	0
   466  00131B  00                 	db	0
   467  00131C  00                 	db	0
   468  00131D  00                 	db	0
   469  00131E  00                 	db	0
   470  00131F  00                 	db	0
   471  001320  00                 	db	0
   472  001321  00                 	db	0
   473  001322  00                 	db	0
   474  001323  00                 	db	0
   475  001324  00                 	db	0
   476  001325  00                 	db	0
   477  001326  00                 	db	0
   478  001327  00                 	db	0
   479  001328  00                 	db	0
   480  001329  00                 	db	0
   481  00132A  00                 	db	0
   482  00132B  00                 	db	0
   483  00132C  00                 	db	0
   484  00132D  00                 	db	0
   485  00132E  00                 	db	0
   486  00132F  00                 	db	0
   487  001330  00                 	db	0
   488  001331  00                 	db	0
   489  001332  00                 	db	0
   490  001333  00                 	db	0
   491  001334  00                 	db	0
   492  001335  00                 	db	0
   493  001336  00                 	db	0
   494  001337  00                 	db	0
   495  001338  00                 	db	0
   496  001339  00                 	db	0
   497  00133A  00                 	db	0
   498  00133B  00                 	db	0
   499  00133C  00                 	db	0
   500  00133D  00                 	db	0
   501  00133E  00                 	db	0
   502  00133F  00                 	db	0
   503  001340  00                 	db	0
   504  001341  00                 	db	0
   505  001342  00                 	db	0
   506  001343  00                 	db	0
   507  001344  00                 	db	0
   508  001345  00                 	db	0
   509  001346  00                 	db	0
   510  001347  00                 	db	0
   511  001348  00                 	db	0
   512  001349  00                 	db	0
   513  00134A  00                 	db	0
   514  00134B  00                 	db	0
   515  00134C  00                 	db	0
   516  00134D  00                 	db	0
   517  00134E  00                 	db	0
   518  00134F  00                 	db	0
   519  001350  00                 	db	0
   520  001351  00                 	db	0
   521  001352  00                 	db	0
   522  001353  00                 	db	0
   523  001354  00                 	db	0
   524  001355  00                 	db	0
   525  001356  00                 	db	0
   526  001357  00                 	db	0
   527  001358  00                 	db	0
   528  001359  00                 	db	0
   529  00135A  00                 	db	0
   530  00135B  00                 	db	0
   531  00135C  00                 	db	0
   532  00135D  00                 	db	0
   533  00135E  00                 	db	0
   534  00135F  00                 	db	0
   535  001360  00                 	db	0
   536  001361  00                 	db	0
   537  001362  00                 	db	0
   538  001363  00                 	db	0
   539  001364  00                 	db	0
   540  001365  00                 	db	0
   541  001366  00                 	db	0
   542  001367  00                 	db	0
   543  001368  00                 	db	0
   544  001369  00                 	db	0
   545  00136A  00                 	db	0
   546  00136B  00                 	db	0
   547  00136C  00                 	db	0
   548  00136D  00                 	db	0
   549  00136E  00                 	db	0
   550  00136F  00                 	db	0
   551  001370  00                 	db	0
   552  001371  00                 	db	0
   553  001372  00                 	db	0
   554  001373  00                 	db	0
   555  001374  00                 	db	0
   556  001375  00                 	db	0
   557  001376  00                 	db	0
   558  001377  00                 	db	0
   559  001378  00                 	db	0
   560  001379  00                 	db	0
   561  00137A  00                 	db	0
   562  00137B  00                 	db	0
   563  00137C  00                 	db	0
   564  00137D  00                 	db	0
   565  00137E  00                 	db	0
   566  00137F  00                 	db	0
   567  001380  00                 	db	0
   568  001381  00                 	db	0
   569  001382  00                 	db	0
   570  001383  00                 	db	0
   571  001384  00                 	db	0
   572  001385  00                 	db	0
   573  001386  00                 	db	0
   574  001387  00                 	db	0
   575  001388  00                 	db	0
   576  001389  00                 	db	0
   577  00138A  00                 	db	0
   578  00138B  00                 	db	0
   579  0000                     _ANCON0	set	3933
   580  0000                     _ANCON1	set	3932
   581  0000                     _CCPR2L	set	3921
   582  0000                     _CCPR3L	set	3918
   583  0000                     _CCPR4L	set	3915
   584  0000                     _CCPR5L	set	3912
   585  0000                     _ANSEL0	set	31464
   586  0000                     _ANSEL1	set	31465
   587  0000                     _CCP2M2	set	31362
   588  0000                     _CCP2M3	set	31363
   589  0000                     _CCP3M2	set	31338
   590  0000                     _CCP3M3	set	31339
   591  0000                     _CCP4M2	set	31314
   592  0000                     _CCP4M3	set	31315
   593  0000                     _CCP5M2	set	31290
   594  0000                     _CCP5M3	set	31291
   595  0000                     _DC2B0	set	31364
   596  0000                     _DC2B1	set	31365
   597  0000                     _DC3B0	set	31340
   598  0000                     _DC3B1	set	31341
   599  0000                     _DC4B0	set	31316
   600  0000                     _DC4B1	set	31317
   601  0000                     _DC5B0	set	31292
   602  0000                     _DC5B1	set	31293
   603  0000                     _ADCON0	set	4034
   604  0000                     _ADRESH	set	4036
   605  0000                     _ADRESL	set	4035
   606  0000                     _BAUDCON1bits	set	4007
   607  0000                     _BAUDCON2bits	set	4025
   608  0000                     _EEADR	set	3956
   609  0000                     _EEADRH	set	3957
   610  0000                     _EECON2	set	3966
   611  0000                     _EEDATA	set	3955
   612  0000                     _PIR1bits	set	3998
   613  0000                     _PIR3bits	set	4004
   614  0000                     _PORTD	set	3971
   615  0000                     _PORTE	set	3972
   616  0000                     _PORTF	set	3973
   617  0000                     _PR2	set	4043
   618  0000                     _RCREG1	set	4014
   619  0000                     _RCREG2	set	3962
   620  0000                     _RCSTA1bits	set	4011
   621  0000                     _RCSTA2bits	set	4006
   622  0000                     _SPBRG1	set	4015
   623  0000                     _SPBRG2	set	3963
   624  0000                     _SSPADD	set	4040
   625  0000                     _SSPBUF	set	4041
   626  0000                     _TRISD	set	3989
   627  0000                     _TRISE	set	3990
   628  0000                     _TXREG1	set	4013
   629  0000                     _TXREG2	set	3961
   630  0000                     _TXSTA1bits	set	4012
   631  0000                     _TXSTA2bits	set	4026
   632  0000                     _ACKDT	set	32301
   633  0000                     _ACKEN	set	32300
   634  0000                     _ACQT0	set	32259
   635  0000                     _ACQT1	set	32260
   636  0000                     _ACQT2	set	32261
   637  0000                     _ADCS0	set	32256
   638  0000                     _ADCS1	set	32257
   639  0000                     _ADCS2	set	32258
   640  0000                     _ADFM	set	32263
   641  0000                     _ADIF	set	31990
   642  0000                     _ADON	set	32272
   643  0000                     _BF	set	32312
   644  0000                     _C2TSEL	set	31945
   645  0000                     _C3TSEL	set	31946
   646  0000                     _C4TSEL	set	31947
   647  0000                     _C5TSEL	set	31948
   648  0000                     _CFGS	set	31742
   649  0000                     _CHS0	set	32274
   650  0000                     _CHS1	set	32275
   651  0000                     _CHS2	set	32276
   652  0000                     _CHS3	set	32277
   653  0000                     _CHS4	set	32278
   654  0000                     _CKE	set	32318
   655  0000                     _CKP	set	32308
   656  0000                     _EEIF	set	32190
   657  0000                     _EEPGD	set	31743
   658  0000                     _GODONE	set	32273
   659  0000                     _INTSRC	set	31967
   660  0000                     _IRCF0	set	32412
   661  0000                     _IRCF1	set	32413
   662  0000                     _IRCF2	set	32414
   663  0000                     _MFIOSEL	set	32400
   664  0000                     _PEN	set	32298
   665  0000                     _RC1	set	31761
   666  0000                     _RCEN	set	32299
   667  0000                     _RD	set	31736
   668  0000                     _RD0	set	31768
   669  0000                     _RF1	set	31785
   670  0000                     _RF3	set	31787
   671  0000                     _RF4	set	31788
   672  0000                     _RF5	set	31789
   673  0000                     _SCS0	set	32408
   674  0000                     _SCS1	set	32409
   675  0000                     _SEN	set	32296
   676  0000                     _SLRF	set	31877
   677  0000                     _SMP	set	32319
   678  0000                     _SSPEN	set	32309
   679  0000                     _SSPIF	set	31987
   680  0000                     _SSPM0	set	32304
   681  0000                     _SSPM1	set	32305
   682  0000                     _SSPM2	set	32306
   683  0000                     _SSPM3	set	32307
   684  0000                     _T2CKPS0	set	32336
   685  0000                     _T2CKPS1	set	32337
   686  0000                     _TMR2ON	set	32338
   687  0000                     _TRISA0	set	31888
   688  0000                     _TRISA1	set	31889
   689  0000                     _TRISB5	set	31901
   690  0000                     _TRISB6	set	31902
   691  0000                     _TRISC1	set	31905
   692  0000                     _TRISC2	set	31906
   693  0000                     _TRISC3	set	31907
   694  0000                     _TRISC4	set	31908
   695  0000                     _TRISC5	set	31909
   696  0000                     _TRISC6	set	31910
   697  0000                     _TRISC7	set	31911
   698  0000                     _TRISD0	set	31912
   699  0000                     _TRISE6	set	31926
   700  0000                     _TRISE7	set	31927
   701  0000                     _TRISF1	set	31929
   702  0000                     _TRISF3	set	31931
   703  0000                     _TRISF4	set	31932
   704  0000                     _TRISF5	set	31933
   705  0000                     _TRISG0	set	31936
   706  0000                     _TRISG3	set	31939
   707  0000                     _VCFG0	set	32268
   708  0000                     _VCFG1	set	32269
   709  0000                     _VNCFG	set	32267
   710  0000                     _WR	set	31737
   711  0000                     _WREN	set	31738
   712                           
   713                           	psect	smallconst
   714  000F00                     __psmallconst:
   715                           	opt stack 0
   716  000F00  00                 	db	0
   717  000F01                     STR_6:
   718  000F01  54                 	db	84	;'T'
   719  000F02  65                 	db	101	;'e'
   720  000F03  6D                 	db	109	;'m'
   721  000F04  70                 	db	112	;'p'
   722  000F05  20                 	db	32
   723  000F06  3A                 	db	58	;':'
   724  000F07  20                 	db	32
   725  000F08  00                 	db	0
   726  000F09                     STR_4:
   727  000F09  69                 	db	105	;'i'
   728  000F0A  6C                 	db	108	;'l'
   729  000F0B  6C                 	db	108	;'l'
   730  000F0C  65                 	db	101	;'e'
   731  000F0D  67                 	db	103	;'g'
   732  000F0E  61                 	db	97	;'a'
   733  000F0F  6C                 	db	108	;'l'
   734  000F10  00                 	db	0
   735  000F11  45                 	db	69	;'E'
   736  000F12  32                 	db	50	;'2'
   737  000F13  00                 	db	0
   738  000F14  45                 	db	69	;'E'
   739  000F15  00                 	db	0
   740  000F16  69                 	db	105	;'i'
   741  000F17  00                 	db	0
   742  0000                     
   743                           ; #config settings
   744  000F18  00                 	db	0	; dummy byte at the end
   745  0000                     
   746                           	psect	cinit
   747  001736                     __pcinit:
   748                           	opt stack 0
   749  001736                     start_initialization:
   750                           	opt stack 0
   751  001736                     __initialization:
   752                           	opt stack 0
   753                           
   754                           ; Clear objects allocated to BANK0 (80 bytes)
   755  001736  EE00  F060         	lfsr	0,__pbssBANK0
   756  00173A  0E50               	movlw	80
   757  00173C                     clear_0:
   758  00173C  6AEE               	clrf	postinc0,c
   759  00173E  06E8               	decf	wreg,f,c
   760  001740  E1FD               	bnz	clear_0
   761                           
   762                           ; Clear objects allocated to COMRAM (58 bytes)
   763  001742  EE00  F001         	lfsr	0,__pbssCOMRAM
   764  001746  0E3A               	movlw	58
   765  001748                     clear_1:
   766  001748  6AEE               	clrf	postinc0,c
   767  00174A  06E8               	decf	wreg,f,c
   768  00174C  E1FD               	bnz	clear_1
   769                           
   770                           ; Initialize objects allocated to BIGRAM (512 bytes)
   771                           ; load TBLPTR registers with __pidataBIGRAM
   772  00174E  0E8C               	movlw	low __pidataBIGRAM
   773  001750  6EF6               	movwf	tblptrl,c
   774  001752  0E11               	movlw	high __pidataBIGRAM
   775  001754  6EF7               	movwf	tblptrh,c
   776  001756  0E00               	movlw	low (__pidataBIGRAM shr (0+16))
   777  001758  6EF8               	movwf	tblptru,c
   778  00175A  EE00  F0B0         	lfsr	0,__pdataBIGRAM
   779  00175E  EE12 F000          	lfsr	1,512
   780  001762                     copy_data0:
   781  001762  0009               	tblrd		*+
   782  001764  CFF5 FFEE          	movff	tablat,postinc0
   783  001768  50E5               	movf	postdec1,w,c
   784  00176A  50E1               	movf	fsr1l,w,c
   785  00176C  E1FA               	bnz	copy_data0
   786  00176E  50E2               	movf	fsr1h,w,c
   787  001770  E1F8               	bnz	copy_data0
   788                           
   789                           ; Initialize objects allocated to COMRAM (2 bytes)
   790                           ; load TBLPTR registers with __pidataCOMRAM
   791  001772  0E24               	movlw	low __pidataCOMRAM
   792  001774  6EF6               	movwf	tblptrl,c
   793  001776  0E1D               	movlw	high __pidataCOMRAM
   794  001778  6EF7               	movwf	tblptrh,c
   795  00177A  0E00               	movlw	low (__pidataCOMRAM shr (0+16))
   796  00177C  6EF8               	movwf	tblptru,c
   797  00177E  0009               	tblrd		*+	;fetch initializer
   798  001780  CFF5 F05D          	movff	tablat,__pdataCOMRAM
   799  001784  0009               	tblrd		*+	;fetch initializer
   800  001786  CFF5 F05E          	movff	tablat,__pdataCOMRAM+1
   801  00178A                     end_of_initialization:
   802                           	opt stack 0
   803  00178A                     __end_of__initialization:
   804                           	opt stack 0
   805  00178A  0E00               	movlw	low (__Lmediumconst shr (0+16))
   806  00178C  6EF8               	movwf	tblptru,c
   807  00178E  0100               	movlb	0
   808  001790  EF8D  F007         	goto	_main	;jump to C main() function
   809                           tblptru	equ	0xFF8
   810                           tblptrh	equ	0xFF7
   811                           tblptrl	equ	0xFF6
   812                           tablat	equ	0xFF5
   813                           postinc0	equ	0xFEE
   814                           wreg	equ	0xFE8
   815                           postdec1	equ	0xFE5
   816                           fsr1h	equ	0xFE2
   817                           fsr1l	equ	0xFE1
   818                           
   819                           	psect	bssCOMRAM
   820  000001                     __pbssCOMRAM:
   821                           	opt stack 0
   822  000001                     _denemelik:
   823                           	opt stack 0
   824  000001                     	ds	10
   825  00000B                     _kk:
   826                           	opt stack 0
   827  00000B                     	ds	8
   828  000013                     _SD_RESP:
   829                           	opt stack 0
   830  000013                     	ds	5
   831  000018                     _dht11_data:
   832                           	opt stack 0
   833  000018                     	ds	5
   834  00001D                     _allocated:
   835                           	opt stack 0
   836  00001D                     	ds	2
   837  00001F                     _measured_value:
   838                           	opt stack 0
   839  00001F                     	ds	2
   840  000021                     _saim:
   841                           	opt stack 0
   842  000021                     	ds	2
   843  000023                     _CARD_VERSION:
   844                           	opt stack 0
   845  000023                     	ds	1
   846  000024                     _CURRENT_MESSAGE:
   847                           	opt stack 0
   848  000024                     	ds	1
   849  000025                     _SHOWN_BYTES:
   850                           	opt stack 0
   851  000025                     	ds	1
   852  000026                     __temp_:
   853                           	opt stack 0
   854  000026                     	ds	1
   855  000027                     _cevap:
   856                           	opt stack 0
   857  000027                     	ds	1
   858  000028                     _current_value_lcd:
   859                           	opt stack 0
   860  000028                     	ds	1
   861  000029                     _error:
   862                           	opt stack 0
   863  000029                     	ds	1
   864  00002A                     _high_time_count:
   865                           	opt stack 0
   866  00002A                     	ds	1
   867  00002B                     _j:
   868                           	opt stack 0
   869  00002B                     	ds	1
   870  00002C                     _low_time_count:
   871                           	opt stack 0
   872  00002C                     	ds	1
   873  00002D                     _nem:
   874                           	opt stack 0
   875  00002D                     	ds	1
   876  00002E                     _nisa:
   877                           	opt stack 0
   878  00002E                     	ds	1
   879  00002F                     _received:
   880                           	opt stack 0
   881  00002F                     	ds	1
   882  000030                     _received2:
   883                           	opt stack 0
   884  000030                     	ds	1
   885  000031                     _sicaklik:
   886                           	opt stack 0
   887  000031                     	ds	1
   888  000032                     _status:
   889                           	opt stack 0
   890  000032                     	ds	1
   891  000033                     _tempo:
   892                           	opt stack 0
   893  000033                     	ds	1
   894  000034                     _threshold:
   895                           	opt stack 0
   896  000034                     	ds	1
   897  000035                     _unnecessary:
   898                           	opt stack 0
   899  000035                     	ds	1
   900  000036                     _number_array:
   901                           	opt stack 0
   902  000036                     	ds	5
   903                           tblptru	equ	0xFF8
   904                           tblptrh	equ	0xFF7
   905                           tblptrl	equ	0xFF6
   906                           tablat	equ	0xFF5
   907                           postinc0	equ	0xFEE
   908                           wreg	equ	0xFE8
   909                           postdec1	equ	0xFE5
   910                           fsr1h	equ	0xFE2
   911                           fsr1l	equ	0xFE1
   912                           
   913                           	psect	dataCOMRAM
   914  00005D                     __pdataCOMRAM:
   915                           	opt stack 0
   916  00005D                     __x:
   917                           	opt stack 0
   918  00005D                     	ds	1
   919  00005E                     __y:
   920                           	opt stack 0
   921  00005E                     	ds	1
   922                           tblptru	equ	0xFF8
   923                           tblptrh	equ	0xFF7
   924                           tblptrl	equ	0xFF6
   925                           tablat	equ	0xFF5
   926                           postinc0	equ	0xFEE
   927                           wreg	equ	0xFE8
   928                           postdec1	equ	0xFE5
   929                           fsr1h	equ	0xFE2
   930                           fsr1l	equ	0xFE1
   931                           
   932                           	psect	bssBANK0
   933  000060                     __pbssBANK0:
   934                           	opt stack 0
   935  000060                     _hig_values:
   936                           	opt stack 0
   937  000060                     	ds	40
   938  000088                     _low_values:
   939                           	opt stack 0
   940  000088                     	ds	40
   941                           tblptru	equ	0xFF8
   942                           tblptrh	equ	0xFF7
   943                           tblptrl	equ	0xFF6
   944                           tablat	equ	0xFF5
   945                           postinc0	equ	0xFEE
   946                           wreg	equ	0xFE8
   947                           postdec1	equ	0xFE5
   948                           fsr1h	equ	0xFE2
   949                           fsr1l	equ	0xFE1
   950                           
   951                           	psect	dataBIGRAM
   952  0000B0                     __pdataBIGRAM:
   953                           	opt stack 0
   954  0000B0                     _buff:
   955                           	opt stack 0
   956  0000B0                     	ds	512
   957                           tblptru	equ	0xFF8
   958                           tblptrh	equ	0xFF7
   959                           tblptrl	equ	0xFF6
   960                           tablat	equ	0xFF5
   961                           postinc0	equ	0xFEE
   962                           wreg	equ	0xFE8
   963                           postdec1	equ	0xFE5
   964                           fsr1h	equ	0xFE2
   965                           fsr1l	equ	0xFE1
   966                           
   967                           	psect	cstackCOMRAM
   968  00003B                     __pcstackCOMRAM:
   969                           	opt stack 0
   970  00003B                     ??_wait:
   971  00003B                     ??_DHT11_get_data:
   972  00003B                     ??_load_shift_data_lcd:
   973  00003B                     ??_ADC_init:
   974  00003B                     ??_I2C_initialize:
   975  00003B                     ?_ADC_read:
   976                           	opt stack 0
   977  00003B                     ?___lwdiv:
   978                           	opt stack 0
   979  00003B                     ?___lwmod:
   980                           	opt stack 0
   981  00003B                     UART1_byte_send@data:
   982                           	opt stack 0
   983  00003B                     I2C_data_send@data:
   984                           	opt stack 0
   985  00003B                     PWM2_set_value@value:
   986                           	opt stack 0
   987  00003B                     PWM3_set_value@value:
   988                           	opt stack 0
   989  00003B                     PWM4_set_value@value:
   990                           	opt stack 0
   991  00003B                     PWM5_set_value@value:
   992                           	opt stack 0
   993  00003B                     EEPROM_read_byte@address:
   994                           	opt stack 0
   995  00003B                     EEPROM_write_byte@address:
   996                           	opt stack 0
   997  00003B                     ___lwdiv@dividend:
   998                           	opt stack 0
   999  00003B                     ___lwmod@dividend:
  1000                           	opt stack 0
  1001                           
  1002                           ; 2 bytes @ 0x0
  1003  00003B                     	ds	1
  1004  00003C                     wait@val:
  1005                           	opt stack 0
  1006                           
  1007                           ; 1 bytes @ 0x1
  1008  00003C                     	ds	1
  1009  00003D                     ??_ADC_read:
  1010  00003D                     ??_PWM2_set_value:
  1011  00003D                     ??_PWM3_set_value:
  1012  00003D                     ??_PWM4_set_value:
  1013  00003D                     ??_PWM5_set_value:
  1014  00003D                     DHT11_get_data@a:
  1015                           	opt stack 0
  1016  00003D                     load_shift_data_lcd@data:
  1017                           	opt stack 0
  1018  00003D                     EEPROM_write_byte@value:
  1019                           	opt stack 0
  1020  00003D                     wait@k:
  1021                           	opt stack 0
  1022  00003D                     ___lwdiv@divisor:
  1023                           	opt stack 0
  1024  00003D                     ___lwmod@divisor:
  1025                           	opt stack 0
  1026                           
  1027                           ; 2 bytes @ 0x2
  1028  00003D                     	ds	1
  1029  00003E                     DHT11_get_data@byte_index:
  1030                           	opt stack 0
  1031  00003E                     load_shift_data_lcd@a:
  1032                           	opt stack 0
  1033                           
  1034                           ; 1 bytes @ 0x3
  1035  00003E                     	ds	1
  1036  00003F                     DHT11_get_data@bit_index:
  1037                           	opt stack 0
  1038  00003F                     shift_reg_set_pin_lcd@value:
  1039                           	opt stack 0
  1040  00003F                     ___lwmod@counter:
  1041                           	opt stack 0
  1042  00003F                     ADC_read@val:
  1043                           	opt stack 0
  1044  00003F                     ___lwdiv@quotient:
  1045                           	opt stack 0
  1046                           
  1047                           ; 2 bytes @ 0x4
  1048  00003F                     	ds	1
  1049  000040                     ??_shift_reg_set_pin_lcd:
  1050                           
  1051                           ; 1 bytes @ 0x5
  1052  000040                     	ds	1
  1053  000041                     ADC_read@channel_number:
  1054                           	opt stack 0
  1055  000041                     ___lwdiv@counter:
  1056                           	opt stack 0
  1057                           
  1058                           ; 1 bytes @ 0x6
  1059  000041                     	ds	1
  1060  000042                     shift_reg_set_pin_lcd@pin_number:
  1061                           	opt stack 0
  1062  000042                     utoa@buf:
  1063                           	opt stack 0
  1064                           
  1065                           ; 2 bytes @ 0x7
  1066  000042                     	ds	1
  1067  000043                     lcd_info@data_type:
  1068                           	opt stack 0
  1069                           
  1070                           ; 1 bytes @ 0x8
  1071  000043                     	ds	1
  1072  000044                     ??_lcd_info:
  1073  000044                     utoa@val:
  1074                           	opt stack 0
  1075                           
  1076                           ; 2 bytes @ 0x9
  1077  000044                     	ds	1
  1078  000045                     lcd_info@c:
  1079                           	opt stack 0
  1080                           
  1081                           ; 1 bytes @ 0xA
  1082  000045                     	ds	1
  1083  000046                     lcd_goto@p_2:
  1084                           	opt stack 0
  1085  000046                     utoa@base:
  1086                           	opt stack 0
  1087                           
  1088                           ; 2 bytes @ 0xB
  1089  000046                     	ds	1
  1090  000047                     ??_lcd_goto:
  1091                           
  1092                           ; 1 bytes @ 0xC
  1093  000047                     	ds	1
  1094  000048                     lcd_goto@p_1:
  1095                           	opt stack 0
  1096  000048                     utoa@v:
  1097                           	opt stack 0
  1098                           
  1099                           ; 2 bytes @ 0xD
  1100  000048                     	ds	1
  1101  000049                     ??_lcd_clear:
  1102  000049                     lcd_yaz@data:
  1103                           	opt stack 0
  1104                           
  1105                           ; 1 bytes @ 0xE
  1106  000049                     	ds	1
  1107  00004A                     ??_LCD_init:
  1108  00004A                     utoa@c:
  1109                           	opt stack 0
  1110  00004A                     lcd_write@s:
  1111                           	opt stack 0
  1112                           
  1113                           ; 2 bytes @ 0xF
  1114  00004A                     	ds	1
  1115  00004B                     itoa@buf:
  1116                           	opt stack 0
  1117                           
  1118                           ; 2 bytes @ 0x10
  1119  00004B                     	ds	1
  1120  00004C                     ??_lcd_write:
  1121                           
  1122                           ; 1 bytes @ 0x11
  1123  00004C                     	ds	1
  1124  00004D                     itoa@val:
  1125                           	opt stack 0
  1126                           
  1127                           ; 2 bytes @ 0x12
  1128  00004D                     	ds	2
  1129  00004F                     itoa@base:
  1130                           	opt stack 0
  1131                           
  1132                           ; 2 bytes @ 0x14
  1133  00004F                     	ds	2
  1134  000051                     itoa@cp:
  1135                           	opt stack 0
  1136                           
  1137                           ; 2 bytes @ 0x16
  1138  000051                     	ds	2
  1139  000053                     lcd_write_number@number:
  1140                           	opt stack 0
  1141                           
  1142                           ; 2 bytes @ 0x18
  1143  000053                     	ds	2
  1144  000055                     ??_main:
  1145                           
  1146                           ; 1 bytes @ 0x1A
  1147  000055                     	ds	1
  1148  000056                     main@add_value:
  1149                           	opt stack 0
  1150                           
  1151                           ; 2 bytes @ 0x1B
  1152  000056                     	ds	2
  1153  000058                     main@k_935:
  1154                           	opt stack 0
  1155                           
  1156                           ; 2 bytes @ 0x1D
  1157  000058                     	ds	2
  1158  00005A                     main@k:
  1159                           	opt stack 0
  1160                           
  1161                           ; 1 bytes @ 0x1F
  1162  00005A                     	ds	1
  1163  00005B                     main@j:
  1164                           	opt stack 0
  1165                           
  1166                           ; 2 bytes @ 0x20
  1167  00005B                     	ds	2
  1168                           tblptru	equ	0xFF8
  1169                           tblptrh	equ	0xFF7
  1170                           tblptrl	equ	0xFF6
  1171                           tablat	equ	0xFF5
  1172                           postinc0	equ	0xFEE
  1173                           wreg	equ	0xFE8
  1174                           postdec1	equ	0xFE5
  1175                           fsr1h	equ	0xFE2
  1176                           fsr1l	equ	0xFE1
  1177                           
  1178 ;;
  1179 ;;Main: autosize = 0, tempsize = 1, incstack = 0, save=0
  1180 ;;
  1181 ;; *************** function _main *****************
  1182 ;; Defined at:
  1183 ;;		line 39 in file "F66K80.c"
  1184 ;; Parameters:    Size  Location     Type
  1185 ;;		None
  1186 ;; Auto vars:     Size  Location     Type
  1187 ;;  j               2   32[COMRAM] int 
  1188 ;;  k               1   31[COMRAM] unsigned char 
  1189 ;;  k               2   29[COMRAM] int 
  1190 ;;  add_value       2   27[COMRAM] int 
  1191 ;; Return value:  Size  Location     Type
  1192 ;;                  1    wreg      void 
  1193 ;; Registers used:
  1194 ;;		wreg, fsr0l, fsr0h, fsr2l, fsr2h, status,2, status,0, tblptrl, tblptrh, tblptru, prodl, prodh, cstack
  1195 ;; Tracked objects:
  1196 ;;		On entry : 0/0
  1197 ;;		On exit  : 0/0
  1198 ;;		Unchanged: 0/0
  1199 ;; Data sizes:     COMRAM   BANK0   BANK1   BANK2   BANK3   BANK4   BANK5   BANK6   BANK7   BANK8   BANK9  BANK10  BANK1
      +1  BANK12  BANK13  BANK14
  1200 ;;      Params:         0       0       0       0       0       0       0       0       0       0       0       0       
      +0       0       0       0
  1201 ;;      Locals:         7       0       0       0       0       0       0       0       0       0       0       0       
      +0       0       0       0
  1202 ;;      Temps:          1       0       0       0       0       0       0       0       0       0       0       0       
      +0       0       0       0
  1203 ;;      Totals:         8       0       0       0       0       0       0       0       0       0       0       0       
      +0       0       0       0
  1204 ;;Total ram usage:        8 bytes
  1205 ;; Hardware stack levels required when called:    7
  1206 ;; This function calls:
  1207 ;;		_ADC_init
  1208 ;;		_ADC_read
  1209 ;;		_DHT11_get_data
  1210 ;;		_EEPROM_read_byte
  1211 ;;		_EEPROM_write_byte
  1212 ;;		_I2C_Start
  1213 ;;		_I2C_Stop
  1214 ;;		_I2C_data_send
  1215 ;;		_I2C_initialize
  1216 ;;		_LCD_init
  1217 ;;		_PWM2_initialize
  1218 ;;		_PWM2_set_value
  1219 ;;		_PWM3_initialize
  1220 ;;		_PWM3_set_value
  1221 ;;		_PWM4_initialize
  1222 ;;		_PWM4_set_value
  1223 ;;		_PWM5_initialize
  1224 ;;		_PWM5_set_value
  1225 ;;		_UART1_byte_send
  1226 ;;		_UART1_init
  1227 ;;		_UART2_init
  1228 ;;		_lcd_clear
  1229 ;;		_lcd_write
  1230 ;;		_lcd_write_number
  1231 ;;		_wait
  1232 ;; This function is called by:
  1233 ;;		Startup code after reset
  1234 ;; This function uses a non-reentrant model
  1235 ;;
  1236                           
  1237                           	psect	text0
  1238  000F1A                     __ptext0:
  1239                           	opt stack 0
  1240  000F1A                     _main:
  1241                           	opt stack 24
  1242                           
  1243                           ;F66K80.c: 42: SCS1 = 1;
  1244                           
  1245                           ;incstack = 0
  1246  000F1A  82D3               	bsf	4051,1,c	;volatile
  1247                           
  1248                           ;F66K80.c: 43: SCS0 = 0;
  1249  000F1C  90D3               	bcf	4051,0,c	;volatile
  1250                           
  1251                           ;F66K80.c: 44: INTSRC = 1;
  1252  000F1E  8E9B               	bsf	3995,7,c	;volatile
  1253                           
  1254                           ;F66K80.c: 45: MFIOSEL = 0;
  1255  000F20  90D2               	bcf	4050,0,c	;volatile
  1256                           
  1257                           ;F66K80.c: 46: _delay((unsigned long)((5)*(16000000UL/4000.0)));
  1258  000F22  0E1A               	movlw	26
  1259  000F24  6E55               	movwf	??_main& (0+255),c
  1260  000F26  0EF8               	movlw	248
  1261  000F28                     u1717:
  1262  000F28  2EE8               	decfsz	wreg,f,c
  1263  000F2A  D7FE               	goto	u1717
  1264  000F2C  2E55               	decfsz	??_main& (0+255),f,c
  1265  000F2E  D7FC               	goto	u1717
  1266  000F30  D000               	nop2	
  1267                           
  1268                           ;F66K80.c: 51: IRCF2 = 1;
  1269  000F32  8CD3               	bsf	4051,6,c	;volatile
  1270                           
  1271                           ;F66K80.c: 52: IRCF1 = 1;
  1272  000F34  8AD3               	bsf	4051,5,c	;volatile
  1273                           
  1274                           ;F66K80.c: 53: IRCF0 = 1;
  1275  000F36  88D3               	bsf	4051,4,c	;volatile
  1276                           
  1277                           ;F66K80.c: 54: _delay((unsigned long)((10)*(16000000UL/4000.0)));
  1278  000F38  0E34               	movlw	52
  1279  000F3A  6E55               	movwf	??_main& (0+255),c
  1280  000F3C  0EF2               	movlw	242
  1281  000F3E                     u1727:
  1282  000F3E  2EE8               	decfsz	wreg,f,c
  1283  000F40  D7FE               	goto	u1727
  1284  000F42  2E55               	decfsz	??_main& (0+255),f,c
  1285  000F44  D7FC               	goto	u1727
  1286                           
  1287                           ;F66K80.c: 56: _delay((unsigned long)((10)*(16000000UL/4000.0)));
  1288  000F46  0E34               	movlw	52
  1289  000F48  6E55               	movwf	??_main& (0+255),c
  1290  000F4A  0EF2               	movlw	242
  1291  000F4C                     u1737:
  1292  000F4C  2EE8               	decfsz	wreg,f,c
  1293  000F4E  D7FE               	goto	u1737
  1294  000F50  2E55               	decfsz	??_main& (0+255),f,c
  1295  000F52  D7FC               	goto	u1737
  1296                           
  1297                           ;F66K80.c: 57: PWM2_initialize();
  1298  000F54  EC4B  F00E         	call	_PWM2_initialize	;wreg free
  1299                           
  1300                           ;F66K80.c: 58: PWM3_initialize();
  1301  000F58  EC3A  F00E         	call	_PWM3_initialize	;wreg free
  1302                           
  1303                           ;F66K80.c: 59: PWM4_initialize();
  1304  000F5C  EC29  F00E         	call	_PWM4_initialize	;wreg free
  1305                           
  1306                           ;F66K80.c: 60: PWM5_initialize();
  1307  000F60  EC18  F00E         	call	_PWM5_initialize	;wreg free
  1308                           
  1309                           ;F66K80.c: 61: PWM2_set_value(100);
  1310  000F64  0E00               	movlw	0
  1311  000F66  6E3C               	movwf	PWM2_set_value@value+1,c
  1312  000F68  0E64               	movlw	100
  1313  000F6A  6E3B               	movwf	PWM2_set_value@value,c
  1314  000F6C  EC03  F00D         	call	_PWM2_set_value	;wreg free
  1315                           
  1316                           ;F66K80.c: 62: PWM3_set_value(300);
  1317  000F70  0E01               	movlw	1
  1318  000F72  6E3C               	movwf	PWM3_set_value@value+1,c
  1319  000F74  0E2C               	movlw	44
  1320  000F76  6E3B               	movwf	PWM3_set_value@value,c
  1321  000F78  ECDF  F00C         	call	_PWM3_set_value	;wreg free
  1322                           
  1323                           ;F66K80.c: 63: PWM4_set_value(500);
  1324  000F7C  0E01               	movlw	1
  1325  000F7E  6E3C               	movwf	PWM4_set_value@value+1,c
  1326  000F80  0EF4               	movlw	244
  1327  000F82  6E3B               	movwf	PWM4_set_value@value,c
  1328  000F84  ECBB  F00C         	call	_PWM4_set_value	;wreg free
  1329                           
  1330                           ;F66K80.c: 64: PWM5_set_value(700);
  1331  000F88  0E02               	movlw	2
  1332  000F8A  6E3C               	movwf	PWM5_set_value@value+1,c
  1333  000F8C  0EBC               	movlw	188
  1334  000F8E  6E3B               	movwf	PWM5_set_value@value,c
  1335  000F90  EC97  F00C         	call	_PWM5_set_value	;wreg free
  1336                           
  1337                           ;F66K80.c: 65: EEPROM_write_byte(10, 'J');
  1338  000F94  0E00               	movlw	0
  1339  000F96  6E3C               	movwf	EEPROM_write_byte@address+1,c
  1340  000F98  0E0A               	movlw	10
  1341  000F9A  6E3B               	movwf	EEPROM_write_byte@address,c
  1342  000F9C  0E4A               	movlw	74
  1343  000F9E  6E3D               	movwf	EEPROM_write_byte@value,c
  1344  000FA0  ECE2  F00D         	call	_EEPROM_write_byte	;wreg free
  1345                           
  1346                           ;F66K80.c: 66: _delay((unsigned long)((5)*(16000000UL/4000.0)));
  1347  000FA4  0E1A               	movlw	26
  1348  000FA6  6E55               	movwf	??_main& (0+255),c
  1349  000FA8  0EF8               	movlw	248
  1350  000FAA                     u1747:
  1351  000FAA  2EE8               	decfsz	wreg,f,c
  1352  000FAC  D7FE               	goto	u1747
  1353  000FAE  2E55               	decfsz	??_main& (0+255),f,c
  1354  000FB0  D7FC               	goto	u1747
  1355  000FB2  D000               	nop2	
  1356                           
  1357                           ;F66K80.c: 67: TRISF3 = 0;
  1358  000FB4  9697               	bcf	3991,3,c	;volatile
  1359                           
  1360                           ;F66K80.c: 68: TRISF4=0;
  1361  000FB6  9897               	bcf	3991,4,c	;volatile
  1362                           
  1363                           ;F66K80.c: 69: TRISF5=0;
  1364  000FB8  9A97               	bcf	3991,5,c	;volatile
  1365                           
  1366                           ;F66K80.c: 70: LCD_init();
  1367  000FBA  ECB4  F00A         	call	_LCD_init	;wreg free
  1368                           
  1369                           ;F66K80.c: 71: lcd_write("Temp : ");
  1370  000FBE  0E01               	movlw	low STR_6
  1371  000FC0  6E4A               	movwf	lcd_write@s,c
  1372  000FC2  0E0F               	movlw	high STR_6
  1373  000FC4  6E4B               	movwf	lcd_write@s+1,c
  1374  000FC6  EC59  F00B         	call	_lcd_write	;wreg free
  1375                           
  1376                           ;F66K80.c: 72: UART1_init();
  1377  000FCA  EC69  F00E         	call	_UART1_init	;wreg free
  1378                           
  1379                           ;F66K80.c: 73: for(char k =0; k < 4; k++) UART1_byte_send(EEPROM_read_byte(10+k));
  1380  000FCE  0E00               	movlw	0
  1381  000FD0  6E5A               	movwf	main@k,c
  1382  000FD2                     l2649:
  1383  000FD2  0E03               	movlw	3
  1384  000FD4  645A               	cpfsgt	main@k,c
  1385  000FD6  D001               	goto	l2653
  1386  000FD8  D00C               	goto	l625
  1387  000FDA                     l2653:
  1388  000FDA  0E0A               	movlw	10
  1389  000FDC  245A               	addwf	main@k,w,c
  1390  000FDE  6E3B               	movwf	EEPROM_read_byte@address,c
  1391  000FE0  6A3C               	clrf	EEPROM_read_byte@address+1,c
  1392  000FE2  0E00               	movlw	0
  1393  000FE4  223C               	addwfc	EEPROM_read_byte@address+1,f,c
  1394  000FE6  EC76  F00E         	call	_EEPROM_read_byte	;wreg free
  1395  000FEA  EC82  F00E         	call	_UART1_byte_send
  1396  000FEE  2A5A               	incf	main@k,f,c
  1397  000FF0  D7F0               	goto	l2649
  1398  000FF2                     l625:
  1399                           
  1400                           ;F66K80.c: 74: TRISB6 = 0;
  1401  000FF2  9C93               	bcf	3987,6,c	;volatile
  1402                           
  1403                           ;F66K80.c: 75: TRISB5 = 0;
  1404  000FF4  9A93               	bcf	3987,5,c	;volatile
  1405                           
  1406                           ;F66K80.c: 76: PORTD = 0;
  1407  000FF6  0E00               	movlw	0
  1408  000FF8  6E83               	movwf	3971,c	;volatile
  1409                           
  1410                           ;F66K80.c: 77: TRISD = 0x0;
  1411  000FFA  0E00               	movlw	0
  1412  000FFC  6E95               	movwf	3989,c	;volatile
  1413                           
  1414                           ;F66K80.c: 78: RD0 = 0;
  1415  000FFE  9083               	bcf	3971,0,c	;volatile
  1416                           
  1417                           ;F66K80.c: 79: PORTE = 0;
  1418  001000  0E00               	movlw	0
  1419  001002  6E84               	movwf	3972,c	;volatile
  1420                           
  1421                           ;F66K80.c: 80: PORTF = 0;
  1422  001004  0E00               	movlw	0
  1423  001006  6E85               	movwf	3973,c	;volatile
  1424                           
  1425                           ;F66K80.c: 81: TRISF1 = 1;
  1426  001008  8297               	bsf	3991,1,c	;volatile
  1427                           
  1428                           ;F66K80.c: 82: TRISE = 0;
  1429  00100A  0E00               	movlw	0
  1430  00100C  6E96               	movwf	3990,c	;volatile
  1431                           
  1432                           ;F66K80.c: 83: TRISD0 = 1;
  1433  00100E  8095               	bsf	3989,0,c	;volatile
  1434                           
  1435                           ;F66K80.c: 84: SLRF = 0;
  1436  001010  9A90               	bcf	3984,5,c	;volatile
  1437                           
  1438                           ;F66K80.c: 85: ANCON0 =0; ANCON1 = 0;
  1439  001012  0E00               	movlw	0
  1440  001014  010F               	movlb	15	; () banked
  1441  001016  6F5D               	movwf	93,b	;volatile
  1442  001018  0E00               	movlw	0
  1443  00101A  010F               	movlb	15	; () banked
  1444  00101C  6F5C               	movwf	92,b	;volatile
  1445                           
  1446                           ; BSR set to: 15
  1447                           ;F66K80.c: 87: _delay((unsigned long)((10)*(16000000UL/4000.0)));
  1448  00101E  0E34               	movlw	52
  1449  001020  6E55               	movwf	??_main& (0+255),c
  1450  001022  0EF2               	movlw	242
  1451  001024                     u1757:
  1452  001024  2EE8               	decfsz	wreg,f,c
  1453  001026  D7FE               	goto	u1757
  1454  001028  2E55               	decfsz	??_main& (0+255),f,c
  1455  00102A  D7FC               	goto	u1757
  1456                           
  1457                           ;F66K80.c: 88: _delay((unsigned long)((10)*(16000000UL/4000.0)));
  1458  00102C  0E34               	movlw	52
  1459  00102E  6E55               	movwf	??_main& (0+255),c
  1460  001030  0EF2               	movlw	242
  1461  001032                     u1767:
  1462  001032  2EE8               	decfsz	wreg,f,c
  1463  001034  D7FE               	goto	u1767
  1464  001036  2E55               	decfsz	??_main& (0+255),f,c
  1465  001038  D7FC               	goto	u1767
  1466                           
  1467                           ;F66K80.c: 89: UART2_init();
  1468  00103A  EC5C  F00E         	call	_UART2_init	;wreg free
  1469                           
  1470                           ;F66K80.c: 90: ADC_init();
  1471  00103E  EC4B  F00C         	call	_ADC_init	;wreg free
  1472                           
  1473                           ;F66K80.c: 91: I2C_initialize();
  1474  001042  ECCF  F00D         	call	_I2C_initialize	;wreg free
  1475                           
  1476                           ;F66K80.c: 93: PWM2_initialize();
  1477  001046  EC4B  F00E         	call	_PWM2_initialize	;wreg free
  1478                           
  1479                           ;F66K80.c: 94: _delay((unsigned long)((15)*(16000000UL/4000.0)));
  1480  00104A  0E4E               	movlw	78
  1481  00104C  6E55               	movwf	??_main& (0+255),c
  1482  00104E  0EEB               	movlw	235
  1483  001050                     u1777:
  1484  001050  2EE8               	decfsz	wreg,f,c
  1485  001052  D7FE               	goto	u1777
  1486  001054  2E55               	decfsz	??_main& (0+255),f,c
  1487  001056  D7FC               	goto	u1777
  1488  001058  F000               	nop	
  1489                           
  1490                           ;F66K80.c: 95: DHT11_get_data();
  1491  00105A  EC4E  F00A         	call	_DHT11_get_data	;wreg free
  1492                           
  1493                           ;F66K80.c: 96: PORTD = sicaklik;
  1494  00105E  C031  FF83         	movff	_sicaklik,3971	;volatile
  1495                           
  1496                           ;F66K80.c: 98: TRISC1 = 0;
  1497  001062  9294               	bcf	3988,1,c	;volatile
  1498                           
  1499                           ;F66K80.c: 100: wait(25);
  1500  001064  0E19               	movlw	25
  1501  001066  EC07  F00E         	call	_wait
  1502                           
  1503                           ;F66K80.c: 101: for(int j = 0; j < 512; j++) buff[j] = j;
  1504  00106A  0E00               	movlw	0
  1505  00106C  6E5C               	movwf	main@j+1,c
  1506  00106E  0E00               	movlw	0
  1507  001070  6E5B               	movwf	main@j,c
  1508  001072                     l2693:
  1509  001072  BE5C               	btfsc	main@j+1,7,c
  1510  001074  D004               	goto	l2697
  1511  001076  0E02               	movlw	2
  1512  001078  5C5C               	subwf	main@j+1,w,c
  1513  00107A  B0D8               	btfsc	status,0,c
  1514  00107C  D00B               	goto	l2703
  1515  00107E                     l2697:
  1516  00107E  0EB0               	movlw	low _buff
  1517  001080  245B               	addwf	main@j,w,c
  1518  001082  6ED9               	movwf	fsr2l,c
  1519  001084  0E00               	movlw	high _buff
  1520  001086  205C               	addwfc	main@j+1,w,c
  1521  001088  6EDA               	movwf	fsr2h,c
  1522  00108A  C05B  FFDF         	movff	main@j,indf2
  1523  00108E  4A5B               	infsnz	main@j,f,c
  1524  001090  2A5C               	incf	main@j+1,f,c
  1525  001092  D7EF               	goto	l2693
  1526  001094                     l2703:
  1527                           
  1528                           ;F66K80.c: 103: wait(100);
  1529  001094  0E64               	movlw	100
  1530  001096  EC07  F00E         	call	_wait
  1531                           
  1532                           ;F66K80.c: 106: EEPROM_write_byte(10, 'S');
  1533  00109A  0E00               	movlw	0
  1534  00109C  6E3C               	movwf	EEPROM_write_byte@address+1,c
  1535  00109E  0E0A               	movlw	10
  1536  0010A0  6E3B               	movwf	EEPROM_write_byte@address,c
  1537  0010A2  0E53               	movlw	83
  1538  0010A4  6E3D               	movwf	EEPROM_write_byte@value,c
  1539  0010A6  ECE2  F00D         	call	_EEPROM_write_byte	;wreg free
  1540                           
  1541                           ;F66K80.c: 107: _delay((unsigned long)((5)*(16000000UL/4000.0)));
  1542  0010AA  0E1A               	movlw	26
  1543  0010AC  6E55               	movwf	??_main& (0+255),c
  1544  0010AE  0EF8               	movlw	248
  1545  0010B0                     u1787:
  1546  0010B0  2EE8               	decfsz	wreg,f,c
  1547  0010B2  D7FE               	goto	u1787
  1548  0010B4  2E55               	decfsz	??_main& (0+255),f,c
  1549  0010B6  D7FC               	goto	u1787
  1550  0010B8  D000               	nop2	
  1551                           
  1552                           ;F66K80.c: 108: EEPROM_write_byte(11, 'a');
  1553  0010BA  0E00               	movlw	0
  1554  0010BC  6E3C               	movwf	EEPROM_write_byte@address+1,c
  1555  0010BE  0E0B               	movlw	11
  1556  0010C0  6E3B               	movwf	EEPROM_write_byte@address,c
  1557  0010C2  0E61               	movlw	97
  1558  0010C4  6E3D               	movwf	EEPROM_write_byte@value,c
  1559  0010C6  ECE2  F00D         	call	_EEPROM_write_byte	;wreg free
  1560                           
  1561                           ;F66K80.c: 109: _delay((unsigned long)((5)*(16000000UL/4000.0)));
  1562  0010CA  0E1A               	movlw	26
  1563  0010CC  6E55               	movwf	??_main& (0+255),c
  1564  0010CE  0EF8               	movlw	248
  1565  0010D0                     u1797:
  1566  0010D0  2EE8               	decfsz	wreg,f,c
  1567  0010D2  D7FE               	goto	u1797
  1568  0010D4  2E55               	decfsz	??_main& (0+255),f,c
  1569  0010D6  D7FC               	goto	u1797
  1570  0010D8  D000               	nop2	
  1571                           
  1572                           ;F66K80.c: 110: EEPROM_write_byte(12, 'i');
  1573  0010DA  0E00               	movlw	0
  1574  0010DC  6E3C               	movwf	EEPROM_write_byte@address+1,c
  1575  0010DE  0E0C               	movlw	12
  1576  0010E0  6E3B               	movwf	EEPROM_write_byte@address,c
  1577  0010E2  0E69               	movlw	105
  1578  0010E4  6E3D               	movwf	EEPROM_write_byte@value,c
  1579  0010E6  ECE2  F00D         	call	_EEPROM_write_byte	;wreg free
  1580                           
  1581                           ;F66K80.c: 111: _delay((unsigned long)((5)*(16000000UL/4000.0)));
  1582  0010EA  0E1A               	movlw	26
  1583  0010EC  6E55               	movwf	??_main& (0+255),c
  1584  0010EE  0EF8               	movlw	248
  1585  0010F0                     u1807:
  1586  0010F0  2EE8               	decfsz	wreg,f,c
  1587  0010F2  D7FE               	goto	u1807
  1588  0010F4  2E55               	decfsz	??_main& (0+255),f,c
  1589  0010F6  D7FC               	goto	u1807
  1590  0010F8  D000               	nop2	
  1591                           
  1592                           ;F66K80.c: 112: EEPROM_write_byte(13, 'm');
  1593  0010FA  0E00               	movlw	0
  1594  0010FC  6E3C               	movwf	EEPROM_write_byte@address+1,c
  1595  0010FE  0E0D               	movlw	13
  1596  001100  6E3B               	movwf	EEPROM_write_byte@address,c
  1597  001102  0E6D               	movlw	109
  1598  001104  6E3D               	movwf	EEPROM_write_byte@value,c
  1599  001106  ECE2  F00D         	call	_EEPROM_write_byte	;wreg free
  1600                           
  1601                           ;F66K80.c: 113: _delay((unsigned long)((5)*(16000000UL/4000.0)));
  1602  00110A  0E1A               	movlw	26
  1603  00110C  6E55               	movwf	??_main& (0+255),c
  1604  00110E  0EF8               	movlw	248
  1605  001110                     u1817:
  1606  001110  2EE8               	decfsz	wreg,f,c
  1607  001112  D7FE               	goto	u1817
  1608  001114  2E55               	decfsz	??_main& (0+255),f,c
  1609  001116  D7FC               	goto	u1817
  1610  001118  D000               	nop2	
  1611                           
  1612                           ;F66K80.c: 114: int k = 0;
  1613  00111A  0E00               	movlw	0
  1614  00111C  6E59               	movwf	main@k_935+1,c
  1615  00111E  0E00               	movlw	0
  1616  001120  6E58               	movwf	main@k_935,c
  1617                           
  1618                           ;F66K80.c: 115: int add_value = 20;
  1619  001122  0E00               	movlw	0
  1620  001124  6E57               	movwf	main@add_value+1,c
  1621  001126  0E14               	movlw	20
  1622  001128  6E56               	movwf	main@add_value,c
  1623  00112A                     l628:
  1624                           
  1625                           ;F66K80.c: 117: {
  1626                           ;F66K80.c: 118: lcd_clear();
  1627  00112A  ECA3  F00D         	call	_lcd_clear	;wreg free
  1628                           
  1629                           ;F66K80.c: 125: if(k==0)
  1630  00112E  5058               	movf	main@k_935,w,c
  1631  001130  1059               	iorwf	main@k_935+1,w,c
  1632  001132  A4D8               	btfss	status,2,c
  1633  001134  D00C               	goto	l2731
  1634                           
  1635                           ;F66K80.c: 126: {
  1636                           ;F66K80.c: 127: measured_value = ADC_read(0);
  1637  001136  0E00               	movlw	0
  1638  001138  ECCA  F00B         	call	_ADC_read
  1639  00113C  C03B  F01F         	movff	?_ADC_read,_measured_value
  1640  001140  C03C  F020         	movff	?_ADC_read+1,_measured_value+1
  1641                           
  1642                           ;F66K80.c: 128: k = 1;
  1643  001144  0E00               	movlw	0
  1644  001146  6E59               	movwf	main@k_935+1,c
  1645  001148  0E01               	movlw	1
  1646  00114A  6E58               	movwf	main@k_935,c
  1647                           
  1648                           ;F66K80.c: 129: }
  1649  00114C  D00B               	goto	l2735
  1650  00114E                     l2731:
  1651                           
  1652                           ;F66K80.c: 130: else {
  1653                           ;F66K80.c: 131: k = 0;
  1654  00114E  0E00               	movlw	0
  1655  001150  6E59               	movwf	main@k_935+1,c
  1656  001152  0E00               	movlw	0
  1657  001154  6E58               	movwf	main@k_935,c
  1658                           
  1659                           ;F66K80.c: 132: measured_value = ADC_read(1);
  1660  001156  0E01               	movlw	1
  1661  001158  ECCA  F00B         	call	_ADC_read
  1662  00115C  C03B  F01F         	movff	?_ADC_read,_measured_value
  1663  001160  C03C  F020         	movff	?_ADC_read+1,_measured_value+1
  1664  001164                     l2735:
  1665                           
  1666                           ;F66K80.c: 134: }
  1667                           ;F66K80.c: 136: I2C_Start();
  1668  001164  EC8D  F00E         	call	_I2C_Start	;wreg free
  1669                           
  1670                           ;F66K80.c: 137: I2C_data_send(0b11010000);
  1671  001168  0ED0               	movlw	208
  1672  00116A  ECF5  F00D         	call	_I2C_data_send
  1673                           
  1674                           ;F66K80.c: 138: I2C_data_send(0x1);
  1675  00116E  0E01               	movlw	1
  1676  001170  ECF5  F00D         	call	_I2C_data_send
  1677                           
  1678                           ;F66K80.c: 140: I2C_Stop();
  1679  001174  EC88  F00E         	call	_I2C_Stop	;wreg free
  1680                           
  1681                           ;F66K80.c: 144: lcd_write_number(measured_value);
  1682  001178  C01F  F053         	movff	_measured_value,lcd_write_number@number
  1683  00117C  C020  F054         	movff	_measured_value+1,lcd_write_number@number+1
  1684  001180  ECBA  F00D         	call	_lcd_write_number	;wreg free
  1685                           
  1686                           ;F66K80.c: 145: wait(100);
  1687  001184  0E64               	movlw	100
  1688  001186  EC07  F00E         	call	_wait
  1689  00118A  D7CF               	goto	l628
  1690  00118C                     __end_of_main:
  1691                           	opt stack 0
  1692                           tblptru	equ	0xFF8
  1693                           tblptrh	equ	0xFF7
  1694                           tblptrl	equ	0xFF6
  1695                           tablat	equ	0xFF5
  1696                           postinc0	equ	0xFEE
  1697                           wreg	equ	0xFE8
  1698                           postdec1	equ	0xFE5
  1699                           fsr1h	equ	0xFE2
  1700                           fsr1l	equ	0xFE1
  1701                           indf2	equ	0xFDF
  1702                           fsr2h	equ	0xFDA
  1703                           fsr2l	equ	0xFD9
  1704                           status	equ	0xFD8
  1705                           
  1706 ;; *************** function _wait *****************
  1707 ;; Defined at:
  1708 ;;		line 30 in file "F66K80.c"
  1709 ;; Parameters:    Size  Location     Type
  1710 ;;  val             1    wreg     unsigned char 
  1711 ;; Auto vars:     Size  Location     Type
  1712 ;;  val             1    1[COMRAM] unsigned char 
  1713 ;;  k               1    2[COMRAM] unsigned char 
  1714 ;; Return value:  Size  Location     Type
  1715 ;;                  1    wreg      void 
  1716 ;; Registers used:
  1717 ;;		wreg, status,2, status,0, cstack
  1718 ;; Tracked objects:
  1719 ;;		On entry : 0/0
  1720 ;;		On exit  : 0/0
  1721 ;;		Unchanged: 0/0
  1722 ;; Data sizes:     COMRAM   BANK0   BANK1   BANK2   BANK3   BANK4   BANK5   BANK6   BANK7   BANK8   BANK9  BANK10  BANK1
      +1  BANK12  BANK13  BANK14
  1723 ;;      Params:         0       0       0       0       0       0       0       0       0       0       0       0       
      +0       0       0       0
  1724 ;;      Locals:         2       0       0       0       0       0       0       0       0       0       0       0       
      +0       0       0       0
  1725 ;;      Temps:          1       0       0       0       0       0       0       0       0       0       0       0       
      +0       0       0       0
  1726 ;;      Totals:         3       0       0       0       0       0       0       0       0       0       0       0       
      +0       0       0       0
  1727 ;;Total ram usage:        3 bytes
  1728 ;; Hardware stack levels used:    1
  1729 ;; This function calls:
  1730 ;;		Nothing
  1731 ;; This function is called by:
  1732 ;;		_main
  1733 ;;		_SDCARD_send_command
  1734 ;;		_SDCARD_baslat
  1735 ;; This function uses a non-reentrant model
  1736 ;;
  1737                           
  1738                           	psect	text1
  1739  001C0E                     __ptext1:
  1740                           	opt stack 0
  1741  001C0E                     _wait:
  1742                           	opt stack 30
  1743                           
  1744                           ;incstack = 0
  1745                           ;wait@val stored from wreg
  1746  001C0E  6E3C               	movwf	wait@val,c
  1747                           
  1748                           ;F66K80.c: 32: for(byte k = 0; k < val; k++)_delay((unsigned long)((10)*(16000000UL/4000
      +                          .0)));
  1749  001C10  0E00               	movlw	0
  1750  001C12  6E3D               	movwf	wait@k,c
  1751  001C14  D008               	goto	l1655
  1752  001C16                     l1651:
  1753  001C16  0E34               	movlw	52
  1754  001C18  6E3B               	movwf	??_wait& (0+255),c
  1755  001C1A  0EF2               	movlw	242
  1756  001C1C                     u1827:
  1757  001C1C  2EE8               	decfsz	wreg,f,c
  1758  001C1E  D7FE               	goto	u1827
  1759  001C20  2E3B               	decfsz	??_wait& (0+255),f,c
  1760  001C22  D7FC               	goto	u1827
  1761  001C24  2A3D               	incf	wait@k,f,c
  1762  001C26                     l1655:
  1763  001C26  503C               	movf	wait@val,w,c
  1764  001C28  5C3D               	subwf	wait@k,w,c
  1765  001C2A  B0D8               	btfsc	status,0,c
  1766  001C2C  0012               	return	
  1767  001C2E  D7F3               	goto	l1651
  1768  001C30                     __end_of_wait:
  1769                           	opt stack 0
  1770                           tblptru	equ	0xFF8
  1771                           tblptrh	equ	0xFF7
  1772                           tblptrl	equ	0xFF6
  1773                           tablat	equ	0xFF5
  1774                           postinc0	equ	0xFEE
  1775                           wreg	equ	0xFE8
  1776                           postdec1	equ	0xFE5
  1777                           fsr1h	equ	0xFE2
  1778                           fsr1l	equ	0xFE1
  1779                           indf2	equ	0xFDF
  1780                           fsr2h	equ	0xFDA
  1781                           fsr2l	equ	0xFD9
  1782                           status	equ	0xFD8
  1783                           
  1784 ;; *************** function _lcd_write_number *****************
  1785 ;; Defined at:
  1786 ;;		line 235 in file "ShiftLCD.h"
  1787 ;; Parameters:    Size  Location     Type
  1788 ;;  number          2   24[COMRAM] int 
  1789 ;; Auto vars:     Size  Location     Type
  1790 ;;		None
  1791 ;; Return value:  Size  Location     Type
  1792 ;;                  1    wreg      void 
  1793 ;; Registers used:
  1794 ;;		wreg, fsr0l, fsr0h, fsr2l, fsr2h, status,2, status,0, tblptrl, tblptrh, tblptru, cstack
  1795 ;; Tracked objects:
  1796 ;;		On entry : 0/0
  1797 ;;		On exit  : 0/0
  1798 ;;		Unchanged: 0/0
  1799 ;; Data sizes:     COMRAM   BANK0   BANK1   BANK2   BANK3   BANK4   BANK5   BANK6   BANK7   BANK8   BANK9  BANK10  BANK1
      +1  BANK12  BANK13  BANK14
  1800 ;;      Params:         2       0       0       0       0       0       0       0       0       0       0       0       
      +0       0       0       0
  1801 ;;      Locals:         0       0       0       0       0       0       0       0       0       0       0       0       
      +0       0       0       0
  1802 ;;      Temps:          0       0       0       0       0       0       0       0       0       0       0       0       
      +0       0       0       0
  1803 ;;      Totals:         2       0       0       0       0       0       0       0       0       0       0       0       
      +0       0       0       0
  1804 ;;Total ram usage:        2 bytes
  1805 ;; Hardware stack levels used:    1
  1806 ;; Hardware stack levels required when called:    6
  1807 ;; This function calls:
  1808 ;;		_itoa
  1809 ;;		_lcd_write
  1810 ;; This function is called by:
  1811 ;;		_main
  1812 ;; This function uses a non-reentrant model
  1813 ;;
  1814                           
  1815                           	psect	text2
  1816  001B74                     __ptext2:
  1817                           	opt stack 0
  1818  001B74                     _lcd_write_number:
  1819                           	opt stack 24
  1820                           
  1821                           ;ShiftLCD.h: 237: itoa((char *)number_array, number, 10);
  1822                           
  1823                           ;incstack = 0
  1824  001B74  0E36               	movlw	low _number_array
  1825  001B76  6E4B               	movwf	itoa@buf,c
  1826  001B78  0E00               	movlw	high _number_array
  1827  001B7A  6E4C               	movwf	itoa@buf+1,c
  1828  001B7C  C053  F04D         	movff	lcd_write_number@number,itoa@val
  1829  001B80  C054  F04E         	movff	lcd_write_number@number+1,itoa@val+1
  1830  001B84  0E00               	movlw	0
  1831  001B86  6E50               	movwf	itoa@base+1,c
  1832  001B88  0E0A               	movlw	10
  1833  001B8A  6E4F               	movwf	itoa@base,c
  1834  001B8C  EC27  F00D         	call	_itoa	;wreg free
  1835                           
  1836                           ;ShiftLCD.h: 238: lcd_write(number_array);
  1837  001B90  0E36               	movlw	low _number_array
  1838  001B92  6E4A               	movwf	lcd_write@s,c
  1839  001B94  0E00               	movlw	high _number_array
  1840  001B96  6E4B               	movwf	lcd_write@s+1,c
  1841  001B98  EC59  F00B         	call	_lcd_write	;wreg free
  1842  001B9C  0012               	return		;funcret
  1843  001B9E                     __end_of_lcd_write_number:
  1844                           	opt stack 0
  1845                           tblptru	equ	0xFF8
  1846                           tblptrh	equ	0xFF7
  1847                           tblptrl	equ	0xFF6
  1848                           tablat	equ	0xFF5
  1849                           postinc0	equ	0xFEE
  1850                           wreg	equ	0xFE8
  1851                           postdec1	equ	0xFE5
  1852                           fsr1h	equ	0xFE2
  1853                           fsr1l	equ	0xFE1
  1854                           indf2	equ	0xFDF
  1855                           fsr2h	equ	0xFDA
  1856                           fsr2l	equ	0xFD9
  1857                           status	equ	0xFD8
  1858                           
  1859 ;; *************** function _lcd_write *****************
  1860 ;; Defined at:
  1861 ;;		line 165 in file "ShiftLCD.h"
  1862 ;; Parameters:    Size  Location     Type
  1863 ;;  s               2   15[COMRAM] PTR const unsigned char 
  1864 ;;		 -> STR_6(8), STR_5(8), STR_4(8), STR_3(3), 
  1865 ;;		 -> STR_2(2), STR_1(2), number_array(5), 
  1866 ;; Auto vars:     Size  Location     Type
  1867 ;;		None
  1868 ;; Return value:  Size  Location     Type
  1869 ;;                  1    wreg      void 
  1870 ;; Registers used:
  1871 ;;		wreg, fsr0l, fsr0h, status,2, status,0, tblptrl, tblptrh, tblptru, cstack
  1872 ;; Tracked objects:
  1873 ;;		On entry : 0/0
  1874 ;;		On exit  : 0/0
  1875 ;;		Unchanged: 0/0
  1876 ;; Data sizes:     COMRAM   BANK0   BANK1   BANK2   BANK3   BANK4   BANK5   BANK6   BANK7   BANK8   BANK9  BANK10  BANK1
      +1  BANK12  BANK13  BANK14
  1877 ;;      Params:         2       0       0       0       0       0       0       0       0       0       0       0       
      +0       0       0       0
  1878 ;;      Locals:         0       0       0       0       0       0       0       0       0       0       0       0       
      +0       0       0       0
  1879 ;;      Temps:          1       0       0       0       0       0       0       0       0       0       0       0       
      +0       0       0       0
  1880 ;;      Totals:         3       0       0       0       0       0       0       0       0       0       0       0       
      +0       0       0       0
  1881 ;;Total ram usage:        3 bytes
  1882 ;; Hardware stack levels used:    1
  1883 ;; Hardware stack levels required when called:    5
  1884 ;; This function calls:
  1885 ;;		_lcd_yaz
  1886 ;; This function is called by:
  1887 ;;		_lcd_write_number
  1888 ;;		_main
  1889 ;;		_SDCARD_baslat
  1890 ;; This function uses a non-reentrant model
  1891 ;;
  1892                           
  1893                           	psect	text3
  1894  0016B2                     __ptext3:
  1895                           	opt stack 0
  1896  0016B2                     _lcd_write:
  1897                           	opt stack 24
  1898                           
  1899                           ;ShiftLCD.h: 167: _delay((unsigned long)((1)*(16000000UL/4000.0)));
  1900                           
  1901                           ;incstack = 0
  1902  0016B2  0E06               	movlw	6
  1903  0016B4  6E4C               	movwf	??_lcd_write& (0+255),c
  1904  0016B6  0E30               	movlw	48
  1905  0016B8                     u1837:
  1906  0016B8  2EE8               	decfsz	wreg,f,c
  1907  0016BA  D7FE               	goto	u1837
  1908  0016BC  2E4C               	decfsz	??_lcd_write& (0+255),f,c
  1909  0016BE  D7FC               	goto	u1837
  1910  0016C0  D01C               	goto	L1
  1911  0016C2                     l2333:
  1912  0016C2  C04A  FFF6         	movff	lcd_write@s,tblptrl
  1913  0016C6  C04B  FFF7         	movff	lcd_write@s+1,tblptrh
  1914  0016CA  0E00               	movlw	low (__smallconst shr (0+16))
  1915  0016CC  6EF8               	movwf	tblptru,c
  1916  0016CE  0E0E               	movlw	(high __ramtop+-1)
  1917  0016D0  64F7               	cpfsgt	tblptrh,c
  1918  0016D2  D003               	bra	u1327
  1919  0016D4  0008               	tblrd		*
  1920  0016D6  50F5               	movf	tablat,w,c
  1921  0016D8  D005               	bra	u1320
  1922  0016DA                     u1327:
  1923  0016DA  CFF6 FFE9          	movff	tblptrl,fsr0l
  1924  0016DE  CFF7 FFEA          	movff	tblptrh,fsr0h
  1925  0016E2  50EF               	movf	indf0,w,c
  1926  0016E4                     u1320:
  1927  0016E4  EC89  F00D         	call	_lcd_yaz
  1928  0016E8  4A4A               	infsnz	lcd_write@s,f,c
  1929  0016EA  2A4B               	incf	lcd_write@s+1,f,c
  1930  0016EC  0E06               	movlw	6
  1931  0016EE  6E4C               	movwf	??_lcd_write& (0+255),c
  1932  0016F0  0E30               	movlw	48
  1933  0016F2                     u1847:
  1934  0016F2  2EE8               	decfsz	wreg,f,c
  1935  0016F4  D7FE               	goto	u1847
  1936  0016F6  2E4C               	decfsz	??_lcd_write& (0+255),f,c
  1937  0016F8  D7FC               	goto	u1847
  1938  0016FA                     L1:
  1939  0016FA  D000               	nop2	
  1940  0016FC  C04A  FFF6         	movff	lcd_write@s,tblptrl
  1941  001700  C04B  FFF7         	movff	lcd_write@s+1,tblptrh
  1942  001704  0E00               	movlw	low (__smallconst shr (0+16))
  1943  001706  6EF8               	movwf	tblptru,c
  1944  001708  0E0E               	movlw	(high __ramtop+-1)
  1945  00170A  64F7               	cpfsgt	tblptrh,c
  1946  00170C  D003               	bra	u1337
  1947  00170E  0008               	tblrd		*
  1948  001710  50F5               	movf	tablat,w,c
  1949  001712  D005               	bra	u1330
  1950  001714                     u1337:
  1951  001714  CFF6 FFE9          	movff	tblptrl,fsr0l
  1952  001718  CFF7 FFEA          	movff	tblptrh,fsr0h
  1953  00171C  50EF               	movf	indf0,w,c
  1954  00171E                     u1330:
  1955  00171E  0900               	iorlw	0
  1956  001720  A4D8               	btfss	status,2,c
  1957  001722  D7CF               	goto	l2333
  1958                           
  1959                           ;ShiftLCD.h: 169: _delay((unsigned long)((3)*(16000000UL/4000.0)));
  1960  001724  0E10               	movlw	16
  1961  001726  6E4C               	movwf	??_lcd_write& (0+255),c
  1962  001728  0E94               	movlw	148
  1963  00172A                     u1857:
  1964  00172A  2EE8               	decfsz	wreg,f,c
  1965  00172C  D7FE               	goto	u1857
  1966  00172E  2E4C               	decfsz	??_lcd_write& (0+255),f,c
  1967  001730  D7FC               	goto	u1857
  1968  001732  D000               	nop2	
  1969  001734  0012               	return		;funcret
  1970  001736                     __end_of_lcd_write:
  1971                           	opt stack 0
  1972                           tblptru	equ	0xFF8
  1973                           tblptrh	equ	0xFF7
  1974                           tblptrl	equ	0xFF6
  1975                           tablat	equ	0xFF5
  1976                           indf0	equ	0xFEF
  1977                           postinc0	equ	0xFEE
  1978                           fsr0h	equ	0xFEA
  1979                           fsr0l	equ	0xFE9
  1980                           wreg	equ	0xFE8
  1981                           postdec1	equ	0xFE5
  1982                           fsr1h	equ	0xFE2
  1983                           fsr1l	equ	0xFE1
  1984                           indf2	equ	0xFDF
  1985                           fsr2h	equ	0xFDA
  1986                           fsr2l	equ	0xFD9
  1987                           status	equ	0xFD8
  1988                           
  1989 ;; *************** function _lcd_yaz *****************
  1990 ;; Defined at:
  1991 ;;		line 214 in file "ShiftLCD.h"
  1992 ;; Parameters:    Size  Location     Type
  1993 ;;  data            1    wreg     unsigned char 
  1994 ;; Auto vars:     Size  Location     Type
  1995 ;;  data            1   14[COMRAM] unsigned char 
  1996 ;; Return value:  Size  Location     Type
  1997 ;;                  1    wreg      void 
  1998 ;; Registers used:
  1999 ;;		wreg, status,2, status,0, cstack
  2000 ;; Tracked objects:
  2001 ;;		On entry : 0/0
  2002 ;;		On exit  : 0/0
  2003 ;;		Unchanged: 0/0
  2004 ;; Data sizes:     COMRAM   BANK0   BANK1   BANK2   BANK3   BANK4   BANK5   BANK6   BANK7   BANK8   BANK9  BANK10  BANK1
      +1  BANK12  BANK13  BANK14
  2005 ;;      Params:         0       0       0       0       0       0       0       0       0       0       0       0       
      +0       0       0       0
  2006 ;;      Locals:         1       0       0       0       0       0       0       0       0       0       0       0       
      +0       0       0       0
  2007 ;;      Temps:          0       0       0       0       0       0       0       0       0       0       0       0       
      +0       0       0       0
  2008 ;;      Totals:         1       0       0       0       0       0       0       0       0       0       0       0       
      +0       0       0       0
  2009 ;;Total ram usage:        1 bytes
  2010 ;; Hardware stack levels used:    1
  2011 ;; Hardware stack levels required when called:    4
  2012 ;; This function calls:
  2013 ;;		_lcd_goto
  2014 ;;		_lcd_info
  2015 ;; This function is called by:
  2016 ;;		_lcd_write
  2017 ;;		_display_message
  2018 ;; This function uses a non-reentrant model
  2019 ;;
  2020                           
  2021                           	psect	text4
  2022  001B12                     __ptext4:
  2023                           	opt stack 0
  2024  001B12                     _lcd_yaz:
  2025                           	opt stack 24
  2026                           
  2027                           ;incstack = 0
  2028                           ;lcd_yaz@data stored from wreg
  2029  001B12  6E49               	movwf	lcd_yaz@data,c
  2030                           
  2031                           ;ShiftLCD.h: 216: lcd_info(data, 1);
  2032  001B14  0E01               	movlw	1
  2033  001B16  6E43               	movwf	lcd_info@data_type,c
  2034  001B18  5049               	movf	lcd_yaz@data,w,c
  2035  001B1A  ECC6  F009         	call	_lcd_info
  2036                           
  2037                           ;ShiftLCD.h: 217: _x++;
  2038  001B1E  2A5D               	incf	__x,f,c
  2039                           
  2040                           ;ShiftLCD.h: 218: if(_x == 17)
  2041  001B20  0E11               	movlw	17
  2042  001B22  185D               	xorwf	__x,w,c
  2043  001B24  A4D8               	btfss	status,2,c
  2044  001B26  0012               	return	
  2045                           
  2046                           ;ShiftLCD.h: 219: {
  2047                           ;ShiftLCD.h: 220: _x = 1;
  2048  001B28  0E01               	movlw	1
  2049  001B2A  6E5D               	movwf	__x,c
  2050                           
  2051                           ;ShiftLCD.h: 221: _y++;
  2052  001B2C  2A5E               	incf	__y,f,c
  2053                           
  2054                           ;ShiftLCD.h: 222: if(_y == 3)
  2055  001B2E  0E03               	movlw	3
  2056  001B30  185E               	xorwf	__y,w,c
  2057  001B32  A4D8               	btfss	status,2,c
  2058  001B34  D002               	goto	l2291
  2059                           
  2060                           ;ShiftLCD.h: 223: {
  2061                           ;ShiftLCD.h: 224: _y = 1;
  2062  001B36  0E01               	movlw	1
  2063  001B38  6E5E               	movwf	__y,c
  2064  001B3A                     l2291:
  2065                           
  2066                           ;ShiftLCD.h: 225: }
  2067                           ;ShiftLCD.h: 227: lcd_goto(_y, _x);
  2068  001B3A  C05D  F046         	movff	__x,lcd_goto@p_2
  2069  001B3E  505E               	movf	__y,w,c
  2070  001B40  EC69  F00D         	call	_lcd_goto
  2071  001B44  0012               	return	
  2072  001B46                     __end_of_lcd_yaz:
  2073                           	opt stack 0
  2074                           tblptru	equ	0xFF8
  2075                           tblptrh	equ	0xFF7
  2076                           tblptrl	equ	0xFF6
  2077                           tablat	equ	0xFF5
  2078                           indf0	equ	0xFEF
  2079                           postinc0	equ	0xFEE
  2080                           fsr0h	equ	0xFEA
  2081                           fsr0l	equ	0xFE9
  2082                           wreg	equ	0xFE8
  2083                           postdec1	equ	0xFE5
  2084                           fsr1h	equ	0xFE2
  2085                           fsr1l	equ	0xFE1
  2086                           indf2	equ	0xFDF
  2087                           fsr2h	equ	0xFDA
  2088                           fsr2l	equ	0xFD9
  2089                           status	equ	0xFD8
  2090                           
  2091 ;; *************** function _itoa *****************
  2092 ;; Defined at:
  2093 ;;		line 4 in file "C:\Program Files (x86)\Microchip\xc8\v1.37\sources\common\itoa.c"
  2094 ;; Parameters:    Size  Location     Type
  2095 ;;  buf             2   16[COMRAM] PTR unsigned char 
  2096 ;;		 -> number_array(5), 
  2097 ;;  val             2   18[COMRAM] int 
  2098 ;;  base            2   20[COMRAM] int 
  2099 ;; Auto vars:     Size  Location     Type
  2100 ;;  cp              2   22[COMRAM] PTR unsigned char 
  2101 ;;		 -> number_array(5), 
  2102 ;; Return value:  Size  Location     Type
  2103 ;;                  2   16[COMRAM] PTR unsigned char 
  2104 ;; Registers used:
  2105 ;;		wreg, fsr2l, fsr2h, status,2, status,0, cstack
  2106 ;; Tracked objects:
  2107 ;;		On entry : 0/0
  2108 ;;		On exit  : 0/0
  2109 ;;		Unchanged: 0/0
  2110 ;; Data sizes:     COMRAM   BANK0   BANK1   BANK2   BANK3   BANK4   BANK5   BANK6   BANK7   BANK8   BANK9  BANK10  BANK1
      +1  BANK12  BANK13  BANK14
  2111 ;;      Params:         6       0       0       0       0       0       0       0       0       0       0       0       
      +0       0       0       0
  2112 ;;      Locals:         2       0       0       0       0       0       0       0       0       0       0       0       
      +0       0       0       0
  2113 ;;      Temps:          0       0       0       0       0       0       0       0       0       0       0       0       
      +0       0       0       0
  2114 ;;      Totals:         8       0       0       0       0       0       0       0       0       0       0       0       
      +0       0       0       0
  2115 ;;Total ram usage:        8 bytes
  2116 ;; Hardware stack levels used:    1
  2117 ;; Hardware stack levels required when called:    2
  2118 ;; This function calls:
  2119 ;;		_utoa
  2120 ;; This function is called by:
  2121 ;;		_lcd_write_number
  2122 ;; This function uses a non-reentrant model
  2123 ;;
  2124                           
  2125                           	psect	text5
  2126  001A4E                     __ptext5:
  2127                           	opt stack 0
  2128  001A4E                     _itoa:
  2129                           	opt stack 27
  2130                           
  2131                           ;incstack = 0
  2132  001A4E  C04B  F051         	movff	itoa@buf,itoa@cp
  2133  001A52  C04C  F052         	movff	itoa@buf+1,itoa@cp+1
  2134  001A56  AE4E               	btfss	itoa@val+1,7,c
  2135  001A58  D00C               	goto	l2351
  2136  001A5A  C04B  FFD9         	movff	itoa@buf,fsr2l
  2137  001A5E  C04C  FFDA         	movff	itoa@buf+1,fsr2h
  2138  001A62  0E2D               	movlw	45
  2139  001A64  6EDF               	movwf	indf2,c
  2140  001A66  4A4B               	infsnz	itoa@buf,f,c
  2141  001A68  2A4C               	incf	itoa@buf+1,f,c
  2142  001A6A  6C4D               	negf	itoa@val,c
  2143  001A6C  1E4E               	comf	itoa@val+1,f,c
  2144  001A6E  B0D8               	btfsc	status,0,c
  2145  001A70  2A4E               	incf	itoa@val+1,f,c
  2146  001A72                     l2351:
  2147  001A72  C04B  F042         	movff	itoa@buf,utoa@buf
  2148  001A76  C04C  F043         	movff	itoa@buf+1,utoa@buf+1
  2149  001A7A  C04D  F044         	movff	itoa@val,utoa@val
  2150  001A7E  C04E  F045         	movff	itoa@val+1,utoa@val+1
  2151  001A82  C04F  F046         	movff	itoa@base,utoa@base
  2152  001A86  C050  F047         	movff	itoa@base+1,utoa@base+1
  2153  001A8A  EC07  F00B         	call	_utoa	;wreg free
  2154  001A8E  0012               	return	
  2155  001A90                     __end_of_itoa:
  2156                           	opt stack 0
  2157                           tblptru	equ	0xFF8
  2158                           tblptrh	equ	0xFF7
  2159                           tblptrl	equ	0xFF6
  2160                           tablat	equ	0xFF5
  2161                           indf0	equ	0xFEF
  2162                           postinc0	equ	0xFEE
  2163                           fsr0h	equ	0xFEA
  2164                           fsr0l	equ	0xFE9
  2165                           wreg	equ	0xFE8
  2166                           postdec1	equ	0xFE5
  2167                           fsr1h	equ	0xFE2
  2168                           fsr1l	equ	0xFE1
  2169                           indf2	equ	0xFDF
  2170                           fsr2h	equ	0xFDA
  2171                           fsr2l	equ	0xFD9
  2172                           status	equ	0xFD8
  2173                           
  2174 ;; *************** function _utoa *****************
  2175 ;; Defined at:
  2176 ;;		line 17 in file "C:\Program Files (x86)\Microchip\xc8\v1.37\sources\common\itoa.c"
  2177 ;; Parameters:    Size  Location     Type
  2178 ;;  buf             2    7[COMRAM] PTR unsigned char 
  2179 ;;		 -> number_array(5), 
  2180 ;;  val             2    9[COMRAM] unsigned int 
  2181 ;;  base            2   11[COMRAM] int 
  2182 ;; Auto vars:     Size  Location     Type
  2183 ;;  v               2   13[COMRAM] unsigned int 
  2184 ;;  c               1   15[COMRAM] unsigned char 
  2185 ;; Return value:  Size  Location     Type
  2186 ;;                  2    7[COMRAM] PTR unsigned char 
  2187 ;; Registers used:
  2188 ;;		wreg, fsr2l, fsr2h, status,2, status,0, cstack
  2189 ;; Tracked objects:
  2190 ;;		On entry : 0/0
  2191 ;;		On exit  : 0/0
  2192 ;;		Unchanged: 0/0
  2193 ;; Data sizes:     COMRAM   BANK0   BANK1   BANK2   BANK3   BANK4   BANK5   BANK6   BANK7   BANK8   BANK9  BANK10  BANK1
      +1  BANK12  BANK13  BANK14
  2194 ;;      Params:         6       0       0       0       0       0       0       0       0       0       0       0       
      +0       0       0       0
  2195 ;;      Locals:         3       0       0       0       0       0       0       0       0       0       0       0       
      +0       0       0       0
  2196 ;;      Temps:          0       0       0       0       0       0       0       0       0       0       0       0       
      +0       0       0       0
  2197 ;;      Totals:         9       0       0       0       0       0       0       0       0       0       0       0       
      +0       0       0       0
  2198 ;;Total ram usage:        9 bytes
  2199 ;; Hardware stack levels used:    1
  2200 ;; Hardware stack levels required when called:    1
  2201 ;; This function calls:
  2202 ;;		___lwdiv
  2203 ;;		___lwmod
  2204 ;; This function is called by:
  2205 ;;		_itoa
  2206 ;; This function uses a non-reentrant model
  2207 ;;
  2208                           
  2209                           	psect	text6
  2210  00160E                     __ptext6:
  2211                           	opt stack 0
  2212  00160E                     _utoa:
  2213                           	opt stack 27
  2214                           
  2215                           ;incstack = 0
  2216  00160E  C044  F048         	movff	utoa@val,utoa@v
  2217  001612  C045  F049         	movff	utoa@val+1,utoa@v+1
  2218  001616                     l2295:
  2219  001616  C048  F03B         	movff	utoa@v,___lwdiv@dividend
  2220  00161A  C049  F03C         	movff	utoa@v+1,___lwdiv@dividend+1
  2221  00161E  C046  F03D         	movff	utoa@base,___lwdiv@divisor
  2222  001622  C047  F03E         	movff	utoa@base+1,___lwdiv@divisor+1
  2223  001626  EC22  F00C         	call	___lwdiv	;wreg free
  2224  00162A  C03B  F048         	movff	?___lwdiv,utoa@v
  2225  00162E  C03C  F049         	movff	?___lwdiv+1,utoa@v+1
  2226  001632  4A42               	infsnz	utoa@buf,f,c
  2227  001634  2A43               	incf	utoa@buf+1,f,c
  2228  001636  5048               	movf	utoa@v,w,c
  2229  001638  1049               	iorwf	utoa@v+1,w,c
  2230  00163A  A4D8               	btfss	status,2,c
  2231  00163C  D7EC               	goto	l2295
  2232  00163E  C042  FFD9         	movff	utoa@buf,fsr2l
  2233  001642  C043  FFDA         	movff	utoa@buf+1,fsr2h
  2234  001646  0E00               	movlw	0
  2235  001648  6EDF               	movwf	indf2,c
  2236  00164A  0642               	decf	utoa@buf,f,c
  2237  00164C  A0D8               	btfss	status,0,c
  2238  00164E  0643               	decf	utoa@buf+1,f,c
  2239  001650                     l2305:
  2240  001650  C044  F03B         	movff	utoa@val,___lwmod@dividend
  2241  001654  C045  F03C         	movff	utoa@val+1,___lwmod@dividend+1
  2242  001658  C046  F03D         	movff	utoa@base,___lwmod@divisor
  2243  00165C  C047  F03E         	movff	utoa@base+1,___lwmod@divisor+1
  2244  001660  EC48  F00D         	call	___lwmod	;wreg free
  2245  001664  503B               	movf	?___lwmod,w,c
  2246  001666  6E4A               	movwf	utoa@c,c
  2247  001668  C044  F03B         	movff	utoa@val,___lwdiv@dividend
  2248  00166C  C045  F03C         	movff	utoa@val+1,___lwdiv@dividend+1
  2249  001670  C046  F03D         	movff	utoa@base,___lwdiv@divisor
  2250  001674  C047  F03E         	movff	utoa@base+1,___lwdiv@divisor+1
  2251  001678  EC22  F00C         	call	___lwdiv	;wreg free
  2252  00167C  C03B  F044         	movff	?___lwdiv,utoa@val
  2253  001680  C03C  F045         	movff	?___lwdiv+1,utoa@val+1
  2254  001684  0E09               	movlw	9
  2255  001686  644A               	cpfsgt	utoa@c,c
  2256  001688  D002               	goto	l971
  2257  00168A  0E07               	movlw	7
  2258  00168C  264A               	addwf	utoa@c,f,c
  2259  00168E                     l971:
  2260  00168E  0E30               	movlw	48
  2261  001690  264A               	addwf	utoa@c,f,c
  2262  001692  C042  FFD9         	movff	utoa@buf,fsr2l
  2263  001696  C043  FFDA         	movff	utoa@buf+1,fsr2h
  2264  00169A  C04A  FFDF         	movff	utoa@c,indf2
  2265  00169E  0642               	decf	utoa@buf,f,c
  2266  0016A0  A0D8               	btfss	status,0,c
  2267  0016A2  0643               	decf	utoa@buf+1,f,c
  2268  0016A4  5044               	movf	utoa@val,w,c
  2269  0016A6  1045               	iorwf	utoa@val+1,w,c
  2270  0016A8  A4D8               	btfss	status,2,c
  2271  0016AA  D7D2               	goto	l2305
  2272                           
  2273                           ;	Return value of _utoa is never used
  2274  0016AC  4A42               	infsnz	utoa@buf,f,c
  2275  0016AE  2A43               	incf	utoa@buf+1,f,c
  2276  0016B0  0012               	return	
  2277  0016B2                     __end_of_utoa:
  2278                           	opt stack 0
  2279                           tblptru	equ	0xFF8
  2280                           tblptrh	equ	0xFF7
  2281                           tblptrl	equ	0xFF6
  2282                           tablat	equ	0xFF5
  2283                           indf0	equ	0xFEF
  2284                           postinc0	equ	0xFEE
  2285                           fsr0h	equ	0xFEA
  2286                           fsr0l	equ	0xFE9
  2287                           wreg	equ	0xFE8
  2288                           postdec1	equ	0xFE5
  2289                           fsr1h	equ	0xFE2
  2290                           fsr1l	equ	0xFE1
  2291                           indf2	equ	0xFDF
  2292                           fsr2h	equ	0xFDA
  2293                           fsr2l	equ	0xFD9
  2294                           status	equ	0xFD8
  2295                           
  2296 ;; *************** function ___lwmod *****************
  2297 ;; Defined at:
  2298 ;;		line 8 in file "C:\Program Files (x86)\Microchip\xc8\v1.37\sources\common\lwmod.c"
  2299 ;; Parameters:    Size  Location     Type
  2300 ;;  dividend        2    0[COMRAM] unsigned int 
  2301 ;;  divisor         2    2[COMRAM] unsigned int 
  2302 ;; Auto vars:     Size  Location     Type
  2303 ;;  counter         1    4[COMRAM] unsigned char 
  2304 ;; Return value:  Size  Location     Type
  2305 ;;                  2    0[COMRAM] unsigned int 
  2306 ;; Registers used:
  2307 ;;		wreg, status,2, status,0
  2308 ;; Tracked objects:
  2309 ;;		On entry : 0/0
  2310 ;;		On exit  : 0/0
  2311 ;;		Unchanged: 0/0
  2312 ;; Data sizes:     COMRAM   BANK0   BANK1   BANK2   BANK3   BANK4   BANK5   BANK6   BANK7   BANK8   BANK9  BANK10  BANK1
      +1  BANK12  BANK13  BANK14
  2313 ;;      Params:         4       0       0       0       0       0       0       0       0       0       0       0       
      +0       0       0       0
  2314 ;;      Locals:         1       0       0       0       0       0       0       0       0       0       0       0       
      +0       0       0       0
  2315 ;;      Temps:          0       0       0       0       0       0       0       0       0       0       0       0       
      +0       0       0       0
  2316 ;;      Totals:         5       0       0       0       0       0       0       0       0       0       0       0       
      +0       0       0       0
  2317 ;;Total ram usage:        5 bytes
  2318 ;; Hardware stack levels used:    1
  2319 ;; This function calls:
  2320 ;;		Nothing
  2321 ;; This function is called by:
  2322 ;;		_utoa
  2323 ;; This function uses a non-reentrant model
  2324 ;;
  2325                           
  2326                           	psect	text7
  2327  001A90                     __ptext7:
  2328                           	opt stack 0
  2329  001A90                     ___lwmod:
  2330                           	opt stack 27
  2331                           
  2332                           ;incstack = 0
  2333  001A90  503D               	movf	___lwmod@divisor,w,c
  2334  001A92  103E               	iorwf	___lwmod@divisor+1,w,c
  2335  001A94  B4D8               	btfsc	status,2,c
  2336  001A96  D018               	goto	l1060
  2337  001A98  0E01               	movlw	1
  2338  001A9A  6E3F               	movwf	___lwmod@counter,c
  2339  001A9C  D004               	goto	l2267
  2340  001A9E                     l2265:
  2341  001A9E  90D8               	bcf	status,0,c
  2342  001AA0  363D               	rlcf	___lwmod@divisor,f,c
  2343  001AA2  363E               	rlcf	___lwmod@divisor+1,f,c
  2344  001AA4  2A3F               	incf	___lwmod@counter,f,c
  2345  001AA6                     l2267:
  2346  001AA6  AE3E               	btfss	___lwmod@divisor+1,7,c
  2347  001AA8  D7FA               	goto	l2265
  2348  001AAA                     l2269:
  2349  001AAA  503D               	movf	___lwmod@divisor,w,c
  2350  001AAC  5C3B               	subwf	___lwmod@dividend,w,c
  2351  001AAE  503E               	movf	___lwmod@divisor+1,w,c
  2352  001AB0  583C               	subwfb	___lwmod@dividend+1,w,c
  2353  001AB2  A0D8               	btfss	status,0,c
  2354  001AB4  D004               	goto	l2273
  2355  001AB6  503D               	movf	___lwmod@divisor,w,c
  2356  001AB8  5E3B               	subwf	___lwmod@dividend,f,c
  2357  001ABA  503E               	movf	___lwmod@divisor+1,w,c
  2358  001ABC  5A3C               	subwfb	___lwmod@dividend+1,f,c
  2359  001ABE                     l2273:
  2360  001ABE  90D8               	bcf	status,0,c
  2361  001AC0  323E               	rrcf	___lwmod@divisor+1,f,c
  2362  001AC2  323D               	rrcf	___lwmod@divisor,f,c
  2363  001AC4  2E3F               	decfsz	___lwmod@counter,f,c
  2364  001AC6  D7F1               	goto	l2269
  2365  001AC8                     l1060:
  2366  001AC8  C03B  F03B         	movff	___lwmod@dividend,?___lwmod
  2367  001ACC  C03C  F03C         	movff	___lwmod@dividend+1,?___lwmod+1
  2368  001AD0  0012               	return		;funcret
  2369  001AD2                     __end_of___lwmod:
  2370                           	opt stack 0
  2371                           tblptru	equ	0xFF8
  2372                           tblptrh	equ	0xFF7
  2373                           tblptrl	equ	0xFF6
  2374                           tablat	equ	0xFF5
  2375                           indf0	equ	0xFEF
  2376                           postinc0	equ	0xFEE
  2377                           fsr0h	equ	0xFEA
  2378                           fsr0l	equ	0xFE9
  2379                           wreg	equ	0xFE8
  2380                           postdec1	equ	0xFE5
  2381                           fsr1h	equ	0xFE2
  2382                           fsr1l	equ	0xFE1
  2383                           indf2	equ	0xFDF
  2384                           fsr2h	equ	0xFDA
  2385                           fsr2l	equ	0xFD9
  2386                           status	equ	0xFD8
  2387                           
  2388 ;; *************** function ___lwdiv *****************
  2389 ;; Defined at:
  2390 ;;		line 8 in file "C:\Program Files (x86)\Microchip\xc8\v1.37\sources\common\lwdiv.c"
  2391 ;; Parameters:    Size  Location     Type
  2392 ;;  dividend        2    0[COMRAM] unsigned int 
  2393 ;;  divisor         2    2[COMRAM] unsigned int 
  2394 ;; Auto vars:     Size  Location     Type
  2395 ;;  quotient        2    4[COMRAM] unsigned int 
  2396 ;;  counter         1    6[COMRAM] unsigned char 
  2397 ;; Return value:  Size  Location     Type
  2398 ;;                  2    0[COMRAM] unsigned int 
  2399 ;; Registers used:
  2400 ;;		wreg, status,2, status,0
  2401 ;; Tracked objects:
  2402 ;;		On entry : 0/0
  2403 ;;		On exit  : 0/0
  2404 ;;		Unchanged: 0/0
  2405 ;; Data sizes:     COMRAM   BANK0   BANK1   BANK2   BANK3   BANK4   BANK5   BANK6   BANK7   BANK8   BANK9  BANK10  BANK1
      +1  BANK12  BANK13  BANK14
  2406 ;;      Params:         4       0       0       0       0       0       0       0       0       0       0       0       
      +0       0       0       0
  2407 ;;      Locals:         3       0       0       0       0       0       0       0       0       0       0       0       
      +0       0       0       0
  2408 ;;      Temps:          0       0       0       0       0       0       0       0       0       0       0       0       
      +0       0       0       0
  2409 ;;      Totals:         7       0       0       0       0       0       0       0       0       0       0       0       
      +0       0       0       0
  2410 ;;Total ram usage:        7 bytes
  2411 ;; Hardware stack levels used:    1
  2412 ;; This function calls:
  2413 ;;		Nothing
  2414 ;; This function is called by:
  2415 ;;		_utoa
  2416 ;; This function uses a non-reentrant model
  2417 ;;
  2418                           
  2419                           	psect	text8
  2420  001844                     __ptext8:
  2421                           	opt stack 0
  2422  001844                     ___lwdiv:
  2423                           	opt stack 27
  2424                           
  2425                           ;incstack = 0
  2426  001844  0E00               	movlw	0
  2427  001846  6E40               	movwf	___lwdiv@quotient+1,c
  2428  001848  0E00               	movlw	0
  2429  00184A  6E3F               	movwf	___lwdiv@quotient,c
  2430  00184C  503D               	movf	___lwdiv@divisor,w,c
  2431  00184E  103E               	iorwf	___lwdiv@divisor+1,w,c
  2432  001850  B4D8               	btfsc	status,2,c
  2433  001852  D01C               	goto	l1050
  2434  001854  0E01               	movlw	1
  2435  001856  6E41               	movwf	___lwdiv@counter,c
  2436  001858  D004               	goto	l2247
  2437  00185A                     l2245:
  2438  00185A  90D8               	bcf	status,0,c
  2439  00185C  363D               	rlcf	___lwdiv@divisor,f,c
  2440  00185E  363E               	rlcf	___lwdiv@divisor+1,f,c
  2441  001860  2A41               	incf	___lwdiv@counter,f,c
  2442  001862                     l2247:
  2443  001862  AE3E               	btfss	___lwdiv@divisor+1,7,c
  2444  001864  D7FA               	goto	l2245
  2445  001866                     l2249:
  2446  001866  90D8               	bcf	status,0,c
  2447  001868  363F               	rlcf	___lwdiv@quotient,f,c
  2448  00186A  3640               	rlcf	___lwdiv@quotient+1,f,c
  2449  00186C  503D               	movf	___lwdiv@divisor,w,c
  2450  00186E  5C3B               	subwf	___lwdiv@dividend,w,c
  2451  001870  503E               	movf	___lwdiv@divisor+1,w,c
  2452  001872  583C               	subwfb	___lwdiv@dividend+1,w,c
  2453  001874  A0D8               	btfss	status,0,c
  2454  001876  D005               	goto	l2257
  2455  001878  503D               	movf	___lwdiv@divisor,w,c
  2456  00187A  5E3B               	subwf	___lwdiv@dividend,f,c
  2457  00187C  503E               	movf	___lwdiv@divisor+1,w,c
  2458  00187E  5A3C               	subwfb	___lwdiv@dividend+1,f,c
  2459  001880  803F               	bsf	___lwdiv@quotient,0,c
  2460  001882                     l2257:
  2461  001882  90D8               	bcf	status,0,c
  2462  001884  323E               	rrcf	___lwdiv@divisor+1,f,c
  2463  001886  323D               	rrcf	___lwdiv@divisor,f,c
  2464  001888  2E41               	decfsz	___lwdiv@counter,f,c
  2465  00188A  D7ED               	goto	l2249
  2466  00188C                     l1050:
  2467  00188C  C03F  F03B         	movff	___lwdiv@quotient,?___lwdiv
  2468  001890  C040  F03C         	movff	___lwdiv@quotient+1,?___lwdiv+1
  2469  001894  0012               	return		;funcret
  2470  001896                     __end_of___lwdiv:
  2471                           	opt stack 0
  2472                           tblptru	equ	0xFF8
  2473                           tblptrh	equ	0xFF7
  2474                           tblptrl	equ	0xFF6
  2475                           tablat	equ	0xFF5
  2476                           indf0	equ	0xFEF
  2477                           postinc0	equ	0xFEE
  2478                           fsr0h	equ	0xFEA
  2479                           fsr0l	equ	0xFE9
  2480                           wreg	equ	0xFE8
  2481                           postdec1	equ	0xFE5
  2482                           fsr1h	equ	0xFE2
  2483                           fsr1l	equ	0xFE1
  2484                           indf2	equ	0xFDF
  2485                           fsr2h	equ	0xFDA
  2486                           fsr2l	equ	0xFD9
  2487                           status	equ	0xFD8
  2488                           
  2489 ;; *************** function _UART2_init *****************
  2490 ;; Defined at:
  2491 ;;		line 79 in file "EUART.h"
  2492 ;; Parameters:    Size  Location     Type
  2493 ;;		None
  2494 ;; Auto vars:     Size  Location     Type
  2495 ;;		None
  2496 ;; Return value:  Size  Location     Type
  2497 ;;                  1    wreg      void 
  2498 ;; Registers used:
  2499 ;;		wreg, status,2
  2500 ;; Tracked objects:
  2501 ;;		On entry : 0/0
  2502 ;;		On exit  : 0/0
  2503 ;;		Unchanged: 0/0
  2504 ;; Data sizes:     COMRAM   BANK0   BANK1   BANK2   BANK3   BANK4   BANK5   BANK6   BANK7   BANK8   BANK9  BANK10  BANK1
      +1  BANK12  BANK13  BANK14
  2505 ;;      Params:         0       0       0       0       0       0       0       0       0       0       0       0       
      +0       0       0       0
  2506 ;;      Locals:         0       0       0       0       0       0       0       0       0       0       0       0       
      +0       0       0       0
  2507 ;;      Temps:          0       0       0       0       0       0       0       0       0       0       0       0       
      +0       0       0       0
  2508 ;;      Totals:         0       0       0       0       0       0       0       0       0       0       0       0       
      +0       0       0       0
  2509 ;;Total ram usage:        0 bytes
  2510 ;; Hardware stack levels used:    1
  2511 ;; This function calls:
  2512 ;;		Nothing
  2513 ;; This function is called by:
  2514 ;;		_main
  2515 ;; This function uses a non-reentrant model
  2516 ;;
  2517                           
  2518                           	psect	text9
  2519  001CB8                     __ptext9:
  2520                           	opt stack 0
  2521  001CB8                     _UART2_init:
  2522                           	opt stack 30
  2523                           
  2524                           ;EUART.h: 82: TRISE6 = 1 ;
  2525                           
  2526                           ;incstack = 0
  2527  001CB8  8C96               	bsf	3990,6,c	;volatile
  2528                           
  2529                           ;EUART.h: 85: TRISE7 = 0 ;
  2530  001CBA  9E96               	bcf	3990,7,c	;volatile
  2531                           
  2532                           ;EUART.h: 88: TXSTA2bits.SYNC = 0 ;
  2533  001CBC  98BA               	bcf	4026,4,c	;volatile
  2534                           
  2535                           ;EUART.h: 90: TXSTA2bits.BRGH = 0;
  2536  001CBE  94BA               	bcf	4026,2,c	;volatile
  2537                           
  2538                           ;EUART.h: 91: TXSTA2bits.TXEN = 1 ;
  2539  001CC0  8ABA               	bsf	4026,5,c	;volatile
  2540                           
  2541                           ;EUART.h: 92: BAUDCON2bits.BRG16 =0;
  2542  001CC2  96B9               	bcf	4025,3,c	;volatile
  2543                           
  2544                           ;EUART.h: 93: SPBRG2 = 25 ;
  2545  001CC4  0E19               	movlw	25
  2546  001CC6  6E7B               	movwf	3963,c	;volatile
  2547                           
  2548                           ;EUART.h: 95: RCSTA2bits.CREN = 1 ;
  2549  001CC8  88A6               	bsf	4006,4,c	;volatile
  2550                           
  2551                           ;EUART.h: 97: RCSTA2bits.SPEN = 1 ;
  2552  001CCA  8EA6               	bsf	4006,7,c	;volatile
  2553                           
  2554                           ;EUART.h: 98: PIR3bits.TX2IF = 0;
  2555  001CCC  98A4               	bcf	4004,4,c	;volatile
  2556                           
  2557                           ;EUART.h: 103: RCREG2;
  2558  001CCE  507A               	movf	3962,w,c	;volatile
  2559  001CD0  0012               	return		;funcret
  2560  001CD2                     __end_of_UART2_init:
  2561                           	opt stack 0
  2562                           tblptru	equ	0xFF8
  2563                           tblptrh	equ	0xFF7
  2564                           tblptrl	equ	0xFF6
  2565                           tablat	equ	0xFF5
  2566                           indf0	equ	0xFEF
  2567                           postinc0	equ	0xFEE
  2568                           fsr0h	equ	0xFEA
  2569                           fsr0l	equ	0xFE9
  2570                           wreg	equ	0xFE8
  2571                           postdec1	equ	0xFE5
  2572                           fsr1h	equ	0xFE2
  2573                           fsr1l	equ	0xFE1
  2574                           indf2	equ	0xFDF
  2575                           fsr2h	equ	0xFDA
  2576                           fsr2l	equ	0xFD9
  2577                           status	equ	0xFD8
  2578                           
  2579 ;; *************** function _UART1_init *****************
  2580 ;; Defined at:
  2581 ;;		line 31 in file "EUART.h"
  2582 ;; Parameters:    Size  Location     Type
  2583 ;;		None
  2584 ;; Auto vars:     Size  Location     Type
  2585 ;;		None
  2586 ;; Return value:  Size  Location     Type
  2587 ;;                  1    wreg      void 
  2588 ;; Registers used:
  2589 ;;		wreg, status,2
  2590 ;; Tracked objects:
  2591 ;;		On entry : 0/0
  2592 ;;		On exit  : 0/0
  2593 ;;		Unchanged: 0/0
  2594 ;; Data sizes:     COMRAM   BANK0   BANK1   BANK2   BANK3   BANK4   BANK5   BANK6   BANK7   BANK8   BANK9  BANK10  BANK1
      +1  BANK12  BANK13  BANK14
  2595 ;;      Params:         0       0       0       0       0       0       0       0       0       0       0       0       
      +0       0       0       0
  2596 ;;      Locals:         0       0       0       0       0       0       0       0       0       0       0       0       
      +0       0       0       0
  2597 ;;      Temps:          0       0       0       0       0       0       0       0       0       0       0       0       
      +0       0       0       0
  2598 ;;      Totals:         0       0       0       0       0       0       0       0       0       0       0       0       
      +0       0       0       0
  2599 ;;Total ram usage:        0 bytes
  2600 ;; Hardware stack levels used:    1
  2601 ;; This function calls:
  2602 ;;		Nothing
  2603 ;; This function is called by:
  2604 ;;		_main
  2605 ;; This function uses a non-reentrant model
  2606 ;;
  2607                           
  2608                           	psect	text10
  2609  001CD2                     __ptext10:
  2610                           	opt stack 0
  2611  001CD2                     _UART1_init:
  2612                           	opt stack 30
  2613                           
  2614                           ;EUART.h: 34: TRISG0 = 1 ;
  2615                           
  2616                           ;incstack = 0
  2617  001CD2  8098               	bsf	3992,0,c	;volatile
  2618                           
  2619                           ;EUART.h: 37: TRISG3 = 0 ;
  2620  001CD4  9698               	bcf	3992,3,c	;volatile
  2621                           
  2622                           ;EUART.h: 40: TXSTA1bits.SYNC = 0 ;
  2623  001CD6  98AC               	bcf	4012,4,c	;volatile
  2624                           
  2625                           ;EUART.h: 42: TXSTA1bits.BRGH = 0;
  2626  001CD8  94AC               	bcf	4012,2,c	;volatile
  2627                           
  2628                           ;EUART.h: 43: TXSTA1bits.TXEN = 1 ;
  2629  001CDA  8AAC               	bsf	4012,5,c	;volatile
  2630                           
  2631                           ;EUART.h: 44: BAUDCON1bits.BRG16 =0;
  2632  001CDC  96A7               	bcf	4007,3,c	;volatile
  2633                           
  2634                           ;EUART.h: 45: SPBRG1 = 25 ;
  2635  001CDE  0E19               	movlw	25
  2636  001CE0  6EAF               	movwf	4015,c	;volatile
  2637                           
  2638                           ;EUART.h: 47: RCSTA1bits.CREN = 1 ;
  2639  001CE2  88AB               	bsf	4011,4,c	;volatile
  2640                           
  2641                           ;EUART.h: 49: RCSTA1bits.SPEN = 1 ;
  2642  001CE4  8EAB               	bsf	4011,7,c	;volatile
  2643                           
  2644                           ;EUART.h: 50: PIR1bits.TX1IF = 0;
  2645  001CE6  989E               	bcf	3998,4,c	;volatile
  2646                           
  2647                           ;EUART.h: 55: RCREG1;
  2648  001CE8  50AE               	movf	4014,w,c	;volatile
  2649  001CEA  0012               	return		;funcret
  2650  001CEC                     __end_of_UART1_init:
  2651                           	opt stack 0
  2652                           tblptru	equ	0xFF8
  2653                           tblptrh	equ	0xFF7
  2654                           tblptrl	equ	0xFF6
  2655                           tablat	equ	0xFF5
  2656                           indf0	equ	0xFEF
  2657                           postinc0	equ	0xFEE
  2658                           fsr0h	equ	0xFEA
  2659                           fsr0l	equ	0xFE9
  2660                           wreg	equ	0xFE8
  2661                           postdec1	equ	0xFE5
  2662                           fsr1h	equ	0xFE2
  2663                           fsr1l	equ	0xFE1
  2664                           indf2	equ	0xFDF
  2665                           fsr2h	equ	0xFDA
  2666                           fsr2l	equ	0xFD9
  2667                           status	equ	0xFD8
  2668                           
  2669 ;; *************** function _UART1_byte_send *****************
  2670 ;; Defined at:
  2671 ;;		line 14 in file "EUART.h"
  2672 ;; Parameters:    Size  Location     Type
  2673 ;;  data            1    wreg     unsigned char 
  2674 ;; Auto vars:     Size  Location     Type
  2675 ;;  data            1    0[COMRAM] unsigned char 
  2676 ;; Return value:  Size  Location     Type
  2677 ;;                  1    wreg      void 
  2678 ;; Registers used:
  2679 ;;		wreg
  2680 ;; Tracked objects:
  2681 ;;		On entry : 0/0
  2682 ;;		On exit  : 0/0
  2683 ;;		Unchanged: 0/0
  2684 ;; Data sizes:     COMRAM   BANK0   BANK1   BANK2   BANK3   BANK4   BANK5   BANK6   BANK7   BANK8   BANK9  BANK10  BANK1
      +1  BANK12  BANK13  BANK14
  2685 ;;      Params:         0       0       0       0       0       0       0       0       0       0       0       0       
      +0       0       0       0
  2686 ;;      Locals:         1       0       0       0       0       0       0       0       0       0       0       0       
      +0       0       0       0
  2687 ;;      Temps:          0       0       0       0       0       0       0       0       0       0       0       0       
      +0       0       0       0
  2688 ;;      Totals:         1       0       0       0       0       0       0       0       0       0       0       0       
      +0       0       0       0
  2689 ;;Total ram usage:        1 bytes
  2690 ;; Hardware stack levels used:    1
  2691 ;; This function calls:
  2692 ;;		Nothing
  2693 ;; This function is called by:
  2694 ;;		_main
  2695 ;; This function uses a non-reentrant model
  2696 ;;
  2697                           
  2698                           	psect	text11
  2699  001D04                     __ptext11:
  2700                           	opt stack 0
  2701  001D04                     _UART1_byte_send:
  2702                           	opt stack 30
  2703                           
  2704                           ;incstack = 0
  2705                           ;UART1_byte_send@data stored from wreg
  2706  001D04  6E3B               	movwf	UART1_byte_send@data,c
  2707  001D06                     l389:
  2708  001D06  A89E               	btfss	3998,4,c	;volatile
  2709  001D08  D7FE               	goto	l389
  2710                           
  2711                           ;EUART.h: 17: TXREG1 = data ;
  2712  001D0A  C03B  FFAD         	movff	UART1_byte_send@data,4013	;volatile
  2713  001D0E  0012               	return		;funcret
  2714  001D10                     __end_of_UART1_byte_send:
  2715                           	opt stack 0
  2716                           tblptru	equ	0xFF8
  2717                           tblptrh	equ	0xFF7
  2718                           tblptrl	equ	0xFF6
  2719                           tablat	equ	0xFF5
  2720                           indf0	equ	0xFEF
  2721                           postinc0	equ	0xFEE
  2722                           fsr0h	equ	0xFEA
  2723                           fsr0l	equ	0xFE9
  2724                           wreg	equ	0xFE8
  2725                           postdec1	equ	0xFE5
  2726                           fsr1h	equ	0xFE2
  2727                           fsr1l	equ	0xFE1
  2728                           indf2	equ	0xFDF
  2729                           fsr2h	equ	0xFDA
  2730                           fsr2l	equ	0xFD9
  2731                           status	equ	0xFD8
  2732                           
  2733 ;; *************** function _PWM5_set_value *****************
  2734 ;; Defined at:
  2735 ;;		line 96 in file "PWM.h"
  2736 ;; Parameters:    Size  Location     Type
  2737 ;;  value           2    0[COMRAM] int 
  2738 ;; Auto vars:     Size  Location     Type
  2739 ;;		None
  2740 ;; Return value:  Size  Location     Type
  2741 ;;                  1    wreg      void 
  2742 ;; Registers used:
  2743 ;;		wreg, status,2, status,0
  2744 ;; Tracked objects:
  2745 ;;		On entry : 0/0
  2746 ;;		On exit  : 0/0
  2747 ;;		Unchanged: 0/0
  2748 ;; Data sizes:     COMRAM   BANK0   BANK1   BANK2   BANK3   BANK4   BANK5   BANK6   BANK7   BANK8   BANK9  BANK10  BANK1
      +1  BANK12  BANK13  BANK14
  2749 ;;      Params:         2       0       0       0       0       0       0       0       0       0       0       0       
      +0       0       0       0
  2750 ;;      Locals:         0       0       0       0       0       0       0       0       0       0       0       0       
      +0       0       0       0
  2751 ;;      Temps:          2       0       0       0       0       0       0       0       0       0       0       0       
      +0       0       0       0
  2752 ;;      Totals:         4       0       0       0       0       0       0       0       0       0       0       0       
      +0       0       0       0
  2753 ;;Total ram usage:        4 bytes
  2754 ;; Hardware stack levels used:    1
  2755 ;; This function calls:
  2756 ;;		Nothing
  2757 ;; This function is called by:
  2758 ;;		_main
  2759 ;; This function uses a non-reentrant model
  2760 ;;
  2761                           
  2762                           	psect	text12
  2763  00192E                     __ptext12:
  2764                           	opt stack 0
  2765  00192E                     _PWM5_set_value:
  2766                           	opt stack 30
  2767                           
  2768                           ;PWM.h: 98: TMR2ON = 0;
  2769                           
  2770                           ;incstack = 0
  2771  00192E  94CA               	bcf	4042,2,c	;volatile
  2772                           
  2773                           ;PWM.h: 99: CCPR5L = value >> 2;
  2774  001930  C03B  F03D         	movff	PWM5_set_value@value,??_PWM5_set_value
  2775  001934  C03C  F03E         	movff	PWM5_set_value@value+1,??_PWM5_set_value+1
  2776  001938  343E               	rlcf	??_PWM5_set_value+1,w,c
  2777  00193A  323E               	rrcf	??_PWM5_set_value+1,f,c
  2778  00193C  323D               	rrcf	??_PWM5_set_value,f,c
  2779  00193E  343E               	rlcf	??_PWM5_set_value+1,w,c
  2780  001940  323E               	rrcf	??_PWM5_set_value+1,f,c
  2781  001942  323D               	rrcf	??_PWM5_set_value,f,c
  2782  001944  503D               	movf	??_PWM5_set_value,w,c
  2783  001946  010F               	movlb	15	; () banked
  2784  001948  6F48               	movwf	72,b	;volatile
  2785                           
  2786                           ;PWM.h: 100: DC5B1 = value >> 1;
  2787  00194A  343C               	rlcf	PWM5_set_value@value+1,w,c
  2788  00194C  303C               	rrcf	PWM5_set_value@value+1,w,c
  2789  00194E  6E3E               	movwf	(??_PWM5_set_value+1)& (0+255),c
  2790  001950  303B               	rrcf	PWM5_set_value@value,w,c
  2791  001952  6E3D               	movwf	??_PWM5_set_value& (0+255),c
  2792  001954  303D               	rrcf	??_PWM5_set_value,w,c
  2793  001956  A0D8               	btfss	status,0,c
  2794  001958  D003               	goto	u1490
  2795  00195A  010F               	movlb	15	; () banked
  2796  00195C  8B47               	bsf	71,5,b	;volatile
  2797  00195E  D002               	goto	l2463
  2798  001960                     u1490:
  2799  001960  010F               	movlb	15	; () banked
  2800  001962  9B47               	bcf	71,5,b	;volatile
  2801  001964                     l2463:
  2802                           
  2803                           ; BSR set to: 15
  2804                           ;PWM.h: 101: DC5B0 = value &0x1;
  2805  001964  A03B               	btfss	PWM5_set_value@value,0,c
  2806  001966  D003               	goto	u1510
  2807  001968  010F               	movlb	15	; () banked
  2808  00196A  8947               	bsf	71,4,b	;volatile
  2809  00196C  D002               	goto	l2465
  2810  00196E                     u1510:
  2811  00196E  010F               	movlb	15	; () banked
  2812  001970  9947               	bcf	71,4,b	;volatile
  2813  001972                     l2465:
  2814                           
  2815                           ; BSR set to: 15
  2816                           ;PWM.h: 102: TMR2ON = 1;
  2817  001972  84CA               	bsf	4042,2,c	;volatile
  2818                           
  2819                           ; BSR set to: 15
  2820  001974  0012               	return		;funcret
  2821  001976                     __end_of_PWM5_set_value:
  2822                           	opt stack 0
  2823                           tblptru	equ	0xFF8
  2824                           tblptrh	equ	0xFF7
  2825                           tblptrl	equ	0xFF6
  2826                           tablat	equ	0xFF5
  2827                           indf0	equ	0xFEF
  2828                           postinc0	equ	0xFEE
  2829                           fsr0h	equ	0xFEA
  2830                           fsr0l	equ	0xFE9
  2831                           wreg	equ	0xFE8
  2832                           postdec1	equ	0xFE5
  2833                           fsr1h	equ	0xFE2
  2834                           fsr1l	equ	0xFE1
  2835                           indf2	equ	0xFDF
  2836                           fsr2h	equ	0xFDA
  2837                           fsr2l	equ	0xFD9
  2838                           status	equ	0xFD8
  2839                           
  2840 ;; *************** function _PWM5_initialize *****************
  2841 ;; Defined at:
  2842 ;;		line 106 in file "PWM.h"
  2843 ;; Parameters:    Size  Location     Type
  2844 ;;		None
  2845 ;; Auto vars:     Size  Location     Type
  2846 ;;		None
  2847 ;; Return value:  Size  Location     Type
  2848 ;;                  1    wreg      void 
  2849 ;; Registers used:
  2850 ;;		wreg, status,2, status,0, cstack
  2851 ;; Tracked objects:
  2852 ;;		On entry : 0/0
  2853 ;;		On exit  : 0/0
  2854 ;;		Unchanged: 0/0
  2855 ;; Data sizes:     COMRAM   BANK0   BANK1   BANK2   BANK3   BANK4   BANK5   BANK6   BANK7   BANK8   BANK9  BANK10  BANK1
      +1  BANK12  BANK13  BANK14
  2856 ;;      Params:         0       0       0       0       0       0       0       0       0       0       0       0       
      +0       0       0       0
  2857 ;;      Locals:         0       0       0       0       0       0       0       0       0       0       0       0       
      +0       0       0       0
  2858 ;;      Temps:          0       0       0       0       0       0       0       0       0       0       0       0       
      +0       0       0       0
  2859 ;;      Totals:         0       0       0       0       0       0       0       0       0       0       0       0       
      +0       0       0       0
  2860 ;;Total ram usage:        0 bytes
  2861 ;; Hardware stack levels used:    1
  2862 ;; Hardware stack levels required when called:    1
  2863 ;; This function calls:
  2864 ;;		_PWM3_set_value
  2865 ;; This function is called by:
  2866 ;;		_main
  2867 ;; This function uses a non-reentrant model
  2868 ;;
  2869                           
  2870                           	psect	text13
  2871  001C30                     __ptext13:
  2872                           	opt stack 0
  2873  001C30                     _PWM5_initialize:
  2874                           	opt stack 29
  2875                           
  2876                           ;PWM.h: 112: C5TSEL = 0;
  2877                           
  2878                           ; BSR set to: 15
  2879                           ;incstack = 0
  2880  001C30  9899               	bcf	3993,4,c	;volatile
  2881                           
  2882                           ;PWM.h: 113: TRISB5 = 0;
  2883  001C32  9A93               	bcf	3987,5,c	;volatile
  2884                           
  2885                           ;PWM.h: 114: PR2 = 249;
  2886  001C34  0EF9               	movlw	249
  2887  001C36  6ECB               	movwf	4043,c	;volatile
  2888                           
  2889                           ;PWM.h: 115: T2CKPS1=0; T2CKPS0 = 1;
  2890  001C38  92CA               	bcf	4042,1,c	;volatile
  2891  001C3A  80CA               	bsf	4042,0,c	;volatile
  2892                           
  2893                           ;PWM.h: 116: CCP5M3 = 1;
  2894  001C3C  010F               	movlb	15	; () banked
  2895  001C3E  8747               	bsf	71,3,b	;volatile
  2896                           
  2897                           ; BSR set to: 15
  2898                           ;PWM.h: 117: CCP5M2 = 1;
  2899  001C40  010F               	movlb	15	; () banked
  2900  001C42  8547               	bsf	71,2,b	;volatile
  2901                           
  2902                           ; BSR set to: 15
  2903                           ;PWM.h: 119: PWM3_set_value(500);
  2904  001C44  0E01               	movlw	1
  2905  001C46  6E3C               	movwf	PWM3_set_value@value+1,c
  2906  001C48  0EF4               	movlw	244
  2907  001C4A  6E3B               	movwf	PWM3_set_value@value,c
  2908  001C4C  ECDF  F00C         	call	_PWM3_set_value	;wreg free
  2909  001C50  0012               	return		;funcret
  2910  001C52                     __end_of_PWM5_initialize:
  2911                           	opt stack 0
  2912                           tblptru	equ	0xFF8
  2913                           tblptrh	equ	0xFF7
  2914                           tblptrl	equ	0xFF6
  2915                           tablat	equ	0xFF5
  2916                           indf0	equ	0xFEF
  2917                           postinc0	equ	0xFEE
  2918                           fsr0h	equ	0xFEA
  2919                           fsr0l	equ	0xFE9
  2920                           wreg	equ	0xFE8
  2921                           postdec1	equ	0xFE5
  2922                           fsr1h	equ	0xFE2
  2923                           fsr1l	equ	0xFE1
  2924                           indf2	equ	0xFDF
  2925                           fsr2h	equ	0xFDA
  2926                           fsr2l	equ	0xFD9
  2927                           status	equ	0xFD8
  2928                           
  2929 ;; *************** function _PWM4_initialize *****************
  2930 ;; Defined at:
  2931 ;;		line 80 in file "PWM.h"
  2932 ;; Parameters:    Size  Location     Type
  2933 ;;		None
  2934 ;; Auto vars:     Size  Location     Type
  2935 ;;		None
  2936 ;; Return value:  Size  Location     Type
  2937 ;;                  1    wreg      void 
  2938 ;; Registers used:
  2939 ;;		wreg, status,2, status,0, cstack
  2940 ;; Tracked objects:
  2941 ;;		On entry : 0/0
  2942 ;;		On exit  : 0/0
  2943 ;;		Unchanged: 0/0
  2944 ;; Data sizes:     COMRAM   BANK0   BANK1   BANK2   BANK3   BANK4   BANK5   BANK6   BANK7   BANK8   BANK9  BANK10  BANK1
      +1  BANK12  BANK13  BANK14
  2945 ;;      Params:         0       0       0       0       0       0       0       0       0       0       0       0       
      +0       0       0       0
  2946 ;;      Locals:         0       0       0       0       0       0       0       0       0       0       0       0       
      +0       0       0       0
  2947 ;;      Temps:          0       0       0       0       0       0       0       0       0       0       0       0       
      +0       0       0       0
  2948 ;;      Totals:         0       0       0       0       0       0       0       0       0       0       0       0       
      +0       0       0       0
  2949 ;;Total ram usage:        0 bytes
  2950 ;; Hardware stack levels used:    1
  2951 ;; Hardware stack levels required when called:    1
  2952 ;; This function calls:
  2953 ;;		_PWM4_set_value
  2954 ;; This function is called by:
  2955 ;;		_main
  2956 ;; This function uses a non-reentrant model
  2957 ;;
  2958                           
  2959                           	psect	text14
  2960  001C52                     __ptext14:
  2961                           	opt stack 0
  2962  001C52                     _PWM4_initialize:
  2963                           	opt stack 29
  2964                           
  2965                           ;PWM.h: 86: C4TSEL = 0;
  2966                           
  2967                           ;incstack = 0
  2968  001C52  9699               	bcf	3993,3,c	;volatile
  2969                           
  2970                           ;PWM.h: 87: TRISC7 = 0;
  2971  001C54  9E94               	bcf	3988,7,c	;volatile
  2972                           
  2973                           ;PWM.h: 88: PR2 = 249;
  2974  001C56  0EF9               	movlw	249
  2975  001C58  6ECB               	movwf	4043,c	;volatile
  2976                           
  2977                           ;PWM.h: 89: T2CKPS1=0; T2CKPS0 = 1;
  2978  001C5A  92CA               	bcf	4042,1,c	;volatile
  2979  001C5C  80CA               	bsf	4042,0,c	;volatile
  2980                           
  2981                           ;PWM.h: 90: CCP4M3 = 1;
  2982  001C5E  010F               	movlb	15	; () banked
  2983  001C60  874A               	bsf	74,3,b	;volatile
  2984                           
  2985                           ; BSR set to: 15
  2986                           ;PWM.h: 91: CCP4M2 = 1;
  2987  001C62  010F               	movlb	15	; () banked
  2988  001C64  854A               	bsf	74,2,b	;volatile
  2989                           
  2990                           ; BSR set to: 15
  2991                           ;PWM.h: 93: PWM4_set_value(500);
  2992  001C66  0E01               	movlw	1
  2993  001C68  6E3C               	movwf	PWM4_set_value@value+1,c
  2994  001C6A  0EF4               	movlw	244
  2995  001C6C  6E3B               	movwf	PWM4_set_value@value,c
  2996  001C6E  ECBB  F00C         	call	_PWM4_set_value	;wreg free
  2997  001C72  0012               	return		;funcret
  2998  001C74                     __end_of_PWM4_initialize:
  2999                           	opt stack 0
  3000                           tblptru	equ	0xFF8
  3001                           tblptrh	equ	0xFF7
  3002                           tblptrl	equ	0xFF6
  3003                           tablat	equ	0xFF5
  3004                           indf0	equ	0xFEF
  3005                           postinc0	equ	0xFEE
  3006                           fsr0h	equ	0xFEA
  3007                           fsr0l	equ	0xFE9
  3008                           wreg	equ	0xFE8
  3009                           postdec1	equ	0xFE5
  3010                           fsr1h	equ	0xFE2
  3011                           fsr1l	equ	0xFE1
  3012                           indf2	equ	0xFDF
  3013                           fsr2h	equ	0xFDA
  3014                           fsr2l	equ	0xFD9
  3015                           status	equ	0xFD8
  3016                           
  3017 ;; *************** function _PWM4_set_value *****************
  3018 ;; Defined at:
  3019 ;;		line 70 in file "PWM.h"
  3020 ;; Parameters:    Size  Location     Type
  3021 ;;  value           2    0[COMRAM] int 
  3022 ;; Auto vars:     Size  Location     Type
  3023 ;;		None
  3024 ;; Return value:  Size  Location     Type
  3025 ;;                  1    wreg      void 
  3026 ;; Registers used:
  3027 ;;		wreg, status,2, status,0
  3028 ;; Tracked objects:
  3029 ;;		On entry : 0/0
  3030 ;;		On exit  : 0/0
  3031 ;;		Unchanged: 0/0
  3032 ;; Data sizes:     COMRAM   BANK0   BANK1   BANK2   BANK3   BANK4   BANK5   BANK6   BANK7   BANK8   BANK9  BANK10  BANK1
      +1  BANK12  BANK13  BANK14
  3033 ;;      Params:         2       0       0       0       0       0       0       0       0       0       0       0       
      +0       0       0       0
  3034 ;;      Locals:         0       0       0       0       0       0       0       0       0       0       0       0       
      +0       0       0       0
  3035 ;;      Temps:          2       0       0       0       0       0       0       0       0       0       0       0       
      +0       0       0       0
  3036 ;;      Totals:         4       0       0       0       0       0       0       0       0       0       0       0       
      +0       0       0       0
  3037 ;;Total ram usage:        4 bytes
  3038 ;; Hardware stack levels used:    1
  3039 ;; This function calls:
  3040 ;;		Nothing
  3041 ;; This function is called by:
  3042 ;;		_PWM4_initialize
  3043 ;;		_main
  3044 ;; This function uses a non-reentrant model
  3045 ;;
  3046                           
  3047                           	psect	text15
  3048  001976                     __ptext15:
  3049                           	opt stack 0
  3050  001976                     _PWM4_set_value:
  3051                           	opt stack 30
  3052                           
  3053                           ;PWM.h: 72: TMR2ON = 0;
  3054                           
  3055                           ;incstack = 0
  3056  001976  94CA               	bcf	4042,2,c	;volatile
  3057                           
  3058                           ;PWM.h: 73: CCPR4L = value >> 2;
  3059  001978  C03B  F03D         	movff	PWM4_set_value@value,??_PWM4_set_value
  3060  00197C  C03C  F03E         	movff	PWM4_set_value@value+1,??_PWM4_set_value+1
  3061  001980  343E               	rlcf	??_PWM4_set_value+1,w,c
  3062  001982  323E               	rrcf	??_PWM4_set_value+1,f,c
  3063  001984  323D               	rrcf	??_PWM4_set_value,f,c
  3064  001986  343E               	rlcf	??_PWM4_set_value+1,w,c
  3065  001988  323E               	rrcf	??_PWM4_set_value+1,f,c
  3066  00198A  323D               	rrcf	??_PWM4_set_value,f,c
  3067  00198C  503D               	movf	??_PWM4_set_value,w,c
  3068  00198E  010F               	movlb	15	; () banked
  3069  001990  6F4B               	movwf	75,b	;volatile
  3070                           
  3071                           ;PWM.h: 74: DC4B1 = value >> 1;
  3072  001992  343C               	rlcf	PWM4_set_value@value+1,w,c
  3073  001994  303C               	rrcf	PWM4_set_value@value+1,w,c
  3074  001996  6E3E               	movwf	(??_PWM4_set_value+1)& (0+255),c
  3075  001998  303B               	rrcf	PWM4_set_value@value,w,c
  3076  00199A  6E3D               	movwf	??_PWM4_set_value& (0+255),c
  3077  00199C  303D               	rrcf	??_PWM4_set_value,w,c
  3078  00199E  A0D8               	btfss	status,0,c
  3079  0019A0  D003               	goto	u1440
  3080  0019A2  010F               	movlb	15	; () banked
  3081  0019A4  8B4A               	bsf	74,5,b	;volatile
  3082  0019A6  D002               	goto	l2375
  3083  0019A8                     u1440:
  3084  0019A8  010F               	movlb	15	; () banked
  3085  0019AA  9B4A               	bcf	74,5,b	;volatile
  3086  0019AC                     l2375:
  3087                           
  3088                           ; BSR set to: 15
  3089                           ;PWM.h: 75: DC4B0 = value &0x1;
  3090  0019AC  A03B               	btfss	PWM4_set_value@value,0,c
  3091  0019AE  D003               	goto	u1460
  3092  0019B0  010F               	movlb	15	; () banked
  3093  0019B2  894A               	bsf	74,4,b	;volatile
  3094  0019B4  D002               	goto	l2377
  3095  0019B6                     u1460:
  3096  0019B6  010F               	movlb	15	; () banked
  3097  0019B8  994A               	bcf	74,4,b	;volatile
  3098  0019BA                     l2377:
  3099                           
  3100                           ; BSR set to: 15
  3101                           ;PWM.h: 76: TMR2ON = 1;
  3102  0019BA  84CA               	bsf	4042,2,c	;volatile
  3103                           
  3104                           ; BSR set to: 15
  3105  0019BC  0012               	return		;funcret
  3106  0019BE                     __end_of_PWM4_set_value:
  3107                           	opt stack 0
  3108                           tblptru	equ	0xFF8
  3109                           tblptrh	equ	0xFF7
  3110                           tblptrl	equ	0xFF6
  3111                           tablat	equ	0xFF5
  3112                           indf0	equ	0xFEF
  3113                           postinc0	equ	0xFEE
  3114                           fsr0h	equ	0xFEA
  3115                           fsr0l	equ	0xFE9
  3116                           wreg	equ	0xFE8
  3117                           postdec1	equ	0xFE5
  3118                           fsr1h	equ	0xFE2
  3119                           fsr1l	equ	0xFE1
  3120                           indf2	equ	0xFDF
  3121                           fsr2h	equ	0xFDA
  3122                           fsr2l	equ	0xFD9
  3123                           status	equ	0xFD8
  3124                           
  3125 ;; *************** function _PWM3_initialize *****************
  3126 ;; Defined at:
  3127 ;;		line 53 in file "PWM.h"
  3128 ;; Parameters:    Size  Location     Type
  3129 ;;		None
  3130 ;; Auto vars:     Size  Location     Type
  3131 ;;		None
  3132 ;; Return value:  Size  Location     Type
  3133 ;;                  1    wreg      void 
  3134 ;; Registers used:
  3135 ;;		wreg, status,2, status,0, cstack
  3136 ;; Tracked objects:
  3137 ;;		On entry : 0/0
  3138 ;;		On exit  : 0/0
  3139 ;;		Unchanged: 0/0
  3140 ;; Data sizes:     COMRAM   BANK0   BANK1   BANK2   BANK3   BANK4   BANK5   BANK6   BANK7   BANK8   BANK9  BANK10  BANK1
      +1  BANK12  BANK13  BANK14
  3141 ;;      Params:         0       0       0       0       0       0       0       0       0       0       0       0       
      +0       0       0       0
  3142 ;;      Locals:         0       0       0       0       0       0       0       0       0       0       0       0       
      +0       0       0       0
  3143 ;;      Temps:          0       0       0       0       0       0       0       0       0       0       0       0       
      +0       0       0       0
  3144 ;;      Totals:         0       0       0       0       0       0       0       0       0       0       0       0       
      +0       0       0       0
  3145 ;;Total ram usage:        0 bytes
  3146 ;; Hardware stack levels used:    1
  3147 ;; Hardware stack levels required when called:    1
  3148 ;; This function calls:
  3149 ;;		_PWM3_set_value
  3150 ;; This function is called by:
  3151 ;;		_main
  3152 ;; This function uses a non-reentrant model
  3153 ;;
  3154                           
  3155                           	psect	text16
  3156  001C74                     __ptext16:
  3157                           	opt stack 0
  3158  001C74                     _PWM3_initialize:
  3159                           	opt stack 29
  3160                           
  3161                           ;PWM.h: 59: C3TSEL = 0;
  3162                           
  3163                           ; BSR set to: 15
  3164                           ;incstack = 0
  3165  001C74  9499               	bcf	3993,2,c	;volatile
  3166                           
  3167                           ;PWM.h: 60: TRISC6 = 0;
  3168  001C76  9C94               	bcf	3988,6,c	;volatile
  3169                           
  3170                           ;PWM.h: 61: PR2 = 249;
  3171  001C78  0EF9               	movlw	249
  3172  001C7A  6ECB               	movwf	4043,c	;volatile
  3173                           
  3174                           ;PWM.h: 62: T2CKPS1=0; T2CKPS0 = 1;
  3175  001C7C  92CA               	bcf	4042,1,c	;volatile
  3176  001C7E  80CA               	bsf	4042,0,c	;volatile
  3177                           
  3178                           ;PWM.h: 63: CCP3M3 = 1;
  3179  001C80  010F               	movlb	15	; () banked
  3180  001C82  874D               	bsf	77,3,b	;volatile
  3181                           
  3182                           ; BSR set to: 15
  3183                           ;PWM.h: 64: CCP3M2 = 1;
  3184  001C84  010F               	movlb	15	; () banked
  3185  001C86  854D               	bsf	77,2,b	;volatile
  3186                           
  3187                           ; BSR set to: 15
  3188                           ;PWM.h: 66: PWM3_set_value(500);
  3189  001C88  0E01               	movlw	1
  3190  001C8A  6E3C               	movwf	PWM3_set_value@value+1,c
  3191  001C8C  0EF4               	movlw	244
  3192  001C8E  6E3B               	movwf	PWM3_set_value@value,c
  3193  001C90  ECDF  F00C         	call	_PWM3_set_value	;wreg free
  3194  001C94  0012               	return		;funcret
  3195  001C96                     __end_of_PWM3_initialize:
  3196                           	opt stack 0
  3197                           tblptru	equ	0xFF8
  3198                           tblptrh	equ	0xFF7
  3199                           tblptrl	equ	0xFF6
  3200                           tablat	equ	0xFF5
  3201                           indf0	equ	0xFEF
  3202                           postinc0	equ	0xFEE
  3203                           fsr0h	equ	0xFEA
  3204                           fsr0l	equ	0xFE9
  3205                           wreg	equ	0xFE8
  3206                           postdec1	equ	0xFE5
  3207                           fsr1h	equ	0xFE2
  3208                           fsr1l	equ	0xFE1
  3209                           indf2	equ	0xFDF
  3210                           fsr2h	equ	0xFDA
  3211                           fsr2l	equ	0xFD9
  3212                           status	equ	0xFD8
  3213                           
  3214 ;; *************** function _PWM3_set_value *****************
  3215 ;; Defined at:
  3216 ;;		line 43 in file "PWM.h"
  3217 ;; Parameters:    Size  Location     Type
  3218 ;;  value           2    0[COMRAM] int 
  3219 ;; Auto vars:     Size  Location     Type
  3220 ;;		None
  3221 ;; Return value:  Size  Location     Type
  3222 ;;                  1    wreg      void 
  3223 ;; Registers used:
  3224 ;;		wreg, status,2, status,0
  3225 ;; Tracked objects:
  3226 ;;		On entry : 0/0
  3227 ;;		On exit  : 0/0
  3228 ;;		Unchanged: 0/0
  3229 ;; Data sizes:     COMRAM   BANK0   BANK1   BANK2   BANK3   BANK4   BANK5   BANK6   BANK7   BANK8   BANK9  BANK10  BANK1
      +1  BANK12  BANK13  BANK14
  3230 ;;      Params:         2       0       0       0       0       0       0       0       0       0       0       0       
      +0       0       0       0
  3231 ;;      Locals:         0       0       0       0       0       0       0       0       0       0       0       0       
      +0       0       0       0
  3232 ;;      Temps:          2       0       0       0       0       0       0       0       0       0       0       0       
      +0       0       0       0
  3233 ;;      Totals:         4       0       0       0       0       0       0       0       0       0       0       0       
      +0       0       0       0
  3234 ;;Total ram usage:        4 bytes
  3235 ;; Hardware stack levels used:    1
  3236 ;; This function calls:
  3237 ;;		Nothing
  3238 ;; This function is called by:
  3239 ;;		_PWM3_initialize
  3240 ;;		_PWM5_initialize
  3241 ;;		_main
  3242 ;; This function uses a non-reentrant model
  3243 ;;
  3244                           
  3245                           	psect	text17
  3246  0019BE                     __ptext17:
  3247                           	opt stack 0
  3248  0019BE                     _PWM3_set_value:
  3249                           	opt stack 29
  3250                           
  3251                           ;PWM.h: 45: TMR2ON = 0;
  3252                           
  3253                           ;incstack = 0
  3254  0019BE  94CA               	bcf	4042,2,c	;volatile
  3255                           
  3256                           ;PWM.h: 46: CCPR3L = value >> 2;
  3257  0019C0  C03B  F03D         	movff	PWM3_set_value@value,??_PWM3_set_value
  3258  0019C4  C03C  F03E         	movff	PWM3_set_value@value+1,??_PWM3_set_value+1
  3259  0019C8  343E               	rlcf	??_PWM3_set_value+1,w,c
  3260  0019CA  323E               	rrcf	??_PWM3_set_value+1,f,c
  3261  0019CC  323D               	rrcf	??_PWM3_set_value,f,c
  3262  0019CE  343E               	rlcf	??_PWM3_set_value+1,w,c
  3263  0019D0  323E               	rrcf	??_PWM3_set_value+1,f,c
  3264  0019D2  323D               	rrcf	??_PWM3_set_value,f,c
  3265  0019D4  503D               	movf	??_PWM3_set_value,w,c
  3266  0019D6  010F               	movlb	15	; () banked
  3267  0019D8  6F4E               	movwf	78,b	;volatile
  3268                           
  3269                           ;PWM.h: 47: DC3B1 = value >> 1;
  3270  0019DA  343C               	rlcf	PWM3_set_value@value+1,w,c
  3271  0019DC  303C               	rrcf	PWM3_set_value@value+1,w,c
  3272  0019DE  6E3E               	movwf	(??_PWM3_set_value+1)& (0+255),c
  3273  0019E0  303B               	rrcf	PWM3_set_value@value,w,c
  3274  0019E2  6E3D               	movwf	??_PWM3_set_value& (0+255),c
  3275  0019E4  303D               	rrcf	??_PWM3_set_value,w,c
  3276  0019E6  A0D8               	btfss	status,0,c
  3277  0019E8  D003               	goto	u1400
  3278  0019EA  010F               	movlb	15	; () banked
  3279  0019EC  8B4D               	bsf	77,5,b	;volatile
  3280  0019EE  D002               	goto	l2367
  3281  0019F0                     u1400:
  3282  0019F0  010F               	movlb	15	; () banked
  3283  0019F2  9B4D               	bcf	77,5,b	;volatile
  3284  0019F4                     l2367:
  3285                           
  3286                           ; BSR set to: 15
  3287                           ;PWM.h: 48: DC3B0 = value &0x1;
  3288  0019F4  A03B               	btfss	PWM3_set_value@value,0,c
  3289  0019F6  D003               	goto	u1420
  3290  0019F8  010F               	movlb	15	; () banked
  3291  0019FA  894D               	bsf	77,4,b	;volatile
  3292  0019FC  D002               	goto	l2369
  3293  0019FE                     u1420:
  3294  0019FE  010F               	movlb	15	; () banked
  3295  001A00  994D               	bcf	77,4,b	;volatile
  3296  001A02                     l2369:
  3297                           
  3298                           ; BSR set to: 15
  3299                           ;PWM.h: 49: TMR2ON = 1;
  3300  001A02  84CA               	bsf	4042,2,c	;volatile
  3301                           
  3302                           ; BSR set to: 15
  3303  001A04  0012               	return		;funcret
  3304  001A06                     __end_of_PWM3_set_value:
  3305                           	opt stack 0
  3306                           tblptru	equ	0xFF8
  3307                           tblptrh	equ	0xFF7
  3308                           tblptrl	equ	0xFF6
  3309                           tablat	equ	0xFF5
  3310                           indf0	equ	0xFEF
  3311                           postinc0	equ	0xFEE
  3312                           fsr0h	equ	0xFEA
  3313                           fsr0l	equ	0xFE9
  3314                           wreg	equ	0xFE8
  3315                           postdec1	equ	0xFE5
  3316                           fsr1h	equ	0xFE2
  3317                           fsr1l	equ	0xFE1
  3318                           indf2	equ	0xFDF
  3319                           fsr2h	equ	0xFDA
  3320                           fsr2l	equ	0xFD9
  3321                           status	equ	0xFD8
  3322                           
  3323 ;; *************** function _PWM2_initialize *****************
  3324 ;; Defined at:
  3325 ;;		line 24 in file "PWM.h"
  3326 ;; Parameters:    Size  Location     Type
  3327 ;;		None
  3328 ;; Auto vars:     Size  Location     Type
  3329 ;;		None
  3330 ;; Return value:  Size  Location     Type
  3331 ;;                  1    wreg      void 
  3332 ;; Registers used:
  3333 ;;		wreg, status,2, status,0, cstack
  3334 ;; Tracked objects:
  3335 ;;		On entry : 0/0
  3336 ;;		On exit  : 0/0
  3337 ;;		Unchanged: 0/0
  3338 ;; Data sizes:     COMRAM   BANK0   BANK1   BANK2   BANK3   BANK4   BANK5   BANK6   BANK7   BANK8   BANK9  BANK10  BANK1
      +1  BANK12  BANK13  BANK14
  3339 ;;      Params:         0       0       0       0       0       0       0       0       0       0       0       0       
      +0       0       0       0
  3340 ;;      Locals:         0       0       0       0       0       0       0       0       0       0       0       0       
      +0       0       0       0
  3341 ;;      Temps:          0       0       0       0       0       0       0       0       0       0       0       0       
      +0       0       0       0
  3342 ;;      Totals:         0       0       0       0       0       0       0       0       0       0       0       0       
      +0       0       0       0
  3343 ;;Total ram usage:        0 bytes
  3344 ;; Hardware stack levels used:    1
  3345 ;; Hardware stack levels required when called:    1
  3346 ;; This function calls:
  3347 ;;		_PWM2_set_value
  3348 ;; This function is called by:
  3349 ;;		_main
  3350 ;; This function uses a non-reentrant model
  3351 ;;
  3352                           
  3353                           	psect	text18
  3354  001C96                     __ptext18:
  3355                           	opt stack 0
  3356  001C96                     _PWM2_initialize:
  3357                           	opt stack 29
  3358                           
  3359                           ;PWM.h: 31: C2TSEL = 0;
  3360                           
  3361                           ; BSR set to: 15
  3362                           ;incstack = 0
  3363  001C96  9299               	bcf	3993,1,c	;volatile
  3364                           
  3365                           ;PWM.h: 32: TRISC2 = 0;
  3366  001C98  9494               	bcf	3988,2,c	;volatile
  3367                           
  3368                           ;PWM.h: 33: PR2 = 249;
  3369  001C9A  0EF9               	movlw	249
  3370  001C9C  6ECB               	movwf	4043,c	;volatile
  3371                           
  3372                           ;PWM.h: 34: T2CKPS1=0; T2CKPS0 = 1;
  3373  001C9E  92CA               	bcf	4042,1,c	;volatile
  3374  001CA0  80CA               	bsf	4042,0,c	;volatile
  3375                           
  3376                           ;PWM.h: 35: CCP2M3 = 1;
  3377  001CA2  010F               	movlb	15	; () banked
  3378  001CA4  8750               	bsf	80,3,b	;volatile
  3379                           
  3380                           ; BSR set to: 15
  3381                           ;PWM.h: 36: CCP2M2 = 1;
  3382  001CA6  010F               	movlb	15	; () banked
  3383  001CA8  8550               	bsf	80,2,b	;volatile
  3384                           
  3385                           ; BSR set to: 15
  3386                           ;PWM.h: 38: PWM2_set_value(500);
  3387  001CAA  0E01               	movlw	1
  3388  001CAC  6E3C               	movwf	PWM2_set_value@value+1,c
  3389  001CAE  0EF4               	movlw	244
  3390  001CB0  6E3B               	movwf	PWM2_set_value@value,c
  3391  001CB2  EC03  F00D         	call	_PWM2_set_value	;wreg free
  3392  001CB6  0012               	return		;funcret
  3393  001CB8                     __end_of_PWM2_initialize:
  3394                           	opt stack 0
  3395                           tblptru	equ	0xFF8
  3396                           tblptrh	equ	0xFF7
  3397                           tblptrl	equ	0xFF6
  3398                           tablat	equ	0xFF5
  3399                           indf0	equ	0xFEF
  3400                           postinc0	equ	0xFEE
  3401                           fsr0h	equ	0xFEA
  3402                           fsr0l	equ	0xFE9
  3403                           wreg	equ	0xFE8
  3404                           postdec1	equ	0xFE5
  3405                           fsr1h	equ	0xFE2
  3406                           fsr1l	equ	0xFE1
  3407                           indf2	equ	0xFDF
  3408                           fsr2h	equ	0xFDA
  3409                           fsr2l	equ	0xFD9
  3410                           status	equ	0xFD8
  3411                           
  3412 ;; *************** function _PWM2_set_value *****************
  3413 ;; Defined at:
  3414 ;;		line 15 in file "PWM.h"
  3415 ;; Parameters:    Size  Location     Type
  3416 ;;  value           2    0[COMRAM] int 
  3417 ;; Auto vars:     Size  Location     Type
  3418 ;;		None
  3419 ;; Return value:  Size  Location     Type
  3420 ;;                  1    wreg      void 
  3421 ;; Registers used:
  3422 ;;		wreg, status,2, status,0
  3423 ;; Tracked objects:
  3424 ;;		On entry : 0/0
  3425 ;;		On exit  : 0/0
  3426 ;;		Unchanged: 0/0
  3427 ;; Data sizes:     COMRAM   BANK0   BANK1   BANK2   BANK3   BANK4   BANK5   BANK6   BANK7   BANK8   BANK9  BANK10  BANK1
      +1  BANK12  BANK13  BANK14
  3428 ;;      Params:         2       0       0       0       0       0       0       0       0       0       0       0       
      +0       0       0       0
  3429 ;;      Locals:         0       0       0       0       0       0       0       0       0       0       0       0       
      +0       0       0       0
  3430 ;;      Temps:          2       0       0       0       0       0       0       0       0       0       0       0       
      +0       0       0       0
  3431 ;;      Totals:         4       0       0       0       0       0       0       0       0       0       0       0       
      +0       0       0       0
  3432 ;;Total ram usage:        4 bytes
  3433 ;; Hardware stack levels used:    1
  3434 ;; This function calls:
  3435 ;;		Nothing
  3436 ;; This function is called by:
  3437 ;;		_PWM2_initialize
  3438 ;;		_main
  3439 ;; This function uses a non-reentrant model
  3440 ;;
  3441                           
  3442                           	psect	text19
  3443  001A06                     __ptext19:
  3444                           	opt stack 0
  3445  001A06                     _PWM2_set_value:
  3446                           	opt stack 30
  3447                           
  3448                           ;PWM.h: 17: TMR2ON = 0;
  3449                           
  3450                           ;incstack = 0
  3451  001A06  94CA               	bcf	4042,2,c	;volatile
  3452                           
  3453                           ;PWM.h: 18: CCPR2L = value >> 2;
  3454  001A08  C03B  F03D         	movff	PWM2_set_value@value,??_PWM2_set_value
  3455  001A0C  C03C  F03E         	movff	PWM2_set_value@value+1,??_PWM2_set_value+1
  3456  001A10  343E               	rlcf	??_PWM2_set_value+1,w,c
  3457  001A12  323E               	rrcf	??_PWM2_set_value+1,f,c
  3458  001A14  323D               	rrcf	??_PWM2_set_value,f,c
  3459  001A16  343E               	rlcf	??_PWM2_set_value+1,w,c
  3460  001A18  323E               	rrcf	??_PWM2_set_value+1,f,c
  3461  001A1A  323D               	rrcf	??_PWM2_set_value,f,c
  3462  001A1C  503D               	movf	??_PWM2_set_value,w,c
  3463  001A1E  010F               	movlb	15	; () banked
  3464  001A20  6F51               	movwf	81,b	;volatile
  3465                           
  3466                           ;PWM.h: 19: DC2B1 = value >> 1;
  3467  001A22  343C               	rlcf	PWM2_set_value@value+1,w,c
  3468  001A24  303C               	rrcf	PWM2_set_value@value+1,w,c
  3469  001A26  6E3E               	movwf	(??_PWM2_set_value+1)& (0+255),c
  3470  001A28  303B               	rrcf	PWM2_set_value@value,w,c
  3471  001A2A  6E3D               	movwf	??_PWM2_set_value& (0+255),c
  3472  001A2C  303D               	rrcf	??_PWM2_set_value,w,c
  3473  001A2E  A0D8               	btfss	status,0,c
  3474  001A30  D003               	goto	u1360
  3475  001A32  010F               	movlb	15	; () banked
  3476  001A34  8B50               	bsf	80,5,b	;volatile
  3477  001A36  D002               	goto	l2359
  3478  001A38                     u1360:
  3479  001A38  010F               	movlb	15	; () banked
  3480  001A3A  9B50               	bcf	80,5,b	;volatile
  3481  001A3C                     l2359:
  3482                           
  3483                           ; BSR set to: 15
  3484                           ;PWM.h: 20: DC2B0 = value &0x1;
  3485  001A3C  A03B               	btfss	PWM2_set_value@value,0,c
  3486  001A3E  D003               	goto	u1380
  3487  001A40  010F               	movlb	15	; () banked
  3488  001A42  8950               	bsf	80,4,b	;volatile
  3489  001A44  D002               	goto	l2361
  3490  001A46                     u1380:
  3491  001A46  010F               	movlb	15	; () banked
  3492  001A48  9950               	bcf	80,4,b	;volatile
  3493  001A4A                     l2361:
  3494                           
  3495                           ; BSR set to: 15
  3496                           ;PWM.h: 21: TMR2ON = 1;
  3497  001A4A  84CA               	bsf	4042,2,c	;volatile
  3498                           
  3499                           ; BSR set to: 15
  3500  001A4C  0012               	return		;funcret
  3501  001A4E                     __end_of_PWM2_set_value:
  3502                           	opt stack 0
  3503                           tblptru	equ	0xFF8
  3504                           tblptrh	equ	0xFF7
  3505                           tblptrl	equ	0xFF6
  3506                           tablat	equ	0xFF5
  3507                           indf0	equ	0xFEF
  3508                           postinc0	equ	0xFEE
  3509                           fsr0h	equ	0xFEA
  3510                           fsr0l	equ	0xFE9
  3511                           wreg	equ	0xFE8
  3512                           postdec1	equ	0xFE5
  3513                           fsr1h	equ	0xFE2
  3514                           fsr1l	equ	0xFE1
  3515                           indf2	equ	0xFDF
  3516                           fsr2h	equ	0xFDA
  3517                           fsr2l	equ	0xFD9
  3518                           status	equ	0xFD8
  3519                           
  3520 ;; *************** function _LCD_init *****************
  3521 ;; Defined at:
  3522 ;;		line 184 in file "ShiftLCD.h"
  3523 ;; Parameters:    Size  Location     Type
  3524 ;;		None
  3525 ;; Auto vars:     Size  Location     Type
  3526 ;;		None
  3527 ;; Return value:  Size  Location     Type
  3528 ;;                  1    wreg      void 
  3529 ;; Registers used:
  3530 ;;		wreg, status,2, status,0, cstack
  3531 ;; Tracked objects:
  3532 ;;		On entry : 0/0
  3533 ;;		On exit  : 0/0
  3534 ;;		Unchanged: 0/0
  3535 ;; Data sizes:     COMRAM   BANK0   BANK1   BANK2   BANK3   BANK4   BANK5   BANK6   BANK7   BANK8   BANK9  BANK10  BANK1
      +1  BANK12  BANK13  BANK14
  3536 ;;      Params:         0       0       0       0       0       0       0       0       0       0       0       0       
      +0       0       0       0
  3537 ;;      Locals:         0       0       0       0       0       0       0       0       0       0       0       0       
      +0       0       0       0
  3538 ;;      Temps:          1       0       0       0       0       0       0       0       0       0       0       0       
      +0       0       0       0
  3539 ;;      Totals:         1       0       0       0       0       0       0       0       0       0       0       0       
      +0       0       0       0
  3540 ;;Total ram usage:        1 bytes
  3541 ;; Hardware stack levels used:    1
  3542 ;; Hardware stack levels required when called:    5
  3543 ;; This function calls:
  3544 ;;		_lcd_clear
  3545 ;;		_lcd_info
  3546 ;;		_shift_reg_set_pin_lcd
  3547 ;; This function is called by:
  3548 ;;		_main
  3549 ;; This function uses a non-reentrant model
  3550 ;;
  3551                           
  3552                           	psect	text20
  3553  001568                     __ptext20:
  3554                           	opt stack 0
  3555  001568                     _LCD_init:
  3556                           	opt stack 25
  3557                           
  3558                           ;ShiftLCD.h: 186: shift_reg_set_pin_lcd(1, 0);
  3559                           
  3560                           ; BSR set to: 15
  3561                           ;incstack = 0
  3562  001568  0E00               	movlw	0
  3563  00156A  6E3F               	movwf	shift_reg_set_pin_lcd@value,c
  3564  00156C  0E01               	movlw	1
  3565  00156E  EC72  F00C         	call	_shift_reg_set_pin_lcd
  3566                           
  3567                           ;ShiftLCD.h: 188: shift_reg_set_pin_lcd(2, 0);
  3568  001572  0E00               	movlw	0
  3569  001574  6E3F               	movwf	shift_reg_set_pin_lcd@value,c
  3570  001576  0E02               	movlw	2
  3571  001578  EC72  F00C         	call	_shift_reg_set_pin_lcd
  3572                           
  3573                           ;ShiftLCD.h: 191: lcd_info(0x02, 2);
  3574  00157C  0E02               	movlw	2
  3575  00157E  6E43               	movwf	lcd_info@data_type,c
  3576  001580  0E02               	movlw	2
  3577  001582  ECC6  F009         	call	_lcd_info
  3578                           
  3579                           ;ShiftLCD.h: 192: _delay((unsigned long)((10)*(16000000UL/4000.0)));
  3580  001586  0E34               	movlw	52
  3581  001588  6E4A               	movwf	??_LCD_init& (0+255),c
  3582  00158A  0EF2               	movlw	242
  3583  00158C                     u1867:
  3584  00158C  2EE8               	decfsz	wreg,f,c
  3585  00158E  D7FE               	goto	u1867
  3586  001590  2E4A               	decfsz	??_LCD_init& (0+255),f,c
  3587  001592  D7FC               	goto	u1867
  3588                           
  3589                           ;ShiftLCD.h: 193: lcd_info(0x28, 2);
  3590  001594  0E02               	movlw	2
  3591  001596  6E43               	movwf	lcd_info@data_type,c
  3592  001598  0E28               	movlw	40
  3593  00159A  ECC6  F009         	call	_lcd_info
  3594                           
  3595                           ;ShiftLCD.h: 194: _delay((unsigned long)((10)*(16000000UL/4000.0)));
  3596  00159E  0E34               	movlw	52
  3597  0015A0  6E4A               	movwf	??_LCD_init& (0+255),c
  3598  0015A2  0EF2               	movlw	242
  3599  0015A4                     u1877:
  3600  0015A4  2EE8               	decfsz	wreg,f,c
  3601  0015A6  D7FE               	goto	u1877
  3602  0015A8  2E4A               	decfsz	??_LCD_init& (0+255),f,c
  3603  0015AA  D7FC               	goto	u1877
  3604                           
  3605                           ;ShiftLCD.h: 196: lcd_info(0x06, 2);
  3606  0015AC  0E02               	movlw	2
  3607  0015AE  6E43               	movwf	lcd_info@data_type,c
  3608  0015B0  0E06               	movlw	6
  3609  0015B2  ECC6  F009         	call	_lcd_info
  3610                           
  3611                           ;ShiftLCD.h: 197: _delay((unsigned long)((2)*(16000000UL/4000.0)));
  3612  0015B6  0E0B               	movlw	11
  3613  0015B8  6E4A               	movwf	??_LCD_init& (0+255),c
  3614  0015BA  0E62               	movlw	98
  3615  0015BC                     u1887:
  3616  0015BC  2EE8               	decfsz	wreg,f,c
  3617  0015BE  D7FE               	goto	u1887
  3618  0015C0  2E4A               	decfsz	??_LCD_init& (0+255),f,c
  3619  0015C2  D7FC               	goto	u1887
  3620  0015C4  D000               	nop2	
  3621                           
  3622                           ;ShiftLCD.h: 199: lcd_info(0x0C, 2);
  3623  0015C6  0E02               	movlw	2
  3624  0015C8  6E43               	movwf	lcd_info@data_type,c
  3625  0015CA  0E0C               	movlw	12
  3626  0015CC  ECC6  F009         	call	_lcd_info
  3627                           
  3628                           ;ShiftLCD.h: 200: _delay((unsigned long)((2)*(16000000UL/4000.0)));
  3629  0015D0  0E0B               	movlw	11
  3630  0015D2  6E4A               	movwf	??_LCD_init& (0+255),c
  3631  0015D4  0E62               	movlw	98
  3632  0015D6                     u1897:
  3633  0015D6  2EE8               	decfsz	wreg,f,c
  3634  0015D8  D7FE               	goto	u1897
  3635  0015DA  2E4A               	decfsz	??_LCD_init& (0+255),f,c
  3636  0015DC  D7FC               	goto	u1897
  3637  0015DE  D000               	nop2	
  3638                           
  3639                           ;ShiftLCD.h: 202: lcd_clear();
  3640  0015E0  ECA3  F00D         	call	_lcd_clear	;wreg free
  3641                           
  3642                           ;ShiftLCD.h: 203: _delay((unsigned long)((2)*(16000000UL/4000.0)));
  3643  0015E4  0E0B               	movlw	11
  3644  0015E6  6E4A               	movwf	??_LCD_init& (0+255),c
  3645  0015E8  0E62               	movlw	98
  3646  0015EA                     u1907:
  3647  0015EA  2EE8               	decfsz	wreg,f,c
  3648  0015EC  D7FE               	goto	u1907
  3649  0015EE  2E4A               	decfsz	??_LCD_init& (0+255),f,c
  3650  0015F0  D7FC               	goto	u1907
  3651  0015F2  D000               	nop2	
  3652                           
  3653                           ;ShiftLCD.h: 205: lcd_info(0x80, 2);
  3654  0015F4  0E02               	movlw	2
  3655  0015F6  6E43               	movwf	lcd_info@data_type,c
  3656  0015F8  0E80               	movlw	128
  3657  0015FA  ECC6  F009         	call	_lcd_info
  3658                           
  3659                           ;ShiftLCD.h: 206: _delay((unsigned long)((10)*(16000000UL/4000.0)));
  3660  0015FE  0E34               	movlw	52
  3661  001600  6E4A               	movwf	??_LCD_init& (0+255),c
  3662  001602  0EF2               	movlw	242
  3663  001604                     u1917:
  3664  001604  2EE8               	decfsz	wreg,f,c
  3665  001606  D7FE               	goto	u1917
  3666  001608  2E4A               	decfsz	??_LCD_init& (0+255),f,c
  3667  00160A  D7FC               	goto	u1917
  3668  00160C  0012               	return		;funcret
  3669  00160E                     __end_of_LCD_init:
  3670                           	opt stack 0
  3671                           tblptru	equ	0xFF8
  3672                           tblptrh	equ	0xFF7
  3673                           tblptrl	equ	0xFF6
  3674                           tablat	equ	0xFF5
  3675                           indf0	equ	0xFEF
  3676                           postinc0	equ	0xFEE
  3677                           fsr0h	equ	0xFEA
  3678                           fsr0l	equ	0xFE9
  3679                           wreg	equ	0xFE8
  3680                           postdec1	equ	0xFE5
  3681                           fsr1h	equ	0xFE2
  3682                           fsr1l	equ	0xFE1
  3683                           indf2	equ	0xFDF
  3684                           fsr2h	equ	0xFDA
  3685                           fsr2l	equ	0xFD9
  3686                           status	equ	0xFD8
  3687                           
  3688 ;; *************** function _lcd_clear *****************
  3689 ;; Defined at:
  3690 ;;		line 156 in file "ShiftLCD.h"
  3691 ;; Parameters:    Size  Location     Type
  3692 ;;		None
  3693 ;; Auto vars:     Size  Location     Type
  3694 ;;		None
  3695 ;; Return value:  Size  Location     Type
  3696 ;;                  1    wreg      void 
  3697 ;; Registers used:
  3698 ;;		wreg, status,2, status,0, cstack
  3699 ;; Tracked objects:
  3700 ;;		On entry : 0/0
  3701 ;;		On exit  : 0/0
  3702 ;;		Unchanged: 0/0
  3703 ;; Data sizes:     COMRAM   BANK0   BANK1   BANK2   BANK3   BANK4   BANK5   BANK6   BANK7   BANK8   BANK9  BANK10  BANK1
      +1  BANK12  BANK13  BANK14
  3704 ;;      Params:         0       0       0       0       0       0       0       0       0       0       0       0       
      +0       0       0       0
  3705 ;;      Locals:         0       0       0       0       0       0       0       0       0       0       0       0       
      +0       0       0       0
  3706 ;;      Temps:          1       0       0       0       0       0       0       0       0       0       0       0       
      +0       0       0       0
  3707 ;;      Totals:         1       0       0       0       0       0       0       0       0       0       0       0       
      +0       0       0       0
  3708 ;;Total ram usage:        1 bytes
  3709 ;; Hardware stack levels used:    1
  3710 ;; Hardware stack levels required when called:    4
  3711 ;; This function calls:
  3712 ;;		_lcd_goto
  3713 ;;		_lcd_info
  3714 ;; This function is called by:
  3715 ;;		_LCD_init
  3716 ;;		_main
  3717 ;; This function uses a non-reentrant model
  3718 ;;
  3719                           
  3720                           	psect	text21
  3721  001B46                     __ptext21:
  3722                           	opt stack 0
  3723  001B46                     _lcd_clear:
  3724                           	opt stack 26
  3725                           
  3726                           ;ShiftLCD.h: 159: _y = 1; _x = 1;
  3727                           
  3728                           ;incstack = 0
  3729  001B46  0E01               	movlw	1
  3730  001B48  6E5E               	movwf	__y,c
  3731  001B4A  0E01               	movlw	1
  3732  001B4C  6E5D               	movwf	__x,c
  3733                           
  3734                           ;ShiftLCD.h: 160: lcd_info(0x01, 2);
  3735  001B4E  0E02               	movlw	2
  3736  001B50  6E43               	movwf	lcd_info@data_type,c
  3737  001B52  0E01               	movlw	1
  3738  001B54  ECC6  F009         	call	_lcd_info
  3739                           
  3740                           ;ShiftLCD.h: 161: _delay((unsigned long)((2)*(16000000UL/4000.0)));
  3741  001B58  0E0B               	movlw	11
  3742  001B5A  6E49               	movwf	??_lcd_clear& (0+255),c
  3743  001B5C  0E62               	movlw	98
  3744  001B5E                     u1927:
  3745  001B5E  2EE8               	decfsz	wreg,f,c
  3746  001B60  D7FE               	goto	u1927
  3747  001B62  2E49               	decfsz	??_lcd_clear& (0+255),f,c
  3748  001B64  D7FC               	goto	u1927
  3749  001B66  D000               	nop2	
  3750                           
  3751                           ;ShiftLCD.h: 162: lcd_goto(_y, _x);
  3752  001B68  C05D  F046         	movff	__x,lcd_goto@p_2
  3753  001B6C  505E               	movf	__y,w,c
  3754  001B6E  EC69  F00D         	call	_lcd_goto
  3755  001B72  0012               	return		;funcret
  3756  001B74                     __end_of_lcd_clear:
  3757                           	opt stack 0
  3758                           tblptru	equ	0xFF8
  3759                           tblptrh	equ	0xFF7
  3760                           tblptrl	equ	0xFF6
  3761                           tablat	equ	0xFF5
  3762                           indf0	equ	0xFEF
  3763                           postinc0	equ	0xFEE
  3764                           fsr0h	equ	0xFEA
  3765                           fsr0l	equ	0xFE9
  3766                           wreg	equ	0xFE8
  3767                           postdec1	equ	0xFE5
  3768                           fsr1h	equ	0xFE2
  3769                           fsr1l	equ	0xFE1
  3770                           indf2	equ	0xFDF
  3771                           fsr2h	equ	0xFDA
  3772                           fsr2l	equ	0xFD9
  3773                           status	equ	0xFD8
  3774                           
  3775 ;; *************** function _lcd_goto *****************
  3776 ;; Defined at:
  3777 ;;		line 171 in file "ShiftLCD.h"
  3778 ;; Parameters:    Size  Location     Type
  3779 ;;  p_1             1    wreg     unsigned char 
  3780 ;;  p_2             1   11[COMRAM] unsigned char 
  3781 ;; Auto vars:     Size  Location     Type
  3782 ;;  p_1             1   13[COMRAM] unsigned char 
  3783 ;; Return value:  Size  Location     Type
  3784 ;;                  1    wreg      void 
  3785 ;; Registers used:
  3786 ;;		wreg, status,2, status,0, cstack
  3787 ;; Tracked objects:
  3788 ;;		On entry : 0/0
  3789 ;;		On exit  : 0/0
  3790 ;;		Unchanged: 0/0
  3791 ;; Data sizes:     COMRAM   BANK0   BANK1   BANK2   BANK3   BANK4   BANK5   BANK6   BANK7   BANK8   BANK9  BANK10  BANK1
      +1  BANK12  BANK13  BANK14
  3792 ;;      Params:         1       0       0       0       0       0       0       0       0       0       0       0       
      +0       0       0       0
  3793 ;;      Locals:         1       0       0       0       0       0       0       0       0       0       0       0       
      +0       0       0       0
  3794 ;;      Temps:          1       0       0       0       0       0       0       0       0       0       0       0       
      +0       0       0       0
  3795 ;;      Totals:         3       0       0       0       0       0       0       0       0       0       0       0       
      +0       0       0       0
  3796 ;;Total ram usage:        3 bytes
  3797 ;; Hardware stack levels used:    1
  3798 ;; Hardware stack levels required when called:    3
  3799 ;; This function calls:
  3800 ;;		_lcd_info
  3801 ;; This function is called by:
  3802 ;;		_lcd_clear
  3803 ;;		_lcd_yaz
  3804 ;; This function uses a non-reentrant model
  3805 ;;
  3806                           
  3807                           	psect	text22
  3808  001AD2                     __ptext22:
  3809                           	opt stack 0
  3810  001AD2                     _lcd_goto:
  3811                           	opt stack 24
  3812                           
  3813                           ;incstack = 0
  3814                           ;lcd_goto@p_1 stored from wreg
  3815  001AD2  6E48               	movwf	lcd_goto@p_1,c
  3816                           
  3817                           ;ShiftLCD.h: 173: _y = p_1;
  3818  001AD4  C048  F05E         	movff	lcd_goto@p_1,__y
  3819                           
  3820                           ;ShiftLCD.h: 174: _x = p_2;
  3821  001AD8  C046  F05D         	movff	lcd_goto@p_2,__x
  3822                           
  3823                           ;ShiftLCD.h: 175: if(p_1==1)
  3824  001ADC  0448               	decf	lcd_goto@p_1,w,c
  3825  001ADE  A4D8               	btfss	status,2,c
  3826  001AE0  D008               	goto	l2235
  3827                           
  3828                           ;ShiftLCD.h: 176: {lcd_info(0x80+((p_2-1)%16), 2);
  3829  001AE2  0E02               	movlw	2
  3830  001AE4  6E43               	movwf	lcd_info@data_type,c
  3831  001AE6  0446               	decf	lcd_goto@p_2,w,c
  3832  001AE8  0B0F               	andlw	15
  3833  001AEA  0F80               	addlw	128
  3834  001AEC  ECC6  F009         	call	_lcd_info
  3835                           
  3836                           ;ShiftLCD.h: 177: }else{
  3837  001AF0  D007               	goto	l2237
  3838  001AF2                     l2235:
  3839                           
  3840                           ;ShiftLCD.h: 178: lcd_info(0xC0+((p_2-1)%16), 2);
  3841  001AF2  0E02               	movlw	2
  3842  001AF4  6E43               	movwf	lcd_info@data_type,c
  3843  001AF6  0446               	decf	lcd_goto@p_2,w,c
  3844  001AF8  0B0F               	andlw	15
  3845  001AFA  0FC0               	addlw	192
  3846  001AFC  ECC6  F009         	call	_lcd_info
  3847  001B00                     l2237:
  3848                           
  3849                           ;ShiftLCD.h: 179: }
  3850                           ;ShiftLCD.h: 180: _delay((unsigned long)((1)*(16000000UL/4000.0)));
  3851  001B00  0E06               	movlw	6
  3852  001B02  6E47               	movwf	??_lcd_goto& (0+255),c
  3853  001B04  0E30               	movlw	48
  3854  001B06                     u1937:
  3855  001B06  2EE8               	decfsz	wreg,f,c
  3856  001B08  D7FE               	goto	u1937
  3857  001B0A  2E47               	decfsz	??_lcd_goto& (0+255),f,c
  3858  001B0C  D7FC               	goto	u1937
  3859  001B0E  D000               	nop2	
  3860  001B10  0012               	return		;funcret
  3861  001B12                     __end_of_lcd_goto:
  3862                           	opt stack 0
  3863                           tblptru	equ	0xFF8
  3864                           tblptrh	equ	0xFF7
  3865                           tblptrl	equ	0xFF6
  3866                           tablat	equ	0xFF5
  3867                           indf0	equ	0xFEF
  3868                           postinc0	equ	0xFEE
  3869                           fsr0h	equ	0xFEA
  3870                           fsr0l	equ	0xFE9
  3871                           wreg	equ	0xFE8
  3872                           postdec1	equ	0xFE5
  3873                           fsr1h	equ	0xFE2
  3874                           fsr1l	equ	0xFE1
  3875                           indf2	equ	0xFDF
  3876                           fsr2h	equ	0xFDA
  3877                           fsr2l	equ	0xFD9
  3878                           status	equ	0xFD8
  3879                           
  3880 ;; *************** function _lcd_info *****************
  3881 ;; Defined at:
  3882 ;;		line 115 in file "ShiftLCD.h"
  3883 ;; Parameters:    Size  Location     Type
  3884 ;;  c               1    wreg     unsigned char 
  3885 ;;  data_type       1    8[COMRAM] unsigned char 
  3886 ;; Auto vars:     Size  Location     Type
  3887 ;;  c               1   10[COMRAM] unsigned char 
  3888 ;; Return value:  Size  Location     Type
  3889 ;;                  1    wreg      void 
  3890 ;; Registers used:
  3891 ;;		wreg, status,2, status,0, cstack
  3892 ;; Tracked objects:
  3893 ;;		On entry : 0/0
  3894 ;;		On exit  : 0/0
  3895 ;;		Unchanged: 0/0
  3896 ;; Data sizes:     COMRAM   BANK0   BANK1   BANK2   BANK3   BANK4   BANK5   BANK6   BANK7   BANK8   BANK9  BANK10  BANK1
      +1  BANK12  BANK13  BANK14
  3897 ;;      Params:         1       0       0       0       0       0       0       0       0       0       0       0       
      +0       0       0       0
  3898 ;;      Locals:         1       0       0       0       0       0       0       0       0       0       0       0       
      +0       0       0       0
  3899 ;;      Temps:          1       0       0       0       0       0       0       0       0       0       0       0       
      +0       0       0       0
  3900 ;;      Totals:         3       0       0       0       0       0       0       0       0       0       0       0       
      +0       0       0       0
  3901 ;;Total ram usage:        3 bytes
  3902 ;; Hardware stack levels used:    1
  3903 ;; Hardware stack levels required when called:    2
  3904 ;; This function calls:
  3905 ;;		_shift_reg_set_pin_lcd
  3906 ;; This function is called by:
  3907 ;;		_lcd_clear
  3908 ;;		_lcd_goto
  3909 ;;		_LCD_init
  3910 ;;		_lcd_yaz
  3911 ;; This function uses a non-reentrant model
  3912 ;;
  3913                           
  3914                           	psect	text23
  3915  00138C                     __ptext23:
  3916                           	opt stack 0
  3917  00138C                     _lcd_info:
  3918                           	opt stack 25
  3919                           
  3920                           ;incstack = 0
  3921                           ;lcd_info@c stored from wreg
  3922  00138C  6E45               	movwf	lcd_info@c,c
  3923                           
  3924                           ;ShiftLCD.h: 117: if(data_type == 2)
  3925  00138E  0E02               	movlw	2
  3926  001390  1843               	xorwf	lcd_info@data_type,w,c
  3927  001392  A4D8               	btfss	status,2,c
  3928  001394  D006               	goto	l2201
  3929                           
  3930                           ;ShiftLCD.h: 118: shift_reg_set_pin_lcd(1, 0);
  3931  001396  0E00               	movlw	0
  3932  001398  6E3F               	movwf	shift_reg_set_pin_lcd@value,c
  3933  00139A  0E01               	movlw	1
  3934  00139C  EC72  F00C         	call	_shift_reg_set_pin_lcd
  3935  0013A0  D005               	goto	l358
  3936  0013A2                     l2201:
  3937                           
  3938                           ;ShiftLCD.h: 119: else shift_reg_set_pin_lcd(1, 1);
  3939  0013A2  0E01               	movlw	1
  3940  0013A4  6E3F               	movwf	shift_reg_set_pin_lcd@value,c
  3941  0013A6  0E01               	movlw	1
  3942  0013A8  EC72  F00C         	call	_shift_reg_set_pin_lcd
  3943  0013AC                     l358:
  3944                           
  3945                           ;ShiftLCD.h: 121: shift_reg_set_pin_lcd(2, 1);
  3946  0013AC  0E01               	movlw	1
  3947  0013AE  6E3F               	movwf	shift_reg_set_pin_lcd@value,c
  3948  0013B0  0E02               	movlw	2
  3949  0013B2  EC72  F00C         	call	_shift_reg_set_pin_lcd
  3950                           
  3951                           ;ShiftLCD.h: 125: _temp_ = c&0xF0 ;
  3952  0013B6  5045               	movf	lcd_info@c,w,c
  3953  0013B8  0BF0               	andlw	240
  3954  0013BA  6E26               	movwf	__temp_,c
  3955                           
  3956                           ;ShiftLCD.h: 126: shift_reg_set_pin_lcd(6, (_temp_ >> 7)&0x1);
  3957  0013BC  4426               	rlncf	__temp_,w,c
  3958  0013BE  0B01               	andlw	1
  3959  0013C0  6E3F               	movwf	shift_reg_set_pin_lcd@value,c
  3960  0013C2  0E06               	movlw	6
  3961  0013C4  EC72  F00C         	call	_shift_reg_set_pin_lcd
  3962                           
  3963                           ;ShiftLCD.h: 127: shift_reg_set_pin_lcd(5, (_temp_ >> 6)&0x1);
  3964  0013C8  4426               	rlncf	__temp_,w,c
  3965  0013CA  46E8               	rlncf	wreg,f,c
  3966  0013CC  0B03               	andlw	3
  3967  0013CE  0B01               	andlw	1
  3968  0013D0  6E3F               	movwf	shift_reg_set_pin_lcd@value,c
  3969  0013D2  0E05               	movlw	5
  3970  0013D4  EC72  F00C         	call	_shift_reg_set_pin_lcd
  3971                           
  3972                           ;ShiftLCD.h: 128: shift_reg_set_pin_lcd(4, (_temp_ >> 5)&0x1);
  3973  0013D8  3826               	swapf	__temp_,w,c
  3974  0013DA  42E8               	rrncf	wreg,f,c
  3975  0013DC  0B07               	andlw	7
  3976  0013DE  0B01               	andlw	1
  3977  0013E0  6E3F               	movwf	shift_reg_set_pin_lcd@value,c
  3978  0013E2  0E04               	movlw	4
  3979  0013E4  EC72  F00C         	call	_shift_reg_set_pin_lcd
  3980                           
  3981                           ;ShiftLCD.h: 129: shift_reg_set_pin_lcd(3, (_temp_ >> 4)&0x1);
  3982  0013E8  3826               	swapf	__temp_,w,c
  3983  0013EA  0B0F               	andlw	15
  3984  0013EC  0B01               	andlw	1
  3985  0013EE  6E3F               	movwf	shift_reg_set_pin_lcd@value,c
  3986  0013F0  0E03               	movlw	3
  3987  0013F2  EC72  F00C         	call	_shift_reg_set_pin_lcd
  3988                           
  3989                           ;ShiftLCD.h: 132: _delay((unsigned long)((4)*(16000000UL/4000.0)));
  3990  0013F6  0E15               	movlw	21
  3991  0013F8  6E44               	movwf	??_lcd_info& (0+255),c
  3992  0013FA  0EC6               	movlw	198
  3993  0013FC                     u1947:
  3994  0013FC  2EE8               	decfsz	wreg,f,c
  3995  0013FE  D7FE               	goto	u1947
  3996  001400  2E44               	decfsz	??_lcd_info& (0+255),f,c
  3997  001402  D7FC               	goto	u1947
  3998  001404  D000               	nop2	
  3999                           
  4000                           ;ShiftLCD.h: 133: shift_reg_set_pin_lcd(2, 0);
  4001  001406  0E00               	movlw	0
  4002  001408  6E3F               	movwf	shift_reg_set_pin_lcd@value,c
  4003  00140A  0E02               	movlw	2
  4004  00140C  EC72  F00C         	call	_shift_reg_set_pin_lcd
  4005                           
  4006                           ;ShiftLCD.h: 136: _delay((unsigned long)((4)*(16000000UL/4000.0)));
  4007  001410  0E15               	movlw	21
  4008  001412  6E44               	movwf	??_lcd_info& (0+255),c
  4009  001414  0EC6               	movlw	198
  4010  001416                     u1957:
  4011  001416  2EE8               	decfsz	wreg,f,c
  4012  001418  D7FE               	goto	u1957
  4013  00141A  2E44               	decfsz	??_lcd_info& (0+255),f,c
  4014  00141C  D7FC               	goto	u1957
  4015  00141E  D000               	nop2	
  4016                           
  4017                           ;ShiftLCD.h: 137: shift_reg_set_pin_lcd(2, 1);
  4018  001420  0E01               	movlw	1
  4019  001422  6E3F               	movwf	shift_reg_set_pin_lcd@value,c
  4020  001424  0E02               	movlw	2
  4021  001426  EC72  F00C         	call	_shift_reg_set_pin_lcd
  4022                           
  4023                           ;ShiftLCD.h: 139: _temp_ = ((c & 0x0F)<<4) ;
  4024  00142A  C045  F044         	movff	lcd_info@c,??_lcd_info
  4025  00142E  0E0F               	movlw	15
  4026  001430  1644               	andwf	??_lcd_info,f,c
  4027  001432  3844               	swapf	??_lcd_info,w,c
  4028  001434  0BF0               	andlw	240
  4029  001436  6E26               	movwf	__temp_,c
  4030                           
  4031                           ;ShiftLCD.h: 141: shift_reg_set_pin_lcd(6, (_temp_ >> 7)&0x1);
  4032  001438  4426               	rlncf	__temp_,w,c
  4033  00143A  0B01               	andlw	1
  4034  00143C  6E3F               	movwf	shift_reg_set_pin_lcd@value,c
  4035  00143E  0E06               	movlw	6
  4036  001440  EC72  F00C         	call	_shift_reg_set_pin_lcd
  4037                           
  4038                           ;ShiftLCD.h: 142: shift_reg_set_pin_lcd(5, (_temp_ >> 6)&0x1);
  4039  001444  4426               	rlncf	__temp_,w,c
  4040  001446  46E8               	rlncf	wreg,f,c
  4041  001448  0B03               	andlw	3
  4042  00144A  0B01               	andlw	1
  4043  00144C  6E3F               	movwf	shift_reg_set_pin_lcd@value,c
  4044  00144E  0E05               	movlw	5
  4045  001450  EC72  F00C         	call	_shift_reg_set_pin_lcd
  4046                           
  4047                           ;ShiftLCD.h: 143: shift_reg_set_pin_lcd(4, (_temp_ >> 5)&0x1);
  4048  001454  3826               	swapf	__temp_,w,c
  4049  001456  42E8               	rrncf	wreg,f,c
  4050  001458  0B07               	andlw	7
  4051  00145A  0B01               	andlw	1
  4052  00145C  6E3F               	movwf	shift_reg_set_pin_lcd@value,c
  4053  00145E  0E04               	movlw	4
  4054  001460  EC72  F00C         	call	_shift_reg_set_pin_lcd
  4055                           
  4056                           ;ShiftLCD.h: 144: shift_reg_set_pin_lcd(3, (_temp_ >> 4)&0x1);
  4057  001464  3826               	swapf	__temp_,w,c
  4058  001466  0B0F               	andlw	15
  4059  001468  0B01               	andlw	1
  4060  00146A  6E3F               	movwf	shift_reg_set_pin_lcd@value,c
  4061  00146C  0E03               	movlw	3
  4062  00146E  EC72  F00C         	call	_shift_reg_set_pin_lcd
  4063                           
  4064                           ;ShiftLCD.h: 149: _delay((unsigned long)((4)*(16000000UL/4000.0)));
  4065  001472  0E15               	movlw	21
  4066  001474  6E44               	movwf	??_lcd_info& (0+255),c
  4067  001476  0EC6               	movlw	198
  4068  001478                     u1967:
  4069  001478  2EE8               	decfsz	wreg,f,c
  4070  00147A  D7FE               	goto	u1967
  4071  00147C  2E44               	decfsz	??_lcd_info& (0+255),f,c
  4072  00147E  D7FC               	goto	u1967
  4073  001480  D000               	nop2	
  4074                           
  4075                           ;ShiftLCD.h: 150: shift_reg_set_pin_lcd(2, 0);
  4076  001482  0E00               	movlw	0
  4077  001484  6E3F               	movwf	shift_reg_set_pin_lcd@value,c
  4078  001486  0E02               	movlw	2
  4079  001488  EC72  F00C         	call	_shift_reg_set_pin_lcd
  4080                           
  4081                           ;ShiftLCD.h: 153: _delay((unsigned long)((10)*(16000000UL/4000.0)));
  4082  00148C  0E34               	movlw	52
  4083  00148E  6E44               	movwf	??_lcd_info& (0+255),c
  4084  001490  0EF2               	movlw	242
  4085  001492                     u1977:
  4086  001492  2EE8               	decfsz	wreg,f,c
  4087  001494  D7FE               	goto	u1977
  4088  001496  2E44               	decfsz	??_lcd_info& (0+255),f,c
  4089  001498  D7FC               	goto	u1977
  4090  00149A  0012               	return		;funcret
  4091  00149C                     __end_of_lcd_info:
  4092                           	opt stack 0
  4093                           tblptru	equ	0xFF8
  4094                           tblptrh	equ	0xFF7
  4095                           tblptrl	equ	0xFF6
  4096                           tablat	equ	0xFF5
  4097                           indf0	equ	0xFEF
  4098                           postinc0	equ	0xFEE
  4099                           fsr0h	equ	0xFEA
  4100                           fsr0l	equ	0xFE9
  4101                           wreg	equ	0xFE8
  4102                           postdec1	equ	0xFE5
  4103                           fsr1h	equ	0xFE2
  4104                           fsr1l	equ	0xFE1
  4105                           indf2	equ	0xFDF
  4106                           fsr2h	equ	0xFDA
  4107                           fsr2l	equ	0xFD9
  4108                           status	equ	0xFD8
  4109                           
  4110 ;; *************** function _shift_reg_set_pin_lcd *****************
  4111 ;; Defined at:
  4112 ;;		line 41 in file "ShiftLCD.h"
  4113 ;; Parameters:    Size  Location     Type
  4114 ;;  pin_number      1    wreg     unsigned char 
  4115 ;;  value           1    4[COMRAM] unsigned char 
  4116 ;; Auto vars:     Size  Location     Type
  4117 ;;  pin_number      1    7[COMRAM] unsigned char 
  4118 ;; Return value:  Size  Location     Type
  4119 ;;                  1    wreg      void 
  4120 ;; Registers used:
  4121 ;;		wreg, status,2, status,0, cstack
  4122 ;; Tracked objects:
  4123 ;;		On entry : 0/0
  4124 ;;		On exit  : 0/0
  4125 ;;		Unchanged: 0/0
  4126 ;; Data sizes:     COMRAM   BANK0   BANK1   BANK2   BANK3   BANK4   BANK5   BANK6   BANK7   BANK8   BANK9  BANK10  BANK1
      +1  BANK12  BANK13  BANK14
  4127 ;;      Params:         1       0       0       0       0       0       0       0       0       0       0       0       
      +0       0       0       0
  4128 ;;      Locals:         1       0       0       0       0       0       0       0       0       0       0       0       
      +0       0       0       0
  4129 ;;      Temps:          2       0       0       0       0       0       0       0       0       0       0       0       
      +0       0       0       0
  4130 ;;      Totals:         4       0       0       0       0       0       0       0       0       0       0       0       
      +0       0       0       0
  4131 ;;Total ram usage:        4 bytes
  4132 ;; Hardware stack levels used:    1
  4133 ;; Hardware stack levels required when called:    1
  4134 ;; This function calls:
  4135 ;;		_load_shift_data_lcd
  4136 ;; This function is called by:
  4137 ;;		_lcd_info
  4138 ;;		_LCD_init
  4139 ;; This function uses a non-reentrant model
  4140 ;;
  4141                           
  4142                           	psect	text24
  4143  0018E4                     __ptext24:
  4144                           	opt stack 0
  4145  0018E4                     _shift_reg_set_pin_lcd:
  4146                           	opt stack 25
  4147                           
  4148                           ;incstack = 0
  4149                           ;shift_reg_set_pin_lcd@pin_number stored from wreg
  4150  0018E4  6E42               	movwf	shift_reg_set_pin_lcd@pin_number,c
  4151                           
  4152                           ;ShiftLCD.h: 43: value = value & 0x1;
  4153  0018E6  503F               	movf	shift_reg_set_pin_lcd@value,w,c
  4154  0018E8  0B01               	andlw	1
  4155  0018EA  6E3F               	movwf	shift_reg_set_pin_lcd@value,c
  4156                           
  4157                           ;ShiftLCD.h: 44: if(value)
  4158  0018EC  503F               	movf	shift_reg_set_pin_lcd@value,w,c
  4159  0018EE  B4D8               	btfsc	status,2,c
  4160  0018F0  D00D               	goto	l2193
  4161                           
  4162                           ;ShiftLCD.h: 45: {
  4163                           ;ShiftLCD.h: 46: current_value_lcd |= 1 <<pin_number;
  4164  0018F2  C042  F040         	movff	shift_reg_set_pin_lcd@pin_number,??_shift_reg_set_pin_lcd
  4165  0018F6  0E01               	movlw	1
  4166  0018F8  6E41               	movwf	(??_shift_reg_set_pin_lcd+1)& (0+255),c
  4167  0018FA  2A40               	incf	??_shift_reg_set_pin_lcd,f,c
  4168  0018FC  D002               	goto	u1174
  4169  0018FE                     u1175:
  4170  0018FE  90D8               	bcf	status,0,c
  4171  001900  3641               	rlcf	??_shift_reg_set_pin_lcd+1,f,c
  4172  001902                     u1174:
  4173  001902  2E40               	decfsz	??_shift_reg_set_pin_lcd,f,c
  4174  001904  D7FC               	goto	u1175
  4175  001906  5041               	movf	??_shift_reg_set_pin_lcd+1,w,c
  4176  001908  1228               	iorwf	_current_value_lcd,f,c
  4177                           
  4178                           ;ShiftLCD.h: 47: }
  4179  00190A  D00D               	goto	l2195
  4180  00190C                     l2193:
  4181                           
  4182                           ;ShiftLCD.h: 48: else
  4183                           ;ShiftLCD.h: 49: {
  4184                           ;ShiftLCD.h: 50: current_value_lcd &= ~(1<<pin_number);
  4185  00190C  C042  F040         	movff	shift_reg_set_pin_lcd@pin_number,??_shift_reg_set_pin_lcd
  4186  001910  0E01               	movlw	1
  4187  001912  6E41               	movwf	(??_shift_reg_set_pin_lcd+1)& (0+255),c
  4188  001914  2A40               	incf	??_shift_reg_set_pin_lcd,f,c
  4189  001916  D002               	goto	u1184
  4190  001918                     u1185:
  4191  001918  90D8               	bcf	status,0,c
  4192  00191A  3641               	rlcf	??_shift_reg_set_pin_lcd+1,f,c
  4193  00191C                     u1184:
  4194  00191C  2E40               	decfsz	??_shift_reg_set_pin_lcd,f,c
  4195  00191E  D7FC               	goto	u1185
  4196  001920  5041               	movf	??_shift_reg_set_pin_lcd+1,w,c
  4197  001922  0AFF               	xorlw	255
  4198  001924  1628               	andwf	_current_value_lcd,f,c
  4199  001926                     l2195:
  4200                           
  4201                           ;ShiftLCD.h: 51: }
  4202                           ;ShiftLCD.h: 53: load_shift_data_lcd(current_value_lcd);
  4203  001926  5028               	movf	_current_value_lcd,w,c
  4204  001928  ECF8  F00B         	call	_load_shift_data_lcd
  4205  00192C  0012               	return		;funcret
  4206  00192E                     __end_of_shift_reg_set_pin_lcd:
  4207                           	opt stack 0
  4208                           tblptru	equ	0xFF8
  4209                           tblptrh	equ	0xFF7
  4210                           tblptrl	equ	0xFF6
  4211                           tablat	equ	0xFF5
  4212                           indf0	equ	0xFEF
  4213                           postinc0	equ	0xFEE
  4214                           fsr0h	equ	0xFEA
  4215                           fsr0l	equ	0xFE9
  4216                           wreg	equ	0xFE8
  4217                           postdec1	equ	0xFE5
  4218                           fsr1h	equ	0xFE2
  4219                           fsr1l	equ	0xFE1
  4220                           indf2	equ	0xFDF
  4221                           fsr2h	equ	0xFDA
  4222                           fsr2l	equ	0xFD9
  4223                           status	equ	0xFD8
  4224                           
  4225 ;; *************** function _load_shift_data_lcd *****************
  4226 ;; Defined at:
  4227 ;;		line 21 in file "ShiftLCD.h"
  4228 ;; Parameters:    Size  Location     Type
  4229 ;;  data            1    wreg     unsigned char 
  4230 ;; Auto vars:     Size  Location     Type
  4231 ;;  data            1    2[COMRAM] unsigned char 
  4232 ;;  a               1    3[COMRAM] char 
  4233 ;; Return value:  Size  Location     Type
  4234 ;;                  1    wreg      void 
  4235 ;; Registers used:
  4236 ;;		wreg, status,2, status,0
  4237 ;; Tracked objects:
  4238 ;;		On entry : 0/0
  4239 ;;		On exit  : 0/0
  4240 ;;		Unchanged: 0/0
  4241 ;; Data sizes:     COMRAM   BANK0   BANK1   BANK2   BANK3   BANK4   BANK5   BANK6   BANK7   BANK8   BANK9  BANK10  BANK1
      +1  BANK12  BANK13  BANK14
  4242 ;;      Params:         0       0       0       0       0       0       0       0       0       0       0       0       
      +0       0       0       0
  4243 ;;      Locals:         2       0       0       0       0       0       0       0       0       0       0       0       
      +0       0       0       0
  4244 ;;      Temps:          2       0       0       0       0       0       0       0       0       0       0       0       
      +0       0       0       0
  4245 ;;      Totals:         4       0       0       0       0       0       0       0       0       0       0       0       
      +0       0       0       0
  4246 ;;Total ram usage:        4 bytes
  4247 ;; Hardware stack levels used:    1
  4248 ;; This function calls:
  4249 ;;		Nothing
  4250 ;; This function is called by:
  4251 ;;		_shift_reg_set_pin_lcd
  4252 ;; This function uses a non-reentrant model
  4253 ;;
  4254                           
  4255                           	psect	text25
  4256  0017F0                     __ptext25:
  4257                           	opt stack 0
  4258  0017F0                     _load_shift_data_lcd:
  4259                           	opt stack 25
  4260                           
  4261                           ;incstack = 0
  4262                           ;load_shift_data_lcd@data stored from wreg
  4263  0017F0  6E3D               	movwf	load_shift_data_lcd@data,c
  4264                           
  4265                           ;ShiftLCD.h: 23: for(signed char a = 7; a > -1;a--)
  4266  0017F2  0E07               	movlw	7
  4267  0017F4  6E3E               	movwf	load_shift_data_lcd@a,c
  4268  0017F6                     l1263:
  4269  0017F6  BE3E               	btfsc	load_shift_data_lcd@a,7,c
  4270  0017F8  D01C               	goto	l332
  4271                           
  4272                           ;ShiftLCD.h: 24: {
  4273                           ;ShiftLCD.h: 25: RF4 = (data>>a)&0x1;
  4274  0017FA  C03E  F03B         	movff	load_shift_data_lcd@a,??_load_shift_data_lcd
  4275  0017FE  C03D  F03C         	movff	load_shift_data_lcd@data,??_load_shift_data_lcd+1
  4276  001802  2A3B               	incf	??_load_shift_data_lcd,f,c
  4277  001804  D002               	goto	u24
  4278  001806                     u25:
  4279  001806  90D8               	bcf	status,0,c
  4280  001808  323C               	rrcf	??_load_shift_data_lcd+1,f,c
  4281  00180A                     u24:
  4282  00180A  2E3B               	decfsz	??_load_shift_data_lcd,f,c
  4283  00180C  D7FC               	goto	u25
  4284  00180E  303C               	rrcf	??_load_shift_data_lcd+1,w,c
  4285  001810  A0D8               	btfss	status,0,c
  4286  001812  D002               	goto	u30
  4287  001814  8885               	bsf	3973,4,c	;volatile
  4288  001816  D001               	goto	l1269
  4289  001818                     u30:
  4290  001818  9885               	bcf	3973,4,c	;volatile
  4291  00181A                     l1269:
  4292                           
  4293                           ;ShiftLCD.h: 26: _delay((unsigned long)((1)*(16000000UL/4000000.0)));
  4294  00181A  D000               	nop2		;2 cycle nop
  4295  00181C  D000               	nop2		;2 cycle nop
  4296                           
  4297                           ;ShiftLCD.h: 27: RF3 =1;
  4298  00181E  8685               	bsf	3973,3,c	;volatile
  4299                           
  4300                           ;ShiftLCD.h: 28: _delay((unsigned long)((3)*(16000000UL/4000000.0)));
  4301  001820  0E04               	movlw	4
  4302  001822                     u1987:
  4303  001822  2EE8               	decfsz	wreg,f,c
  4304  001824  D7FE               	goto	u1987
  4305                           
  4306                           ;ShiftLCD.h: 29: RF3 = 0;
  4307  001826  9685               	bcf	3973,3,c	;volatile
  4308                           
  4309                           ;ShiftLCD.h: 30: _delay((unsigned long)((3)*(16000000UL/4000000.0)));
  4310  001828  0E04               	movlw	4
  4311  00182A                     u1997:
  4312  00182A  2EE8               	decfsz	wreg,f,c
  4313  00182C  D7FE               	goto	u1997
  4314  00182E  063E               	decf	load_shift_data_lcd@a,f,c
  4315  001830  D7E2               	goto	l1263
  4316  001832                     l332:
  4317                           
  4318                           ;ShiftLCD.h: 32: }
  4319                           ;ShiftLCD.h: 34: RF5 = 1;
  4320  001832  8A85               	bsf	3973,5,c	;volatile
  4321                           
  4322                           ;ShiftLCD.h: 35: _delay((unsigned long)((3)*(16000000UL/4000000.0)));
  4323  001834  0E04               	movlw	4
  4324  001836                     u2007:
  4325  001836  2EE8               	decfsz	wreg,f,c
  4326  001838  D7FE               	goto	u2007
  4327                           
  4328                           ;ShiftLCD.h: 36: RF5 = 0;
  4329  00183A  9A85               	bcf	3973,5,c	;volatile
  4330                           
  4331                           ;ShiftLCD.h: 37: _delay((unsigned long)((3)*(16000000UL/4000000.0)));
  4332  00183C  0E04               	movlw	4
  4333  00183E                     u2017:
  4334  00183E  2EE8               	decfsz	wreg,f,c
  4335  001840  D7FE               	goto	u2017
  4336  001842  0012               	return		;funcret
  4337  001844                     __end_of_load_shift_data_lcd:
  4338                           	opt stack 0
  4339                           tblptru	equ	0xFF8
  4340                           tblptrh	equ	0xFF7
  4341                           tblptrl	equ	0xFF6
  4342                           tablat	equ	0xFF5
  4343                           indf0	equ	0xFEF
  4344                           postinc0	equ	0xFEE
  4345                           fsr0h	equ	0xFEA
  4346                           fsr0l	equ	0xFE9
  4347                           wreg	equ	0xFE8
  4348                           postdec1	equ	0xFE5
  4349                           fsr1h	equ	0xFE2
  4350                           fsr1l	equ	0xFE1
  4351                           indf2	equ	0xFDF
  4352                           fsr2h	equ	0xFDA
  4353                           fsr2l	equ	0xFD9
  4354                           status	equ	0xFD8
  4355                           
  4356 ;; *************** function _I2C_initialize *****************
  4357 ;; Defined at:
  4358 ;;		line 149 in file "I2C.h"
  4359 ;; Parameters:    Size  Location     Type
  4360 ;;		None
  4361 ;; Auto vars:     Size  Location     Type
  4362 ;;		None
  4363 ;; Return value:  Size  Location     Type
  4364 ;;                  1    wreg      void 
  4365 ;; Registers used:
  4366 ;;		wreg, status,2
  4367 ;; Tracked objects:
  4368 ;;		On entry : 0/0
  4369 ;;		On exit  : 0/0
  4370 ;;		Unchanged: 0/0
  4371 ;; Data sizes:     COMRAM   BANK0   BANK1   BANK2   BANK3   BANK4   BANK5   BANK6   BANK7   BANK8   BANK9  BANK10  BANK1
      +1  BANK12  BANK13  BANK14
  4372 ;;      Params:         0       0       0       0       0       0       0       0       0       0       0       0       
      +0       0       0       0
  4373 ;;      Locals:         0       0       0       0       0       0       0       0       0       0       0       0       
      +0       0       0       0
  4374 ;;      Temps:          1       0       0       0       0       0       0       0       0       0       0       0       
      +0       0       0       0
  4375 ;;      Totals:         1       0       0       0       0       0       0       0       0       0       0       0       
      +0       0       0       0
  4376 ;;Total ram usage:        1 bytes
  4377 ;; Hardware stack levels used:    1
  4378 ;; This function calls:
  4379 ;;		Nothing
  4380 ;; This function is called by:
  4381 ;;		_main
  4382 ;; This function uses a non-reentrant model
  4383 ;;
  4384                           
  4385                           	psect	text26
  4386  001B9E                     __ptext26:
  4387                           	opt stack 0
  4388  001B9E                     _I2C_initialize:
  4389                           	opt stack 30
  4390                           
  4391                           ;I2C.h: 159: TRISC3 = 1;
  4392                           
  4393                           ;incstack = 0
  4394  001B9E  8694               	bsf	3988,3,c	;volatile
  4395                           
  4396                           ;I2C.h: 160: TRISC4 = 1;
  4397  001BA0  8894               	bsf	3988,4,c	;volatile
  4398                           
  4399                           ;I2C.h: 162: SSPM3 = 1;
  4400  001BA2  86C6               	bsf	4038,3,c	;volatile
  4401                           
  4402                           ;I2C.h: 163: SSPM2 = 0;
  4403  001BA4  94C6               	bcf	4038,2,c	;volatile
  4404                           
  4405                           ;I2C.h: 164: SSPM1 = 0;
  4406  001BA6  92C6               	bcf	4038,1,c	;volatile
  4407                           
  4408                           ;I2C.h: 165: SSPM0 = 0;
  4409  001BA8  90C6               	bcf	4038,0,c	;volatile
  4410                           
  4411                           ;I2C.h: 197: SSPADD = 39;
  4412  001BAA  0E27               	movlw	39
  4413  001BAC  6EC8               	movwf	4040,c	;volatile
  4414                           
  4415                           ;I2C.h: 203: SSPEN = 1 ;
  4416  001BAE  8AC6               	bsf	4038,5,c	;volatile
  4417                           
  4418                           ;I2C.h: 204: SSPIF = 0;
  4419  001BB0  969E               	bcf	3998,3,c	;volatile
  4420                           
  4421                           ;I2C.h: 205: _delay((unsigned long)((5)*(16000000UL/4000.0)));
  4422  001BB2  0E1A               	movlw	26
  4423  001BB4  6E3B               	movwf	??_I2C_initialize& (0+255),c
  4424  001BB6  0EF8               	movlw	248
  4425  001BB8                     u2027:
  4426  001BB8  2EE8               	decfsz	wreg,f,c
  4427  001BBA  D7FE               	goto	u2027
  4428  001BBC  2E3B               	decfsz	??_I2C_initialize& (0+255),f,c
  4429  001BBE  D7FC               	goto	u2027
  4430  001BC0  D000               	nop2	
  4431  001BC2  0012               	return		;funcret
  4432  001BC4                     __end_of_I2C_initialize:
  4433                           	opt stack 0
  4434                           tblptru	equ	0xFF8
  4435                           tblptrh	equ	0xFF7
  4436                           tblptrl	equ	0xFF6
  4437                           tablat	equ	0xFF5
  4438                           indf0	equ	0xFEF
  4439                           postinc0	equ	0xFEE
  4440                           fsr0h	equ	0xFEA
  4441                           fsr0l	equ	0xFE9
  4442                           wreg	equ	0xFE8
  4443                           postdec1	equ	0xFE5
  4444                           fsr1h	equ	0xFE2
  4445                           fsr1l	equ	0xFE1
  4446                           indf2	equ	0xFDF
  4447                           fsr2h	equ	0xFDA
  4448                           fsr2l	equ	0xFD9
  4449                           status	equ	0xFD8
  4450                           
  4451 ;; *************** function _I2C_data_send *****************
  4452 ;; Defined at:
  4453 ;;		line 249 in file "I2C.h"
  4454 ;; Parameters:    Size  Location     Type
  4455 ;;  data            1    wreg     unsigned char 
  4456 ;; Auto vars:     Size  Location     Type
  4457 ;;  data            1    0[COMRAM] unsigned char 
  4458 ;; Return value:  Size  Location     Type
  4459 ;;                  1    wreg      void 
  4460 ;; Registers used:
  4461 ;;		wreg, status,2, status,0
  4462 ;; Tracked objects:
  4463 ;;		On entry : 0/0
  4464 ;;		On exit  : 0/0
  4465 ;;		Unchanged: 0/0
  4466 ;; Data sizes:     COMRAM   BANK0   BANK1   BANK2   BANK3   BANK4   BANK5   BANK6   BANK7   BANK8   BANK9  BANK10  BANK1
      +1  BANK12  BANK13  BANK14
  4467 ;;      Params:         0       0       0       0       0       0       0       0       0       0       0       0       
      +0       0       0       0
  4468 ;;      Locals:         1       0       0       0       0       0       0       0       0       0       0       0       
      +0       0       0       0
  4469 ;;      Temps:          0       0       0       0       0       0       0       0       0       0       0       0       
      +0       0       0       0
  4470 ;;      Totals:         1       0       0       0       0       0       0       0       0       0       0       0       
      +0       0       0       0
  4471 ;;Total ram usage:        1 bytes
  4472 ;; Hardware stack levels used:    1
  4473 ;; This function calls:
  4474 ;;		Nothing
  4475 ;; This function is called by:
  4476 ;;		_main
  4477 ;; This function uses a non-reentrant model
  4478 ;;
  4479                           
  4480                           	psect	text27
  4481  001BEA                     __ptext27:
  4482                           	opt stack 0
  4483  001BEA                     _I2C_data_send:
  4484                           	opt stack 30
  4485                           
  4486                           ;incstack = 0
  4487                           ;I2C_data_send@data stored from wreg
  4488  001BEA  6E3B               	movwf	I2C_data_send@data,c
  4489                           
  4490                           ;I2C.h: 297: SSPIF = 0;
  4491  001BEC  969E               	bcf	3998,3,c	;volatile
  4492                           
  4493                           ;I2C.h: 300: SSPBUF = data ;
  4494  001BEE  C03B  FFC9         	movff	I2C_data_send@data,4041	;volatile
  4495  001BF2                     l580:
  4496  001BF2  A0C7               	btfss	4039,0,c	;volatile
  4497  001BF4  D006               	goto	l583
  4498  001BF6  D7FD               	goto	l580
  4499  001BF8                     l1759:
  4500  001BF8  2A35               	incf	_unnecessary,f,c
  4501  001BFA  0EC8               	movlw	200
  4502  001BFC  1835               	xorwf	_unnecessary,w,c
  4503  001BFE  B4D8               	btfsc	status,2,c
  4504  001C00  D002               	goto	l586
  4505  001C02                     l583:
  4506  001C02  A69E               	btfss	3998,3,c	;volatile
  4507  001C04  D7F9               	goto	l1759
  4508  001C06                     l586:
  4509                           
  4510                           ;I2C.h: 317: SSPIF = 0;
  4511  001C06  969E               	bcf	3998,3,c	;volatile
  4512                           
  4513                           ;I2C.h: 318: unnecessary = 0;
  4514  001C08  0E00               	movlw	0
  4515  001C0A  6E35               	movwf	_unnecessary,c
  4516  001C0C  0012               	return		;funcret
  4517  001C0E                     __end_of_I2C_data_send:
  4518                           	opt stack 0
  4519                           tblptru	equ	0xFF8
  4520                           tblptrh	equ	0xFF7
  4521                           tblptrl	equ	0xFF6
  4522                           tablat	equ	0xFF5
  4523                           indf0	equ	0xFEF
  4524                           postinc0	equ	0xFEE
  4525                           fsr0h	equ	0xFEA
  4526                           fsr0l	equ	0xFE9
  4527                           wreg	equ	0xFE8
  4528                           postdec1	equ	0xFE5
  4529                           fsr1h	equ	0xFE2
  4530                           fsr1l	equ	0xFE1
  4531                           indf2	equ	0xFDF
  4532                           fsr2h	equ	0xFDA
  4533                           fsr2l	equ	0xFD9
  4534                           status	equ	0xFD8
  4535                           
  4536 ;; *************** function _I2C_Stop *****************
  4537 ;; Defined at:
  4538 ;;		line 372 in file "I2C.h"
  4539 ;; Parameters:    Size  Location     Type
  4540 ;;		None
  4541 ;; Auto vars:     Size  Location     Type
  4542 ;;		None
  4543 ;; Return value:  Size  Location     Type
  4544 ;;                  1    wreg      void 
  4545 ;; Registers used:
  4546 ;;		None
  4547 ;; Tracked objects:
  4548 ;;		On entry : 0/0
  4549 ;;		On exit  : 0/0
  4550 ;;		Unchanged: 0/0
  4551 ;; Data sizes:     COMRAM   BANK0   BANK1   BANK2   BANK3   BANK4   BANK5   BANK6   BANK7   BANK8   BANK9  BANK10  BANK1
      +1  BANK12  BANK13  BANK14
  4552 ;;      Params:         0       0       0       0       0       0       0       0       0       0       0       0       
      +0       0       0       0
  4553 ;;      Locals:         0       0       0       0       0       0       0       0       0       0       0       0       
      +0       0       0       0
  4554 ;;      Temps:          0       0       0       0       0       0       0       0       0       0       0       0       
      +0       0       0       0
  4555 ;;      Totals:         0       0       0       0       0       0       0       0       0       0       0       0       
      +0       0       0       0
  4556 ;;Total ram usage:        0 bytes
  4557 ;; Hardware stack levels used:    1
  4558 ;; This function calls:
  4559 ;;		Nothing
  4560 ;; This function is called by:
  4561 ;;		_main
  4562 ;; This function uses a non-reentrant model
  4563 ;;
  4564                           
  4565                           	psect	text28
  4566  001D10                     __ptext28:
  4567                           	opt stack 0
  4568  001D10                     _I2C_Stop:
  4569                           	opt stack 30
  4570                           
  4571                           ;I2C.h: 374: PEN = 1;
  4572                           
  4573                           ;incstack = 0
  4574  001D10  84C5               	bsf	4037,2,c	;volatile
  4575  001D12                     l602:
  4576  001D12  B4C5               	btfsc	4037,2,c	;volatile
  4577  001D14  D7FE               	goto	l602
  4578                           
  4579                           ;I2C.h: 377: SSPIF = 0;
  4580  001D16  969E               	bcf	3998,3,c	;volatile
  4581  001D18  0012               	return		;funcret
  4582  001D1A                     __end_of_I2C_Stop:
  4583                           	opt stack 0
  4584                           tblptru	equ	0xFF8
  4585                           tblptrh	equ	0xFF7
  4586                           tblptrl	equ	0xFF6
  4587                           tablat	equ	0xFF5
  4588                           indf0	equ	0xFEF
  4589                           postinc0	equ	0xFEE
  4590                           fsr0h	equ	0xFEA
  4591                           fsr0l	equ	0xFE9
  4592                           wreg	equ	0xFE8
  4593                           postdec1	equ	0xFE5
  4594                           fsr1h	equ	0xFE2
  4595                           fsr1l	equ	0xFE1
  4596                           indf2	equ	0xFDF
  4597                           fsr2h	equ	0xFDA
  4598                           fsr2l	equ	0xFD9
  4599                           status	equ	0xFD8
  4600                           
  4601 ;; *************** function _I2C_Start *****************
  4602 ;; Defined at:
  4603 ;;		line 213 in file "I2C.h"
  4604 ;; Parameters:    Size  Location     Type
  4605 ;;		None
  4606 ;; Auto vars:     Size  Location     Type
  4607 ;;		None
  4608 ;; Return value:  Size  Location     Type
  4609 ;;                  1    wreg      void 
  4610 ;; Registers used:
  4611 ;;		None
  4612 ;; Tracked objects:
  4613 ;;		On entry : 0/0
  4614 ;;		On exit  : 0/0
  4615 ;;		Unchanged: 0/0
  4616 ;; Data sizes:     COMRAM   BANK0   BANK1   BANK2   BANK3   BANK4   BANK5   BANK6   BANK7   BANK8   BANK9  BANK10  BANK1
      +1  BANK12  BANK13  BANK14
  4617 ;;      Params:         0       0       0       0       0       0       0       0       0       0       0       0       
      +0       0       0       0
  4618 ;;      Locals:         0       0       0       0       0       0       0       0       0       0       0       0       
      +0       0       0       0
  4619 ;;      Temps:          0       0       0       0       0       0       0       0       0       0       0       0       
      +0       0       0       0
  4620 ;;      Totals:         0       0       0       0       0       0       0       0       0       0       0       0       
      +0       0       0       0
  4621 ;;Total ram usage:        0 bytes
  4622 ;; Hardware stack levels used:    1
  4623 ;; This function calls:
  4624 ;;		Nothing
  4625 ;; This function is called by:
  4626 ;;		_main
  4627 ;; This function uses a non-reentrant model
  4628 ;;
  4629                           
  4630                           	psect	text29
  4631  001D1A                     __ptext29:
  4632                           	opt stack 0
  4633  001D1A                     _I2C_Start:
  4634                           	opt stack 30
  4635                           
  4636                           ;I2C.h: 216: SEN = 1;
  4637                           
  4638                           ;incstack = 0
  4639  001D1A  80C5               	bsf	4037,0,c	;volatile
  4640  001D1C                     l563:
  4641  001D1C  B0C5               	btfsc	4037,0,c	;volatile
  4642  001D1E  D7FE               	goto	l563
  4643                           
  4644                           ;I2C.h: 220: SSPIF = 0;
  4645  001D20  969E               	bcf	3998,3,c	;volatile
  4646  001D22  0012               	return		;funcret
  4647  001D24                     __end_of_I2C_Start:
  4648                           	opt stack 0
  4649                           tblptru	equ	0xFF8
  4650                           tblptrh	equ	0xFF7
  4651                           tblptrl	equ	0xFF6
  4652                           tablat	equ	0xFF5
  4653                           indf0	equ	0xFEF
  4654                           postinc0	equ	0xFEE
  4655                           fsr0h	equ	0xFEA
  4656                           fsr0l	equ	0xFE9
  4657                           wreg	equ	0xFE8
  4658                           postdec1	equ	0xFE5
  4659                           fsr1h	equ	0xFE2
  4660                           fsr1l	equ	0xFE1
  4661                           indf2	equ	0xFDF
  4662                           fsr2h	equ	0xFDA
  4663                           fsr2l	equ	0xFD9
  4664                           status	equ	0xFD8
  4665                           
  4666 ;; *************** function _EEPROM_write_byte *****************
  4667 ;; Defined at:
  4668 ;;		line 28 in file "EEPROM.h"
  4669 ;; Parameters:    Size  Location     Type
  4670 ;;  address         2    0[COMRAM] int 
  4671 ;;  value           1    2[COMRAM] unsigned char 
  4672 ;; Auto vars:     Size  Location     Type
  4673 ;;		None
  4674 ;; Return value:  Size  Location     Type
  4675 ;;                  1    wreg      void 
  4676 ;; Registers used:
  4677 ;;		wreg, status,2
  4678 ;; Tracked objects:
  4679 ;;		On entry : 0/0
  4680 ;;		On exit  : 0/0
  4681 ;;		Unchanged: 0/0
  4682 ;; Data sizes:     COMRAM   BANK0   BANK1   BANK2   BANK3   BANK4   BANK5   BANK6   BANK7   BANK8   BANK9  BANK10  BANK1
      +1  BANK12  BANK13  BANK14
  4683 ;;      Params:         3       0       0       0       0       0       0       0       0       0       0       0       
      +0       0       0       0
  4684 ;;      Locals:         0       0       0       0       0       0       0       0       0       0       0       0       
      +0       0       0       0
  4685 ;;      Temps:          0       0       0       0       0       0       0       0       0       0       0       0       
      +0       0       0       0
  4686 ;;      Totals:         3       0       0       0       0       0       0       0       0       0       0       0       
      +0       0       0       0
  4687 ;;Total ram usage:        3 bytes
  4688 ;; Hardware stack levels used:    1
  4689 ;; This function calls:
  4690 ;;		Nothing
  4691 ;; This function is called by:
  4692 ;;		_main
  4693 ;; This function uses a non-reentrant model
  4694 ;;
  4695                           
  4696                           	psect	text30
  4697  001BC4                     __ptext30:
  4698                           	opt stack 0
  4699  001BC4                     _EEPROM_write_byte:
  4700                           	opt stack 30
  4701                           
  4702                           ;EEPROM.h: 30: EEDATA = value;
  4703                           
  4704                           ;incstack = 0
  4705  001BC4  C03D  FF73         	movff	EEPROM_write_byte@value,3955	;volatile
  4706                           
  4707                           ;EEPROM.h: 31: EEPGD = 0;
  4708  001BC8  9E7F               	bcf	3967,7,c	;volatile
  4709                           
  4710                           ;EEPROM.h: 32: CFGS = 0;
  4711  001BCA  9C7F               	bcf	3967,6,c	;volatile
  4712                           
  4713                           ;EEPROM.h: 33: EEADRH = (address>>8)&0xff;
  4714  001BCC  503C               	movf	EEPROM_write_byte@address+1,w,c
  4715  001BCE  6E75               	movwf	3957,c	;volatile
  4716                           
  4717                           ;EEPROM.h: 34: EEADR = address&0xff;
  4718  001BD0  C03B  FF74         	movff	EEPROM_write_byte@address,3956	;volatile
  4719                           
  4720                           ;EEPROM.h: 36: WREN = 1;
  4721  001BD4  847F               	bsf	3967,2,c	;volatile
  4722                           
  4723                           ;EEPROM.h: 38: EECON2 = 0x55;
  4724  001BD6  0E55               	movlw	85
  4725  001BD8  6E7E               	movwf	3966,c	;volatile
  4726                           
  4727                           ;EEPROM.h: 39: EECON2 = 0xaa;
  4728  001BDA  0EAA               	movlw	170
  4729  001BDC  6E7E               	movwf	3966,c	;volatile
  4730                           
  4731                           ;EEPROM.h: 41: WR = 1;
  4732  001BDE  827F               	bsf	3967,1,c	;volatile
  4733  001BE0                     l554:
  4734  001BE0  B27F               	btfsc	3967,1,c	;volatile
  4735  001BE2  D7FE               	goto	l554
  4736                           
  4737                           ;EEPROM.h: 47: EEIF = 0;
  4738  001BE4  9CB7               	bcf	4023,6,c	;volatile
  4739                           
  4740                           ;EEPROM.h: 48: WREN = 0;
  4741  001BE6  947F               	bcf	3967,2,c	;volatile
  4742  001BE8  0012               	return		;funcret
  4743  001BEA                     __end_of_EEPROM_write_byte:
  4744                           	opt stack 0
  4745                           tblptru	equ	0xFF8
  4746                           tblptrh	equ	0xFF7
  4747                           tblptrl	equ	0xFF6
  4748                           tablat	equ	0xFF5
  4749                           indf0	equ	0xFEF
  4750                           postinc0	equ	0xFEE
  4751                           fsr0h	equ	0xFEA
  4752                           fsr0l	equ	0xFE9
  4753                           wreg	equ	0xFE8
  4754                           postdec1	equ	0xFE5
  4755                           fsr1h	equ	0xFE2
  4756                           fsr1l	equ	0xFE1
  4757                           indf2	equ	0xFDF
  4758                           fsr2h	equ	0xFDA
  4759                           fsr2l	equ	0xFD9
  4760                           status	equ	0xFD8
  4761                           
  4762 ;; *************** function _EEPROM_read_byte *****************
  4763 ;; Defined at:
  4764 ;;		line 17 in file "EEPROM.h"
  4765 ;; Parameters:    Size  Location     Type
  4766 ;;  address         2    0[COMRAM] int 
  4767 ;; Auto vars:     Size  Location     Type
  4768 ;;		None
  4769 ;; Return value:  Size  Location     Type
  4770 ;;                  1    wreg      unsigned char 
  4771 ;; Registers used:
  4772 ;;		wreg, status,2
  4773 ;; Tracked objects:
  4774 ;;		On entry : 0/0
  4775 ;;		On exit  : 0/0
  4776 ;;		Unchanged: 0/0
  4777 ;; Data sizes:     COMRAM   BANK0   BANK1   BANK2   BANK3   BANK4   BANK5   BANK6   BANK7   BANK8   BANK9  BANK10  BANK1
      +1  BANK12  BANK13  BANK14
  4778 ;;      Params:         2       0       0       0       0       0       0       0       0       0       0       0       
      +0       0       0       0
  4779 ;;      Locals:         0       0       0       0       0       0       0       0       0       0       0       0       
      +0       0       0       0
  4780 ;;      Temps:          0       0       0       0       0       0       0       0       0       0       0       0       
      +0       0       0       0
  4781 ;;      Totals:         2       0       0       0       0       0       0       0       0       0       0       0       
      +0       0       0       0
  4782 ;;Total ram usage:        2 bytes
  4783 ;; Hardware stack levels used:    1
  4784 ;; This function calls:
  4785 ;;		Nothing
  4786 ;; This function is called by:
  4787 ;;		_main
  4788 ;; This function uses a non-reentrant model
  4789 ;;
  4790                           
  4791                           	psect	text31
  4792  001CEC                     __ptext31:
  4793                           	opt stack 0
  4794  001CEC                     _EEPROM_read_byte:
  4795                           	opt stack 30
  4796                           
  4797                           ;EEPROM.h: 19: EEPGD = 0;
  4798                           
  4799                           ;incstack = 0
  4800  001CEC  9E7F               	bcf	3967,7,c	;volatile
  4801                           
  4802                           ;EEPROM.h: 20: CFGS = 0;
  4803  001CEE  9C7F               	bcf	3967,6,c	;volatile
  4804                           
  4805                           ;EEPROM.h: 21: EEADRH = (address >> 8)&0xff;
  4806  001CF0  503C               	movf	EEPROM_read_byte@address+1,w,c
  4807  001CF2  6E75               	movwf	3957,c	;volatile
  4808                           
  4809                           ;EEPROM.h: 22: EEADR = address &0xff;
  4810  001CF4  C03B  FF74         	movff	EEPROM_read_byte@address,3956	;volatile
  4811                           
  4812                           ;EEPROM.h: 23: RD = 1;
  4813  001CF8  807F               	bsf	3967,0,c	;volatile
  4814  001CFA                     l548:
  4815  001CFA  B07F               	btfsc	3967,0,c	;volatile
  4816  001CFC  D7FE               	goto	l548
  4817                           
  4818                           ;EEPROM.h: 25: EEIF = 0;
  4819  001CFE  9CB7               	bcf	4023,6,c	;volatile
  4820                           
  4821                           ;EEPROM.h: 26: return EEDATA;
  4822  001D00  5073               	movf	3955,w,c	;volatile
  4823  001D02  0012               	return	
  4824  001D04                     __end_of_EEPROM_read_byte:
  4825                           	opt stack 0
  4826                           tblptru	equ	0xFF8
  4827                           tblptrh	equ	0xFF7
  4828                           tblptrl	equ	0xFF6
  4829                           tablat	equ	0xFF5
  4830                           indf0	equ	0xFEF
  4831                           postinc0	equ	0xFEE
  4832                           fsr0h	equ	0xFEA
  4833                           fsr0l	equ	0xFE9
  4834                           wreg	equ	0xFE8
  4835                           postdec1	equ	0xFE5
  4836                           fsr1h	equ	0xFE2
  4837                           fsr1l	equ	0xFE1
  4838                           indf2	equ	0xFDF
  4839                           fsr2h	equ	0xFDA
  4840                           fsr2l	equ	0xFD9
  4841                           status	equ	0xFD8
  4842                           
  4843 ;; *************** function _DHT11_get_data *****************
  4844 ;; Defined at:
  4845 ;;		line 25 in file "DHT11.h"
  4846 ;; Parameters:    Size  Location     Type
  4847 ;;		None
  4848 ;; Auto vars:     Size  Location     Type
  4849 ;;  bit_index       1    4[COMRAM] char 
  4850 ;;  byte_index      1    3[COMRAM] unsigned char 
  4851 ;;  a               1    2[COMRAM] unsigned char 
  4852 ;; Return value:  Size  Location     Type
  4853 ;;                  1    wreg      void 
  4854 ;; Registers used:
  4855 ;;		wreg, fsr2l, fsr2h, status,2, status,0, prodl, prodh
  4856 ;; Tracked objects:
  4857 ;;		On entry : 0/0
  4858 ;;		On exit  : 0/0
  4859 ;;		Unchanged: 0/0
  4860 ;; Data sizes:     COMRAM   BANK0   BANK1   BANK2   BANK3   BANK4   BANK5   BANK6   BANK7   BANK8   BANK9  BANK10  BANK1
      +1  BANK12  BANK13  BANK14
  4861 ;;      Params:         0       0       0       0       0       0       0       0       0       0       0       0       
      +0       0       0       0
  4862 ;;      Locals:         3       0       0       0       0       0       0       0       0       0       0       0       
      +0       0       0       0
  4863 ;;      Temps:          2       0       0       0       0       0       0       0       0       0       0       0       
      +0       0       0       0
  4864 ;;      Totals:         5       0       0       0       0       0       0       0       0       0       0       0       
      +0       0       0       0
  4865 ;;Total ram usage:        5 bytes
  4866 ;; Hardware stack levels used:    1
  4867 ;; This function calls:
  4868 ;;		Nothing
  4869 ;; This function is called by:
  4870 ;;		_main
  4871 ;; This function uses a non-reentrant model
  4872 ;;
  4873                           
  4874                           	psect	text32
  4875  00149C                     __ptext32:
  4876                           	opt stack 0
  4877  00149C                     _DHT11_get_data:
  4878                           	opt stack 30
  4879                           
  4880                           ;DHT11.h: 27: for(byte a = 0 ; a < 5 ; a++) dht11_data[a] = 0;
  4881                           
  4882                           ;incstack = 0
  4883  00149C  0E00               	movlw	0
  4884  00149E  6E3D               	movwf	DHT11_get_data@a,c
  4885  0014A0                     l1485:
  4886  0014A0  0E04               	movlw	4
  4887  0014A2  643D               	cpfsgt	DHT11_get_data@a,c
  4888  0014A4  D001               	goto	l1489
  4889  0014A6  D00C               	goto	l308
  4890  0014A8                     l1489:
  4891  0014A8  503D               	movf	DHT11_get_data@a,w,c
  4892  0014AA  0D01               	mullw	1
  4893  0014AC  0E18               	movlw	low _dht11_data
  4894  0014AE  24F3               	addwf	prodl,w,c
  4895  0014B0  6ED9               	movwf	fsr2l,c
  4896  0014B2  0E00               	movlw	high _dht11_data
  4897  0014B4  20F4               	addwfc	prodh,w,c
  4898  0014B6  6EDA               	movwf	fsr2h,c
  4899  0014B8  0E00               	movlw	0
  4900  0014BA  6EDF               	movwf	indf2,c
  4901  0014BC  2A3D               	incf	DHT11_get_data@a,f,c
  4902  0014BE  D7F0               	goto	l1485
  4903  0014C0                     l308:
  4904                           
  4905                           ;DHT11.h: 29: RF1 = 0;
  4906  0014C0  9285               	bcf	3973,1,c	;volatile
  4907                           
  4908                           ;DHT11.h: 30: TRISF1 = 0;
  4909  0014C2  9297               	bcf	3991,1,c	;volatile
  4910                           
  4911                           ;DHT11.h: 31: _delay((unsigned long)((10)*(16000000UL/4000.0)));
  4912  0014C4  0E34               	movlw	52
  4913  0014C6  6E3B               	movwf	??_DHT11_get_data& (0+255),c
  4914  0014C8  0EF2               	movlw	242
  4915  0014CA                     u2037:
  4916  0014CA  2EE8               	decfsz	wreg,f,c
  4917  0014CC  D7FE               	goto	u2037
  4918  0014CE  2E3B               	decfsz	??_DHT11_get_data& (0+255),f,c
  4919  0014D0  D7FC               	goto	u2037
  4920                           
  4921                           ;DHT11.h: 32: _delay((unsigned long)((10)*(16000000UL/4000.0)));
  4922  0014D2  0E34               	movlw	52
  4923  0014D4  6E3B               	movwf	??_DHT11_get_data& (0+255),c
  4924  0014D6  0EF2               	movlw	242
  4925  0014D8                     u2047:
  4926  0014D8  2EE8               	decfsz	wreg,f,c
  4927  0014DA  D7FE               	goto	u2047
  4928  0014DC  2E3B               	decfsz	??_DHT11_get_data& (0+255),f,c
  4929  0014DE  D7FC               	goto	u2047
  4930                           
  4931                           ;DHT11.h: 33: TRISF1 = 1;
  4932  0014E0  8297               	bsf	3991,1,c	;volatile
  4933                           
  4934                           ;DHT11.h: 34: _delay((unsigned long)((65)*(16000000UL/4000000.0)));
  4935  0014E2  0E56               	movlw	86
  4936  0014E4                     u2057:
  4937  0014E4  2EE8               	decfsz	wreg,f,c
  4938  0014E6  D7FE               	goto	u2057
  4939  0014E8  D000               	nop2		;nop
  4940  0014EA                     l309:
  4941  0014EA  A285               	btfss	3973,1,c	;volatile
  4942  0014EC  D7FE               	goto	l309
  4943  0014EE                     l312:
  4944  0014EE  B285               	btfsc	3973,1,c	;volatile
  4945  0014F0  D7FE               	goto	l312
  4946                           
  4947                           ;DHT11.h: 40: for(byte byte_index =0; byte_index < 5; byte_index ++)
  4948  0014F2  0E00               	movlw	0
  4949  0014F4  6E3E               	movwf	DHT11_get_data@byte_index,c
  4950  0014F6                     l1501:
  4951  0014F6  0E04               	movlw	4
  4952  0014F8  643E               	cpfsgt	DHT11_get_data@byte_index,c
  4953  0014FA  D001               	goto	l1505
  4954  0014FC  D030               	goto	l316
  4955  0014FE                     l1505:
  4956                           
  4957                           ;DHT11.h: 41: {
  4958                           ;DHT11.h: 42: for(signed char bit_index = 7; bit_index > -1 ; bit_index--)
  4959  0014FE  0E07               	movlw	7
  4960  001500  6E3F               	movwf	DHT11_get_data@bit_index,c
  4961  001502                     l1507:
  4962  001502  BE3F               	btfsc	DHT11_get_data@bit_index,7,c
  4963  001504  D01E               	goto	l1531
  4964  001506  D001               	goto	l1513
  4965  001508                     l1511:
  4966  001508  2A2C               	incf	_low_time_count,f,c
  4967  00150A                     l1513:
  4968  00150A  B285               	btfsc	3973,1,c	;volatile
  4969  00150C  D002               	goto	l1517
  4970  00150E  D7FC               	goto	l1511
  4971  001510                     l1515:
  4972  001510  2A2A               	incf	_high_time_count,f,c
  4973  001512                     l1517:
  4974  001512  B285               	btfsc	3973,1,c	;volatile
  4975  001514  D7FD               	goto	l1515
  4976                           
  4977                           ;DHT11.h: 52: if(high_time_count > low_time_count)
  4978  001516  502A               	movf	_high_time_count,w,c
  4979  001518  5C2C               	subwf	_low_time_count,w,c
  4980  00151A  B0D8               	btfsc	status,0,c
  4981  00151C  D00C               	goto	l1523
  4982                           
  4983                           ;DHT11.h: 53: {
  4984                           ;DHT11.h: 55: tempo |= (1 << bit_index);
  4985  00151E  C03F  F03B         	movff	DHT11_get_data@bit_index,??_DHT11_get_data
  4986  001522  0E01               	movlw	1
  4987  001524  6E3C               	movwf	(??_DHT11_get_data+1)& (0+255),c
  4988  001526  2A3B               	incf	??_DHT11_get_data,f,c
  4989  001528  D002               	goto	u484
  4990  00152A                     u485:
  4991  00152A  90D8               	bcf	status,0,c
  4992  00152C  363C               	rlcf	??_DHT11_get_data+1,f,c
  4993  00152E                     u484:
  4994  00152E  2E3B               	decfsz	??_DHT11_get_data,f,c
  4995  001530  D7FC               	goto	u485
  4996  001532  503C               	movf	??_DHT11_get_data+1,w,c
  4997  001534  1233               	iorwf	_tempo,f,c
  4998  001536                     l1523:
  4999                           
  5000                           ;DHT11.h: 57: }
  5001                           ;DHT11.h: 59: low_time_count = 0;
  5002  001536  0E00               	movlw	0
  5003  001538  6E2C               	movwf	_low_time_count,c
  5004                           
  5005                           ;DHT11.h: 60: high_time_count = 0;
  5006  00153A  0E00               	movlw	0
  5007  00153C  6E2A               	movwf	_high_time_count,c
  5008  00153E  063F               	decf	DHT11_get_data@bit_index,f,c
  5009  001540  D7E0               	goto	l1507
  5010  001542                     l1531:
  5011                           
  5012                           ;DHT11.h: 61: }
  5013                           ;DHT11.h: 62: dht11_data[byte_index] = tempo;
  5014  001542  503E               	movf	DHT11_get_data@byte_index,w,c
  5015  001544  0D01               	mullw	1
  5016  001546  0E18               	movlw	low _dht11_data
  5017  001548  24F3               	addwf	prodl,w,c
  5018  00154A  6ED9               	movwf	fsr2l,c
  5019  00154C  0E00               	movlw	high _dht11_data
  5020  00154E  20F4               	addwfc	prodh,w,c
  5021  001550  6EDA               	movwf	fsr2h,c
  5022  001552  C033  FFDF         	movff	_tempo,indf2
  5023                           
  5024                           ;DHT11.h: 63: tempo = 0;
  5025  001556  0E00               	movlw	0
  5026  001558  6E33               	movwf	_tempo,c
  5027  00155A  2A3E               	incf	DHT11_get_data@byte_index,f,c
  5028  00155C  D7CC               	goto	l1501
  5029  00155E                     l316:
  5030                           
  5031                           ;DHT11.h: 64: }
  5032                           ;DHT11.h: 66: sicaklik = dht11_data[2];
  5033  00155E  C01A  F031         	movff	_dht11_data+2,_sicaklik
  5034                           
  5035                           ;DHT11.h: 67: nem = dht11_data[0];
  5036  001562  C018  F02D         	movff	_dht11_data,_nem
  5037  001566  0012               	return		;funcret
  5038  001568                     __end_of_DHT11_get_data:
  5039                           	opt stack 0
  5040                           tblptru	equ	0xFF8
  5041                           tblptrh	equ	0xFF7
  5042                           tblptrl	equ	0xFF6
  5043                           tablat	equ	0xFF5
  5044                           prodh	equ	0xFF4
  5045                           prodl	equ	0xFF3
  5046                           indf0	equ	0xFEF
  5047                           postinc0	equ	0xFEE
  5048                           fsr0h	equ	0xFEA
  5049                           fsr0l	equ	0xFE9
  5050                           wreg	equ	0xFE8
  5051                           postdec1	equ	0xFE5
  5052                           fsr1h	equ	0xFE2
  5053                           fsr1l	equ	0xFE1
  5054                           indf2	equ	0xFDF
  5055                           fsr2h	equ	0xFDA
  5056                           fsr2l	equ	0xFD9
  5057                           status	equ	0xFD8
  5058                           
  5059 ;; *************** function _ADC_read *****************
  5060 ;; Defined at:
  5061 ;;		line 88 in file "ADC.h"
  5062 ;; Parameters:    Size  Location     Type
  5063 ;;  channel_numb    1    wreg     unsigned char 
  5064 ;; Auto vars:     Size  Location     Type
  5065 ;;  channel_numb    1    6[COMRAM] unsigned char 
  5066 ;;  val             2    4[COMRAM] int 
  5067 ;; Return value:  Size  Location     Type
  5068 ;;                  2    0[COMRAM] int 
  5069 ;; Registers used:
  5070 ;;		wreg, status,2, status,0
  5071 ;; Tracked objects:
  5072 ;;		On entry : 0/0
  5073 ;;		On exit  : 0/0
  5074 ;;		Unchanged: 0/0
  5075 ;; Data sizes:     COMRAM   BANK0   BANK1   BANK2   BANK3   BANK4   BANK5   BANK6   BANK7   BANK8   BANK9  BANK10  BANK1
      +1  BANK12  BANK13  BANK14
  5076 ;;      Params:         2       0       0       0       0       0       0       0       0       0       0       0       
      +0       0       0       0
  5077 ;;      Locals:         3       0       0       0       0       0       0       0       0       0       0       0       
      +0       0       0       0
  5078 ;;      Temps:          2       0       0       0       0       0       0       0       0       0       0       0       
      +0       0       0       0
  5079 ;;      Totals:         7       0       0       0       0       0       0       0       0       0       0       0       
      +0       0       0       0
  5080 ;;Total ram usage:        7 bytes
  5081 ;; Hardware stack levels used:    1
  5082 ;; This function calls:
  5083 ;;		Nothing
  5084 ;; This function is called by:
  5085 ;;		_main
  5086 ;;		_TempIndicator_read
  5087 ;; This function uses a non-reentrant model
  5088 ;;
  5089                           
  5090                           	psect	text33
  5091  001794                     __ptext33:
  5092                           	opt stack 0
  5093  001794                     _ADC_read:
  5094                           	opt stack 30
  5095                           
  5096                           ;incstack = 0
  5097                           ;ADC_read@channel_number stored from wreg
  5098  001794  6E41               	movwf	ADC_read@channel_number,c
  5099                           
  5100                           ;ADC.h: 92: ADCON0 = (channel_number<<2) | (ADCON0 & 0b00000011);
  5101  001796  CFC2 F03D          	movff	4034,??_ADC_read	;volatile
  5102  00179A  0E03               	movlw	3
  5103  00179C  163D               	andwf	??_ADC_read,f,c
  5104  00179E  4441               	rlncf	ADC_read@channel_number,w,c
  5105  0017A0  46E8               	rlncf	wreg,f,c
  5106  0017A2  0BFC               	andlw	252
  5107  0017A4  103D               	iorwf	??_ADC_read,w,c
  5108  0017A6  6EC2               	movwf	4034,c	;volatile
  5109                           
  5110                           ;ADC.h: 95: _delay((unsigned long)((3)*(16000000UL/4000.0)));
  5111  0017A8  0E10               	movlw	16
  5112  0017AA  6E3D               	movwf	??_ADC_read& (0+255),c
  5113  0017AC  0E94               	movlw	148
  5114  0017AE                     u2067:
  5115  0017AE  2EE8               	decfsz	wreg,f,c
  5116  0017B0  D7FE               	goto	u2067
  5117  0017B2  2E3D               	decfsz	??_ADC_read& (0+255),f,c
  5118  0017B4  D7FC               	goto	u2067
  5119  0017B6  D000               	nop2	
  5120                           
  5121                           ;ADC.h: 96: int val;
  5122                           ;ADC.h: 97: GODONE = 1;
  5123  0017B8  82C2               	bsf	4034,1,c	;volatile
  5124  0017BA                     l425:
  5125  0017BA  B2C2               	btfsc	4034,1,c	;volatile
  5126  0017BC  D7FE               	goto	l425
  5127                           
  5128                           ;ADC.h: 99: val = (ADRESH << 8) | ADRESL;
  5129  0017BE  50C3               	movf	4035,w,c	;volatile
  5130  0017C0  CFC4 F03D          	movff	4036,??_ADC_read	;volatile
  5131  0017C4  6A3E               	clrf	(??_ADC_read+1)& (0+255),c
  5132  0017C6  C03D  F03E         	movff	??_ADC_read,??_ADC_read+1
  5133  0017CA  6A3D               	clrf	??_ADC_read,c
  5134  0017CC  103D               	iorwf	??_ADC_read,w,c
  5135  0017CE  6E3F               	movwf	ADC_read@val,c
  5136  0017D0  503E               	movf	??_ADC_read+1,w,c
  5137  0017D2  6E40               	movwf	ADC_read@val+1,c
  5138                           
  5139                           ;ADC.h: 100: ADIF = 0;
  5140  0017D4  9C9E               	bcf	3998,6,c	;volatile
  5141                           
  5142                           ;ADC.h: 101: _delay((unsigned long)((3)*(16000000UL/4000.0)));
  5143  0017D6  0E10               	movlw	16
  5144  0017D8  6E3D               	movwf	??_ADC_read& (0+255),c
  5145  0017DA  0E94               	movlw	148
  5146  0017DC                     u2077:
  5147  0017DC  2EE8               	decfsz	wreg,f,c
  5148  0017DE  D7FE               	goto	u2077
  5149  0017E0  2E3D               	decfsz	??_ADC_read& (0+255),f,c
  5150  0017E2  D7FC               	goto	u2077
  5151  0017E4  D000               	nop2	
  5152                           
  5153                           ;ADC.h: 102: return val;
  5154  0017E6  C03F  F03B         	movff	ADC_read@val,?_ADC_read
  5155  0017EA  C040  F03C         	movff	ADC_read@val+1,?_ADC_read+1
  5156  0017EE  0012               	return	
  5157  0017F0                     __end_of_ADC_read:
  5158                           	opt stack 0
  5159                           tblptru	equ	0xFF8
  5160                           tblptrh	equ	0xFF7
  5161                           tblptrl	equ	0xFF6
  5162                           tablat	equ	0xFF5
  5163                           prodh	equ	0xFF4
  5164                           prodl	equ	0xFF3
  5165                           indf0	equ	0xFEF
  5166                           postinc0	equ	0xFEE
  5167                           fsr0h	equ	0xFEA
  5168                           fsr0l	equ	0xFE9
  5169                           wreg	equ	0xFE8
  5170                           postdec1	equ	0xFE5
  5171                           fsr1h	equ	0xFE2
  5172                           fsr1l	equ	0xFE1
  5173                           indf2	equ	0xFDF
  5174                           fsr2h	equ	0xFDA
  5175                           fsr2l	equ	0xFD9
  5176                           status	equ	0xFD8
  5177                           
  5178 ;; *************** function _ADC_init *****************
  5179 ;; Defined at:
  5180 ;;		line 47 in file "ADC.h"
  5181 ;; Parameters:    Size  Location     Type
  5182 ;;		None
  5183 ;; Auto vars:     Size  Location     Type
  5184 ;;		None
  5185 ;; Return value:  Size  Location     Type
  5186 ;;                  1    wreg      void 
  5187 ;; Registers used:
  5188 ;;		wreg
  5189 ;; Tracked objects:
  5190 ;;		On entry : 0/0
  5191 ;;		On exit  : 0/0
  5192 ;;		Unchanged: 0/0
  5193 ;; Data sizes:     COMRAM   BANK0   BANK1   BANK2   BANK3   BANK4   BANK5   BANK6   BANK7   BANK8   BANK9  BANK10  BANK1
      +1  BANK12  BANK13  BANK14
  5194 ;;      Params:         0       0       0       0       0       0       0       0       0       0       0       0       
      +0       0       0       0
  5195 ;;      Locals:         0       0       0       0       0       0       0       0       0       0       0       0       
      +0       0       0       0
  5196 ;;      Temps:          1       0       0       0       0       0       0       0       0       0       0       0       
      +0       0       0       0
  5197 ;;      Totals:         1       0       0       0       0       0       0       0       0       0       0       0       
      +0       0       0       0
  5198 ;;Total ram usage:        1 bytes
  5199 ;; Hardware stack levels used:    1
  5200 ;; This function calls:
  5201 ;;		Nothing
  5202 ;; This function is called by:
  5203 ;;		_main
  5204 ;; This function uses a non-reentrant model
  5205 ;;
  5206                           
  5207                           	psect	text34
  5208  001896                     __ptext34:
  5209                           	opt stack 0
  5210  001896                     _ADC_init:
  5211                           	opt stack 30
  5212                           
  5213                           ;ADC.h: 50: TRISA0 = 1;
  5214                           
  5215                           ;incstack = 0
  5216  001896  8092               	bsf	3986,0,c	;volatile
  5217                           
  5218                           ;ADC.h: 51: TRISA1 = 1;
  5219  001898  8292               	bsf	3986,1,c	;volatile
  5220                           
  5221                           ;ADC.h: 52: ANSEL0 = 1;
  5222  00189A  010F               	movlb	15	; () banked
  5223  00189C  815D               	bsf	93,0,b	;volatile
  5224                           
  5225                           ;ADC.h: 53: ANSEL1 = 1;
  5226  00189E  010F               	movlb	15	; () banked
  5227  0018A0  835D               	bsf	93,1,b	;volatile
  5228                           
  5229                           ;ADC.h: 54: CHS4 = 0;
  5230  0018A2  9CC2               	bcf	4034,6,c	;volatile
  5231                           
  5232                           ;ADC.h: 55: CHS3 = 0;
  5233  0018A4  9AC2               	bcf	4034,5,c	;volatile
  5234                           
  5235                           ;ADC.h: 56: CHS2 = 0;
  5236  0018A6  98C2               	bcf	4034,4,c	;volatile
  5237                           
  5238                           ;ADC.h: 57: CHS1 = 0;
  5239  0018A8  96C2               	bcf	4034,3,c	;volatile
  5240                           
  5241                           ;ADC.h: 58: CHS0 = 0;
  5242  0018AA  94C2               	bcf	4034,2,c	;volatile
  5243                           
  5244                           ;ADC.h: 61: ADFM = 1;
  5245  0018AC  8EC0               	bsf	4032,7,c	;volatile
  5246                           
  5247                           ;ADC.h: 64: ADCS2 = 1;
  5248  0018AE  84C0               	bsf	4032,2,c	;volatile
  5249                           
  5250                           ;ADC.h: 65: ADCS1 = 1;
  5251  0018B0  82C0               	bsf	4032,1,c	;volatile
  5252                           
  5253                           ;ADC.h: 66: ADCS0 = 0;
  5254  0018B2  90C0               	bcf	4032,0,c	;volatile
  5255                           
  5256                           ;ADC.h: 78: ACQT2=0; ACQT1=1; ACQT0=0;
  5257  0018B4  9AC0               	bcf	4032,5,c	;volatile
  5258  0018B6  88C0               	bsf	4032,4,c	;volatile
  5259  0018B8  96C0               	bcf	4032,3,c	;volatile
  5260                           
  5261                           ;ADC.h: 80: VCFG1=0; VCFG0 = 0; VNCFG = 0;
  5262  0018BA  9AC1               	bcf	4033,5,c	;volatile
  5263  0018BC  98C1               	bcf	4033,4,c	;volatile
  5264  0018BE  96C1               	bcf	4033,3,c	;volatile
  5265                           
  5266                           ; BSR set to: 15
  5267                           ;ADC.h: 81: _delay((unsigned long)((15)*(16000000UL/4000.0)));
  5268  0018C0  0E4E               	movlw	78
  5269  0018C2  6E3B               	movwf	??_ADC_init& (0+255),c
  5270  0018C4  0EEB               	movlw	235
  5271  0018C6                     u2087:
  5272  0018C6  2EE8               	decfsz	wreg,f,c
  5273  0018C8  D7FE               	goto	u2087
  5274  0018CA  2E3B               	decfsz	??_ADC_init& (0+255),f,c
  5275  0018CC  D7FC               	goto	u2087
  5276  0018CE  F000               	nop	
  5277                           
  5278                           ;ADC.h: 82: ADON = 1;
  5279  0018D0  80C2               	bsf	4034,0,c	;volatile
  5280                           
  5281                           ;ADC.h: 83: _delay((unsigned long)((15)*(16000000UL/4000.0)));
  5282  0018D2  0E4E               	movlw	78
  5283  0018D4  6E3B               	movwf	??_ADC_init& (0+255),c
  5284  0018D6  0EEB               	movlw	235
  5285  0018D8                     u2097:
  5286  0018D8  2EE8               	decfsz	wreg,f,c
  5287  0018DA  D7FE               	goto	u2097
  5288  0018DC  2E3B               	decfsz	??_ADC_init& (0+255),f,c
  5289  0018DE  D7FC               	goto	u2097
  5290  0018E0  F000               	nop	
  5291  0018E2  0012               	return		;funcret
  5292  0018E4                     __end_of_ADC_init:
  5293                           	opt stack 0
  5294                           tblptru	equ	0xFF8
  5295                           tblptrh	equ	0xFF7
  5296                           tblptrl	equ	0xFF6
  5297                           tablat	equ	0xFF5
  5298                           prodh	equ	0xFF4
  5299                           prodl	equ	0xFF3
  5300                           indf0	equ	0xFEF
  5301                           postinc0	equ	0xFEE
  5302                           fsr0h	equ	0xFEA
  5303                           fsr0l	equ	0xFE9
  5304                           wreg	equ	0xFE8
  5305                           postdec1	equ	0xFE5
  5306                           fsr1h	equ	0xFE2
  5307                           fsr1l	equ	0xFE1
  5308                           indf2	equ	0xFDF
  5309                           fsr2h	equ	0xFDA
  5310                           fsr2l	equ	0xFD9
  5311                           status	equ	0xFD8
  5312                           tblptru	equ	0xFF8
  5313                           tblptrh	equ	0xFF7
  5314                           tblptrl	equ	0xFF6
  5315                           tablat	equ	0xFF5
  5316                           prodh	equ	0xFF4
  5317                           prodl	equ	0xFF3
  5318                           indf0	equ	0xFEF
  5319                           postinc0	equ	0xFEE
  5320                           fsr0h	equ	0xFEA
  5321                           fsr0l	equ	0xFE9
  5322                           wreg	equ	0xFE8
  5323                           postdec1	equ	0xFE5
  5324                           fsr1h	equ	0xFE2
  5325                           fsr1l	equ	0xFE1
  5326                           indf2	equ	0xFDF
  5327                           fsr2h	equ	0xFDA
  5328                           fsr2l	equ	0xFD9
  5329                           status	equ	0xFD8
  5330                           
  5331                           	psect	rparam
  5332  0000                     tblptru	equ	0xFF8
  5333                           tblptrh	equ	0xFF7
  5334                           tblptrl	equ	0xFF6
  5335                           tablat	equ	0xFF5
  5336                           prodh	equ	0xFF4
  5337                           prodl	equ	0xFF3
  5338                           indf0	equ	0xFEF
  5339                           postinc0	equ	0xFEE
  5340                           fsr0h	equ	0xFEA
  5341                           fsr0l	equ	0xFE9
  5342                           wreg	equ	0xFE8
  5343                           postdec1	equ	0xFE5
  5344                           fsr1h	equ	0xFE2
  5345                           fsr1l	equ	0xFE1
  5346                           indf2	equ	0xFDF
  5347                           fsr2h	equ	0xFDA
  5348                           fsr2l	equ	0xFD9
  5349                           status	equ	0xFD8


Data Sizes:
    Strings     23
    Constant    0
    Data        514
    BSS         138
    Persistent  0
    Stack       0

Auto Spaces:
    Space          Size  Autos    Used
    COMRAM           95     34      94
    BANK0           160      0      80
    BANK1           256      0       0
    BANK2           256      0       0
    BANK3           256      0       0
    BANK4           256      0       0
    BANK5           256      0       0
    BANK6           256      0       0
    BANK7           256      0       0
    BANK8           256      0       0
    BANK9           256      0       0
    BANK10          256      0       0
    BANK11          256      0       0
    BANK12          256      0       0
    BANK13          256      0       0
    BANK14           65      0       0

Pointer List with Targets:

    allocated	PTR unsigned char  size(2) Largest target is 0
		 -> NULL(NULL[0]), 

    utoa@buf	PTR unsigned char  size(2) Largest target is 5
		 -> number_array(COMRAM[5]), 

    sp__utoa	PTR unsigned char  size(2) Largest target is 5
		 -> number_array(COMRAM[5]), 

    itoa@buf	PTR unsigned char  size(2) Largest target is 5
		 -> number_array(COMRAM[5]), 

    itoa@cp	PTR unsigned char  size(2) Largest target is 5
		 -> number_array(COMRAM[5]), 

    sp__itoa	PTR unsigned char  size(2) Largest target is 5
		 -> number_array(COMRAM[5]), 

    lcd_write@s	PTR const unsigned char  size(2) Largest target is 8
		 -> STR_6(CODE[8]), STR_5(CODE[8]), STR_4(CODE[8]), STR_3(CODE[3]), 
		 -> STR_2(CODE[2]), STR_1(CODE[2]), number_array(COMRAM[5]), 


Critical Paths under _main in COMRAM

    _main->_lcd_write_number
    _lcd_write_number->_itoa
    _lcd_write->_lcd_yaz
    _lcd_yaz->_lcd_goto
    _itoa->_utoa
    _utoa->___lwdiv
    _PWM5_initialize->_PWM3_set_value
    _PWM4_initialize->_PWM4_set_value
    _PWM3_initialize->_PWM3_set_value
    _PWM2_initialize->_PWM2_set_value
    _LCD_init->_lcd_clear
    _lcd_clear->_lcd_goto
    _lcd_goto->_lcd_info
    _lcd_info->_shift_reg_set_pin_lcd
    _shift_reg_set_pin_lcd->_load_shift_data_lcd

Critical Paths under _main in BANK0

    None.

Critical Paths under _main in BANK1

    None.

Critical Paths under _main in BANK2

    None.

Critical Paths under _main in BANK3

    None.

Critical Paths under _main in BANK4

    None.

Critical Paths under _main in BANK5

    None.

Critical Paths under _main in BANK6

    None.

Critical Paths under _main in BANK7

    None.

Critical Paths under _main in BANK8

    None.

Critical Paths under _main in BANK9

    None.

Critical Paths under _main in BANK10

    None.

Critical Paths under _main in BANK11

    None.

Critical Paths under _main in BANK12

    None.

Critical Paths under _main in BANK13

    None.

Critical Paths under _main in BANK14

    None.

Call Graph Tables:

 ---------------------------------------------------------------------------------
 (Depth) Function   	        Calls       Base Space   Used Autos Params    Refs
 ---------------------------------------------------------------------------------
 (0) _main                                                 8     8      0   24048
                                             26 COMRAM     8     8      0
                           _ADC_init
                           _ADC_read
                     _DHT11_get_data
                   _EEPROM_read_byte
                  _EEPROM_write_byte
                          _I2C_Start
                           _I2C_Stop
                      _I2C_data_send
                     _I2C_initialize
                           _LCD_init
                    _PWM2_initialize
                     _PWM2_set_value
                    _PWM3_initialize
                     _PWM3_set_value
                    _PWM4_initialize
                     _PWM4_set_value
                    _PWM5_initialize
                     _PWM5_set_value
                    _UART1_byte_send
                         _UART1_init
                         _UART2_init
                          _lcd_clear
                          _lcd_write
                   _lcd_write_number
                               _wait
 ---------------------------------------------------------------------------------
 (1) _wait                                                 3     3      0      30
                                              0 COMRAM     3     3      0
 ---------------------------------------------------------------------------------
 (1) _lcd_write_number                                     2     0      2    6023
                                             24 COMRAM     2     0      2
                               _itoa
                          _lcd_write
 ---------------------------------------------------------------------------------
 (2) _lcd_write                                            3     1      2    4383
                                             15 COMRAM     3     1      2
                            _lcd_yaz
 ---------------------------------------------------------------------------------
 (3) _lcd_yaz                                              1     1      0    3890
                                             14 COMRAM     1     1      0
                           _lcd_goto
                           _lcd_info
 ---------------------------------------------------------------------------------
 (2) _itoa                                                 8     2      6    1554
                                             16 COMRAM     8     2      6
                               _utoa
 ---------------------------------------------------------------------------------
 (3) _utoa                                                 9     3      6    1199
                                              7 COMRAM     9     3      6
                            ___lwdiv
                            ___lwmod
 ---------------------------------------------------------------------------------
 (4) ___lwmod                                              5     1      4     287
                                              0 COMRAM     5     1      4
 ---------------------------------------------------------------------------------
 (4) ___lwdiv                                              7     3      4     418
                                              0 COMRAM     7     3      4
 ---------------------------------------------------------------------------------
 (1) _UART2_init                                           0     0      0       0
 ---------------------------------------------------------------------------------
 (1) _UART1_init                                           0     0      0       0
 ---------------------------------------------------------------------------------
 (1) _UART1_byte_send                                      1     1      0      15
                                              0 COMRAM     1     1      0
 ---------------------------------------------------------------------------------
 (1) _PWM5_set_value                                       4     2      2     130
                                              0 COMRAM     4     2      2
 ---------------------------------------------------------------------------------
 (1) _PWM5_initialize                                      0     0      0     258
                     _PWM3_set_value
 ---------------------------------------------------------------------------------
 (1) _PWM4_initialize                                      0     0      0     194
                     _PWM4_set_value
 ---------------------------------------------------------------------------------
 (1) _PWM4_set_value                                       4     2      2     194
                                              0 COMRAM     4     2      2
 ---------------------------------------------------------------------------------
 (1) _PWM3_initialize                                      0     0      0     258
                     _PWM3_set_value
 ---------------------------------------------------------------------------------
 (2) _PWM3_set_value                                       4     2      2     258
                                              0 COMRAM     4     2      2
 ---------------------------------------------------------------------------------
 (1) _PWM2_initialize                                      0     0      0     194
                     _PWM2_set_value
 ---------------------------------------------------------------------------------
 (1) _PWM2_set_value                                       4     2      2     194
                                              0 COMRAM     4     2      2
 ---------------------------------------------------------------------------------
 (1) _LCD_init                                             1     1      0    6856
                                             15 COMRAM     1     1      0
                          _lcd_clear
                           _lcd_info
              _shift_reg_set_pin_lcd
 ---------------------------------------------------------------------------------
 (1) _lcd_clear                                            1     1      0    3868
                                             14 COMRAM     1     1      0
                           _lcd_goto
                           _lcd_info
 ---------------------------------------------------------------------------------
 (4) _lcd_goto                                             3     2      1    2053
                                             11 COMRAM     3     2      1
                           _lcd_info
 ---------------------------------------------------------------------------------
 (4) _lcd_info                                             3     2      1    1815
                                              8 COMRAM     3     2      1
              _shift_reg_set_pin_lcd
 ---------------------------------------------------------------------------------
 (5) _shift_reg_set_pin_lcd                                4     3      1    1173
                                              4 COMRAM     4     3      1
                _load_shift_data_lcd
 ---------------------------------------------------------------------------------
 (6) _load_shift_data_lcd                                  4     4      0      60
                                              0 COMRAM     4     4      0
 ---------------------------------------------------------------------------------
 (1) _I2C_initialize                                       1     1      0       0
                                              0 COMRAM     1     1      0
 ---------------------------------------------------------------------------------
 (1) _I2C_data_send                                        1     1      0      15
                                              0 COMRAM     1     1      0
 ---------------------------------------------------------------------------------
 (1) _I2C_Stop                                             0     0      0       0
 ---------------------------------------------------------------------------------
 (1) _I2C_Start                                            0     0      0       0
 ---------------------------------------------------------------------------------
 (1) _EEPROM_write_byte                                    3     0      3     706
                                              0 COMRAM     3     0      3
 ---------------------------------------------------------------------------------
 (1) _EEPROM_read_byte                                     2     0      2     108
                                              0 COMRAM     2     0      2
 ---------------------------------------------------------------------------------
 (1) _DHT11_get_data                                       5     5      0     135
                                              0 COMRAM     5     5      0
 ---------------------------------------------------------------------------------
 (1) _ADC_read                                             7     5      2      45
                                              0 COMRAM     7     5      2
 ---------------------------------------------------------------------------------
 (1) _ADC_init                                             1     1      0       0
                                              0 COMRAM     1     1      0
 ---------------------------------------------------------------------------------
 Estimated maximum stack depth 6
 ---------------------------------------------------------------------------------

 Call Graph Graphs:

 _main (ROOT)
   _ADC_init
   _ADC_read
   _DHT11_get_data
   _EEPROM_read_byte
   _EEPROM_write_byte
   _I2C_Start
   _I2C_Stop
   _I2C_data_send
   _I2C_initialize
   _LCD_init
     _lcd_clear
       _lcd_goto
         _lcd_info
           _shift_reg_set_pin_lcd
             _load_shift_data_lcd
       _lcd_info
         _shift_reg_set_pin_lcd
           _load_shift_data_lcd
     _lcd_info
       _shift_reg_set_pin_lcd
         _load_shift_data_lcd
     _shift_reg_set_pin_lcd
       _load_shift_data_lcd
   _PWM2_initialize
     _PWM2_set_value
   _PWM2_set_value
   _PWM3_initialize
     _PWM3_set_value
   _PWM3_set_value
   _PWM4_initialize
     _PWM4_set_value
   _PWM4_set_value
   _PWM5_initialize
     _PWM3_set_value
   _PWM5_set_value
   _UART1_byte_send
   _UART1_init
   _UART2_init
   _lcd_clear
     _lcd_goto
       _lcd_info
         _shift_reg_set_pin_lcd
           _load_shift_data_lcd
     _lcd_info
       _shift_reg_set_pin_lcd
         _load_shift_data_lcd
   _lcd_write
     _lcd_yaz
       _lcd_goto
         _lcd_info
           _shift_reg_set_pin_lcd
             _load_shift_data_lcd
       _lcd_info
         _shift_reg_set_pin_lcd
           _load_shift_data_lcd
   _lcd_write_number
     _itoa
       _utoa
         ___lwdiv
         ___lwmod
     _lcd_write
       _lcd_yaz
         _lcd_goto
           _lcd_info
             _shift_reg_set_pin_lcd
               _load_shift_data_lcd
         _lcd_info
           _shift_reg_set_pin_lcd
             _load_shift_data_lcd
   _wait

 Address spaces:
Name               Size   Autos  Total    Cost      Usage
BIGRAM             E40      0     200      35       14.0%
EEDATA             400      0       0       0        0.0%
BITBANK13          100      0       0      31        0.0%
BANK13             100      0       0      32        0.0%
BITBANK12          100      0       0      29        0.0%
BANK12             100      0       0      30        0.0%
BITBANK11          100      0       0      27        0.0%
BANK11             100      0       0      28        0.0%
BITBANK10          100      0       0      25        0.0%
BANK10             100      0       0      26        0.0%
BITBANK9           100      0       0      23        0.0%
BANK9              100      0       0      24        0.0%
BITBANK8           100      0       0      21        0.0%
BANK8              100      0       0      22        0.0%
BITBANK7           100      0       0      19        0.0%
BANK7              100      0       0      20        0.0%
BITBANK6           100      0       0      17        0.0%
BANK6              100      0       0      18        0.0%
BITBANK5           100      0       0      15        0.0%
BANK5              100      0       0      16        0.0%
BITBANK4           100      0       0      13        0.0%
BANK4              100      0       0      14        0.0%
BITBANK3           100      0       0      11        0.0%
BANK3              100      0       0      12        0.0%
BITBANK2           100      0       0       9        0.0%
BANK2              100      0       0      10        0.0%
BITBANK1           100      0       0       7        0.0%
BANK1              100      0       0       8        0.0%
BITBANK0            A0      0       0       4        0.0%
BANK0               A0      0      50       5       50.0%
BITCOMRAM           5F      0       0       0        0.0%
COMRAM              5F     22      5E       1       98.9%
BITBANK14           41      0       0      33        0.0%
BANK14              41      0       0      34        0.0%
BITSFR_2             0      0       0      40        0.0%
SFR_2                0      0       0      40        0.0%
BITSFR_1             0      0       0      40        0.0%
SFR_1                0      0       0      40        0.0%
BITSFR               0      0       0      40        0.0%
SFR                  0      0       0      40        0.0%
STACK                0      0       0       2        0.0%
NULL                 0      0       0       0        0.0%
ABS                  0      0      AE       6        0.0%
DATA                 0      0     2AE       3        0.0%
CODE                 0      0       0       0        0.0%


Microchip Technology PIC18 Macro Assembler V1.37 build -260352376 
Symbol Table                                                                                   Wed Mar 18 11:48:25 2020

                              _j 002B               __size_of_I2C_Start 000A  
                             _BF 007E38                               _RD 007BF8  
                             u30 1818                               u24 180A  
                             u25 1806                               _WR 007BF9  
                             __x 005D                               __y 005E  
                             _kk 000B                      __CFG_BORV$3 000000  
                   __CFG_CP0$OFF 000000                     __CFG_CP1$OFF 000000  
                   __CFG_CP2$OFF 000000                     __CFG_CP3$OFF 000000  
               ??_PWM2_set_value 003D                              l312 14EE  
                            l316 155E                              l308 14C0  
                            l332 1832                              l309 14EA  
                            l425 17BA                              l602 1D12  
                            l358 13AC                              l625 0FF2  
              ??_PWM3_initialize 003F                              l554 1BE0  
                            l563 1D1C                              l548 1CFA  
                            l580 1BF2                              l628 112A  
                            l389 1D06                              l583 1C02  
                            l586 1C06                              _CKE 007E3E  
                            l971 168E                              _CKP 007E34  
                   __CFG_CPB$OFF 000000                              _RC1 007C11  
                            _RD0 007C18                              _RF1 007C29  
                            _RF3 007C2B                              _RF4 007C2C  
                            _RF5 007C2D                              _PR2 000FCB  
                            _PEN 007E2A                     __CFG_CPD$OFF 000000  
                            u484 152E                              _SEN 007E28  
                            u485 152A                              _SMP 007E3F  
                    _unnecessary 0035                              _nem 002D  
                    lcd_goto@p_1 0048                      lcd_goto@p_2 0046  
                            prod 000FF3                              wreg 000FE8  
                     _TXSTA1bits 000FAC                     __CFG_IESO$ON 000000  
                     _TXSTA2bits 000FBA                 ??_PWM3_set_value 003D  
                           l1050 188C                             l1060 1AC8  
                           l2201 13A2                             l1501 14F6  
                           l1511 1508                             l1263 17F6  
                           l1513 150A                             l1505 14FE  
                           l2305 1650                             l1523 1536  
                           l1515 1510                             l1531 1542  
                           l1507 1502                             l2235 1AF2  
                           l1517 1512                             l1269 181A  
                           l2237 1B00                             l2245 185A  
                           l2333 16C2                             l2247 1862  
                           l2351 1A72                             l2193 190C  
                           l2361 1A4A                             l2257 1882  
                           l2249 1866                             l2273 1ABE  
                           l2265 1A9E                             l2195 1926  
                           l2267 1AA6                             l2291 1B3A  
                           l1651 1C16                             l1485 14A0  
                           l2269 1AAA                             l2359 1A3C  
                           l2367 19F4                             l2375 19AC  
                           l2463 1964                             l2295 1616  
                           l1655 1C26                             l2703 1094  
                           l1489 14A8                             l2369 1A02  
                           l2377 19BA                             l2465 1972  
                           l2731 114E                             l2653 0FDA  
                           l1759 1BF8                             l2735 1164  
                           l2649 0FD2                             l2693 1072  
                           l2697 107E                             _ADIF 007CF6  
                           _ADFM 007E07                             _ADON 007E10  
                           _CHS0 007E12                             _CHS1 007E13  
                           _CHS2 007E14                             _CHS3 007E15  
                           _CFGS 007BFE                             _CHS4 007E16  
                           _EEIF 007DBE                             STR_1 0F14  
                           STR_2 0F16                             STR_3 0F11  
                           STR_4 0F09                             STR_6 0F01  
                           u2007 1836                             u1400 19F0  
                           u1320 16E4                             u2017 183E  
                           u1330 171E                             u2027 1BB8  
                           u1420 19FE                             u2037 14CA  
                           u1174 1902                             u1510 196E  
                           u2047 14D8                             u1175 18FE  
                           u1327 16DA                             u1184 191C  
                           u1360 1A38                             u1440 19A8  
                           u2057 14E4                             u1185 1918  
                           u1337 1714                             u2067 17AE  
                           u1380 1A46                             u1460 19B6  
                           u2077 17DC                             u2087 18C6  
                           u2097 18D8                             u1490 1960  
                           u1717 0F28                             u1807 10F0  
                           u1727 0F3E                             u1817 1110  
                           u1737 0F4C                             u1907 15EA  
                           u1827 1C1C                             u1747 0FAA  
                           u1917 1604                             u1837 16B8  
                           u1757 1024                             u1927 1B5E  
                           u1847 16F2                             u1767 1032  
                           u1937 1B06                             u1857 172A  
                           u1777 1050                             u1947 13FC  
                           u1867 158C                             u1787 10B0  
                           u1957 1416                             u1877 15A4  
                           u1797 10D0                             u1967 1478  
                           u1887 15BC                             u1977 1492  
                           u1897 15D6                             u1987 1822  
                           _RCEN 007E2B                             u1997 182A  
                           _SCS0 007E98                             _SCS1 007E99  
                DHT11_get_data@a 003D                             _SLRF 007C85  
                   __CFG_WDTPS$4 000000                             _WREN 007BFA  
              _current_value_lcd 0028                      lcd_yaz@data 0049  
                           _buff 00B0                             _main 0F1A  
                           _itoa 1A4E                             _saim 0021  
                           _nisa 002E                             _wait 1C0E  
                           fsr0h 000FEA                             fsr1h 000FE2  
                           indf0 000FEF                             fsr0l 000FE9  
                           fsr2h 000FDA                             fsr1l 000FE1  
                           indf2 000FDF                             fsr2l 000FD9  
                           _utoa 160E                 ??_PWM4_set_value 003D  
              ??_PWM4_initialize 003F                 __end_of_I2C_Stop 1D1A  
               _EEPROM_read_byte 1CEC                             prodl 000FF3  
                           start 0000                 __end_of_ADC_init 18E4  
               __end_of_ADC_read 17F0                 ??_I2C_initialize 003B  
                   ___param_bank 000010                 ??_PWM5_set_value 003D  
                    ?_UART1_init 003B                      ?_UART2_init 003B  
                   _BAUDCON1bits 000FA7                     _BAUDCON2bits 000FB9  
               __end_of_LCD_init 160E                            _DC2B0 007A84  
                          _DC2B1 007A85                            _DC3B0 007A6C  
                          _DC3B1 007A6D                            _DC4B0 007A54  
                          _DC4B1 007A55                            _DC5B0 007A3C  
                          _DC5B1 007A3D                            _ADCS0 007E00  
                          _ADCS1 007E01                            _ADCS2 007E02  
                          ?_main 003B                            _ACKEN 007E2C  
                          _ACKDT 007E2D                            _ACQT0 007E03  
                          _ACQT1 007E04                            _ACQT2 007E05  
                          ?_itoa 004B                            _EEADR 000F74  
                          ?_wait 003B                            _EEPGD 007BFF  
                          ?_utoa 0042                            _IRCF0 007E9C  
                          _IRCF1 007E9D                            _IRCF2 007E9E  
              ??_PWM5_initialize 003F                  __end_of___lwdiv 1896  
                __end_of___lwmod 1AD2                            _VCFG0 007E0C  
                          _VCFG1 007E0D                            _PORTD 000F83  
                          _PORTE 000F84                            _PORTF 000F85  
                          _VNCFG 007E0B                            _SSPM0 007E30  
                          _SSPM1 007E31                            _SSPM2 007E32  
                          _SSPM3 007E33                            _TRISD 000F95  
                          _TRISE 000F96                            _SSPIF 007CF3  
                          _SSPEN 007E35                    __CFG_WRT0$OFF 000000  
                  __CFG_WRT2$OFF 000000                    __CFG_WRT3$OFF 000000  
                 __CFG_EBTR0$OFF 000000                   __CFG_EBTR1$OFF 000000  
                 __CFG_EBTR2$OFF 000000                   __CFG_EBTR3$OFF 000000  
                  __CFG_WRTB$OFF 000000                  __end_of_lcd_yaz 1B46  
                  __CFG_WRTC$OFF 000000                    __CFG_WRTD$OFF 000000  
                 __CFG_EBTRB$OFF 000000                            _cevap 0027  
                          _error 0029                            _tempo 0033  
                          main@j 005B                            main@k 005A  
              __end_of_I2C_Start 1D24                   __CFG_BOREN$OFF 000000  
                          tablat 000FF5                            wait@k 003D  
                          utoa@c 004A                            utoa@v 0048  
                          status 000FD8                 ??_DHT11_get_data 003B  
                  main@add_value 0056              UART1_byte_send@data 003B  
                 __CFG_MCLRE$OFF 000000                  __initialization 1736  
                   __end_of_main 118C                     __end_of_itoa 1A90  
                   __end_of_wait 1C30                     __end_of_utoa 16B2  
                         ??_main 0055                           ??_itoa 0051  
                         ??_wait 003B                     _CARD_VERSION 0023  
                         ??_utoa 0048                    __activetblptr 000002  
                 __CFG_RETEN$OFF 000000                           _C2TSEL 007CC9  
                         _C3TSEL 007CCA                           _C4TSEL 007CCB  
                         _C5TSEL 007CCC                           _ADCON0 000FC2  
                         _CCP2M2 007A82                           _CCP2M3 007A83  
                         _CCP3M2 007A6A                           _CCP3M3 007A6B  
                         _CCP4M2 007A52                           _CCP4M3 007A53  
                         _CCP5M2 007A3A                           _CCP5M3 007A3B  
                         _ADRESH 000FC4                           _EEADRH 000F75  
                         _ADRESL 000FC3                           _EEDATA 000F73  
                         _CCPR2L 000F51                           _CCPR3L 000F4E  
                         _CCPR4L 000F4B                           _CCPR5L 000F48  
                         _EECON2 000F7E                           _ANCON0 000F5D  
                         _ANCON1 000F5C                           _ANSEL0 007AE8  
                         _ANSEL1 007AE9                           _GODONE 007E11  
                __CFG_BBSIZ$BB1K 000000                   __CFG_WDTEN$OFF 000000  
        ??_shift_reg_set_pin_lcd 0040                           _INTSRC 007CDF  
                         _RCREG1 000FAE                           _RCREG2 000F7A  
            __size_of_UART1_init 001A              __size_of_UART2_init 001A  
                         _SPBRG1 000FAF                           _SPBRG2 000F7B  
                         _TMR2ON 007E52                           _SSPADD 000FC8  
                         _TRISA0 007C90                           _TRISA1 007C91  
                         _TRISC1 007CA1                           _TRISD0 007CA8  
                         _TRISC2 007CA2                           _TRISC3 007CA3  
                         _TRISB5 007C9D                           _TRISC4 007CA4  
                         _TRISB6 007C9E                           _TRISC5 007CA5  
                         _TRISC6 007CA6                           _TRISF1 007CB9  
                         _TRISC7 007CA7                           _TRISG0 007CC0  
                         _TRISF3 007CBB                           _TRISF4 007CBC  
                         _TRISE6 007CB6                           _TRISG3 007CC3  
                         _TRISF5 007CBD                           _TRISE7 007CB7  
                         _SSPBUF 000FC9                           _TXREG1 000FAD  
                         _TXREG2 000F79           __size_of_I2C_data_send 0024  
                 __CFG_XINST$OFF 000000                 __end_of_lcd_info 149C  
               __end_of_lcd_goto 1B12                           __temp_ 0026  
                      ??___lwdiv 003F                        ??___lwmod 003F  
       __end_of_lcd_write_number 1B9E                  _UART1_byte_send 1D04  
                         clear_0 173C                           clear_1 1748  
                         _status 0032                        ??_lcd_yaz 0049  
                   __pdataBIGRAM 00B0                           itoa@cp 0051  
                   __pdataCOMRAM 005D                        ?_I2C_Stop 003B  
                   __mediumconst 0000                  _PWM2_initialize 1C96  
                         tblptrh 000FF7                           tblptrl 000FF6  
                         tblptru 000FF8                        ?_ADC_init 003B  
                      ?_ADC_read 003B                _EEPROM_write_byte 1BC4  
                __CFG_BORPWR$LOW 000000                       __accesstop 0060  
        __end_of__initialization 178A               ?_EEPROM_write_byte 003B  
                      ?_LCD_init 003B                    ___rparam_used 000001  
                _PWM3_initialize 1C74              ??_EEPROM_write_byte 003E  
                 __pcstackCOMRAM 003B                       _dht11_data 0018  
       __end_of_EEPROM_read_byte 1D04                    _I2C_data_send 1BEA  
                     ??_I2C_Stop 003B               __size_of_lcd_clear 002E  
                _PWM4_initialize 1C52                       ??_ADC_init 003B  
                     ??_ADC_read 003D        __end_of_EEPROM_write_byte 1BEA  
     shift_reg_set_pin_lcd@value 003F               __size_of_lcd_write 0084  
                     __pbssBANK0 0060                  __CFG_PLLCFG$OFF 000000  
                     ??_LCD_init 004A          __end_of_UART1_byte_send 1D10  
                _PWM5_initialize 1C30     __size_of_load_shift_data_lcd 0054  
                   ??_UART1_init 003B                     ??_UART2_init 003B  
        __end_of_PWM2_initialize 1CB8  shift_reg_set_pin_lcd@pin_number 0042  
                        _T2CKPS0 007E50                          _T2CKPS1 007E51  
                 ?_I2C_data_send 003B                          _MFIOSEL 007E90  
                     _hig_values 0060                          _SD_RESP 0013  
                      ?_lcd_info 0043                        ?_lcd_goto 0046  
                 _low_time_count 002C          __end_of_PWM3_initialize 1C96  
             __end_of_UART1_init 1CEC               __end_of_UART2_init 1CD2  
                      _I2C_Start 1D1A                  __CFG_PWRTEN$OFF 000000  
                        __Hparam 0000                          __Lparam 0000  
              __end_of_lcd_clear 1B74                __end_of_lcd_write 1736  
                        ___lwdiv 1844                          ___lwmod 1A90  
                   __psmallconst 0F00                  __CFG_STVREN$OFF 000000  
                        __pcinit 1736                          __ramtop 0F00  
        __end_of_PWM4_initialize 1C74                          __ptext0 0F1A  
                        __ptext1 1C0E                          __ptext2 1B74  
                        __ptext3 16B2                          __ptext4 1B12  
                        __ptext5 1A4E                          __ptext6 160E  
                        __ptext7 1A90                          __ptext8 1844  
                        __ptext9 1CB8                          _lcd_yaz 1B12  
     __size_of_EEPROM_write_byte 0026                       ??_lcd_info 0044  
                     ??_lcd_goto 0047               __CFG_INTOSCSEL$LOW 000000  
           end_of_initialization 178A          __size_of_PWM2_set_value 0048  
            PWM2_set_value@value 003B          __end_of_PWM5_initialize 1C52  
                        itoa@buf 004B                          itoa@val 004D  
                  __Lmediumconst 0000   __size_of_shift_reg_set_pin_lcd 004A  
  __end_of_shift_reg_set_pin_lcd 192E                       ?_I2C_Start 003B  
                 _measured_value 001F                       _low_values 0088  
        __size_of_PWM3_set_value 0048                          wait@val 003C  
               ?_UART1_byte_send 003B                          postdec1 000FE5  
                        postinc0 000FEE                          utoa@buf 0042  
                        utoa@val 0044          __size_of_PWM4_set_value 0048  
              ?_lcd_write_number 0053                 ?_PWM2_initialize 003B  
                ??_I2C_data_send 003B          __size_of_I2C_initialize 0026  
             ??_lcd_write_number 0055                 __CFG_FOSC$INTIO2 000000  
         lcd_write_number@number 0053          __size_of_PWM5_set_value 0048  
              __size_of_I2C_Stop 000A                __size_of_ADC_init 004E  
              __size_of_ADC_read 005C                 ?_PWM3_initialize 003B  
            PWM3_set_value@value 003B                       lcd_write@s 004A  
              __size_of_LCD_init 00A6          __size_of_DHT11_get_data 00CC  
                  __pidataBIGRAM 118C                    __pidataCOMRAM 1D24  
               ?_PWM4_initialize 003B                lcd_info@data_type 0043  
              ?_EEPROM_read_byte 003B              start_initialization 1736  
             ??_EEPROM_read_byte 003D              _load_shift_data_lcd 17F0  
               ?_PWM5_initialize 003B                      ??_I2C_Start 003B  
           ?_load_shift_data_lcd 003B              PWM4_set_value@value 003B  
                    __pbssCOMRAM 0001                   _PWM2_set_value 1A06  
              __size_of_lcd_info 0110                __size_of_lcd_goto 0040  
                 _PWM3_set_value 19BE                 ___lwdiv@dividend 003B  
          ??_load_shift_data_lcd 003B                        _denemelik 0001  
                      _allocated 001D         DHT11_get_data@byte_index 003E  
                       ?___lwdiv 003B                         ?___lwmod 003B  
                 _PWM4_set_value 1976                        _lcd_clear 1B46  
                 _I2C_initialize 1B9E                        _lcd_write 16B2  
                       ?_lcd_yaz 003B                      __smallconst 0F00  
       EEPROM_write_byte@address 003B                   _PWM5_set_value 192E  
                       _I2C_Stop 1D10              PWM5_set_value@value 003B  
                       _ADC_init 1896                         _ADC_read 1794  
         __end_of_PWM2_set_value 1A4E                 ___lwdiv@quotient 003F  
                      _received2 0030           __end_of_PWM3_set_value 1A06  
                       _LCD_init 1568                         _PIR1bits 000F9E  
                       _PIR3bits 000FA4           __end_of_PWM4_set_value 19BE  
                 _DHT11_get_data 149C           __end_of_I2C_initialize 1BC4  
                     ?_lcd_clear 003B                        _threshold 0034  
         __end_of_PWM5_set_value 1976                       ?_lcd_write 004A  
                      main@k_935 0058                 __CFG_SOSCSEL$DIG 000000  
                      lcd_info@c 0045                I2C_data_send@data 003B  
         ADC_read@channel_number 0041                  ?_PWM2_set_value 003B  
                    ADC_read@val 003F                        copy_data0 1762  
      __size_of_lcd_write_number 002A                  ?_PWM3_set_value 003B  
                       __Hrparam 0000            _shift_reg_set_pin_lcd 18E4  
         __end_of_DHT11_get_data 1568                         __Lrparam 0000  
        DHT11_get_data@bit_index 003F                  ?_PWM4_set_value 003B  
                ?_I2C_initialize 003B                 __size_of___lwdiv 0052  
               __size_of___lwmod 0042          load_shift_data_lcd@data 003D  
       __size_of_UART1_byte_send 000C                  _high_time_count 002A  
                ?_PWM5_set_value 003B            __end_of_I2C_data_send 1C0E  
               __size_of_lcd_yaz 0034                  ___lwdiv@divisor 003D  
                ___lwdiv@counter 0041                         __ptext10 1CD2  
                       __ptext11 1D04                         __ptext20 1568  
                       __ptext12 192E                         __ptext21 1B46  
                       __ptext13 1C30                         __ptext30 1BC4  
                       __ptext22 1AD2                         __ptext14 1C52  
                       __ptext31 1CEC                         __ptext23 138C  
                       __ptext15 1976                         __ptext32 149C  
                       __ptext24 18E4                         __ptext16 1C74  
                       __ptext33 1794                         __ptext25 17F0  
                       __ptext17 19BE                         __ptext34 1896  
                       __ptext26 1B9E                         __ptext18 1C96  
                       __ptext27 1BEA                         __ptext19 1A06  
                       __ptext28 1D10                         __ptext29 1D1A  
       __size_of_PWM2_initialize 0022                         _lcd_info 138C  
                       _lcd_goto 1AD2             load_shift_data_lcd@a 003E  
                  __size_of_main 0272                    __size_of_itoa 0042  
                  __size_of_wait 0022                    __size_of_utoa 00A4  
      __size_of_EEPROM_read_byte 0018                         _received 002F  
                       _sicaklik 0031                  ?_DHT11_get_data 003B  
       __size_of_PWM3_initialize 0022                      ??_lcd_clear 0049  
                    ??_lcd_write 004C                         itoa@base 004F  
       __size_of_PWM4_initialize 0022                     _number_array 0036  
               ___lwmod@dividend 003B                      _SHOWN_BYTES 0025  
                     _RCSTA1bits 000FAB                       _RCSTA2bits 000FA6  
         ?_shift_reg_set_pin_lcd 003F           EEPROM_write_byte@value 003D  
       __size_of_PWM5_initialize 0022                       _UART1_init 1CD2  
                     _UART2_init 1CB8                         utoa@base 0046  
                ___lwmod@divisor 003D                  ___lwmod@counter 003F  
              ??_UART1_byte_send 003B                 _lcd_write_number 1B74  
    __end_of_load_shift_data_lcd 1844                ??_PWM2_initialize 003F  
                _CURRENT_MESSAGE 0024          EEPROM_read_byte@address 003B  
