

Microchip Technology PIC18 LITE Macro Assembler V1.37 build -260352376 
                                                                                               Sun Mar 15 11:23:37 2020

Microchip Technology Omniscient Code Generator v1.37 (Free mode) build 201603110536
     1                           	processor	18F2550
     2                           	fnconf	rparam,??,?,0
     3                           	opt	pw 120
     4                           	opt	lm
     5                           	psect	idataCOMRAM,global,class=CODE,delta=1
     6                           	psect	idataBANK0,global,class=CODE,delta=1
     7                           	psect	smallconst,global,reloc=2,class=SMALLCONST,delta=1
     8                           	psect	cinit,global,reloc=2,class=CODE,delta=1
     9                           	psect	bssCOMRAM,global,class=COMRAM,space=1,delta=1
    10                           	psect	dataCOMRAM,global,class=COMRAM,space=1,delta=1
    11                           	psect	bssBANK0,global,class=BANK0,space=1,delta=1
    12                           	psect	dataBANK0,global,class=BANK0,space=1,delta=1
    13                           	psect	cstackCOMRAM,global,class=COMRAM,space=1,delta=1
    14                           	psect	text0,global,reloc=2,class=CODE,delta=1
    15                           	psect	text1,global,reloc=2,class=CODE,delta=1
    16                           	psect	text2,global,reloc=2,class=CODE,delta=1
    17                           	psect	text3,global,reloc=2,class=CODE,delta=1
    18                           	psect	text4,global,reloc=2,class=CODE,delta=1
    19                           	psect	text5,global,reloc=2,class=CODE,delta=1
    20                           	psect	text6,global,reloc=2,class=CODE,delta=1
    21                           	psect	text7,global,reloc=2,class=CODE,delta=1
    22                           	psect	text8,global,reloc=2,class=CODE,delta=1
    23                           	psect	text9,global,reloc=2,class=CODE,delta=1
    24                           	psect	text10,global,reloc=2,class=CODE,delta=1
    25                           	psect	text11,global,reloc=2,class=CODE,delta=1
    26                           	psect	text12,global,reloc=2,class=CODE,delta=1
    27                           	psect	text13,global,reloc=2,class=CODE,delta=1
    28                           	psect	text14,global,reloc=2,class=CODE,delta=1
    29                           	psect	text15,global,reloc=2,class=CODE,delta=1
    30                           	psect	text16,global,reloc=2,class=CODE,delta=1
    31                           	psect	text17,global,reloc=2,class=CODE,delta=1
    32                           	psect	text18,global,reloc=2,class=CODE,delta=1
    33                           	psect	text19,global,reloc=2,class=CODE,delta=1
    34                           	psect	text20,global,reloc=2,class=CODE,delta=1
    35                           	psect	text21,global,reloc=2,class=CODE,delta=1
    36                           	psect	text22,global,reloc=2,class=CODE,delta=1
    37                           	psect	text23,global,reloc=2,class=CODE,delta=1
    38                           	psect	text24,global,reloc=2,class=CODE,delta=1
    39                           	psect	text25,global,reloc=2,class=CODE,delta=1
    40                           	psect	text26,global,reloc=2,class=CODE,delta=1
    41                           	psect	text27,global,reloc=2,class=CODE,delta=1
    42                           	psect	text28,global,reloc=2,class=CODE,delta=1
    43                           	psect	text29,global,reloc=2,class=CODE,delta=1
    44                           	psect	text30,global,reloc=2,class=CODE,delta=1
    45                           	psect	text31,global,reloc=2,class=CODE,delta=1
    46                           	psect	text32,global,reloc=2,class=CODE,delta=1
    47                           	psect	text33,global,reloc=2,class=CODE,delta=1
    48                           	psect	intsave_regs,global,class=BIGRAM,space=1,delta=1
    49                           	psect	rparam,global,class=COMRAM,space=1,delta=1
    50                           	dabs	1,0x480,64,_ReceivedDataBuffer
    51                           	dabs	1,0x400,32,_BDT
    52                           	dabs	1,0x4C0,64,_ToSendDataBuffer
    53                           	dabs	1,0x520,8,_CtrlTrfData
    54                           	dabs	1,0x500,8,_SetupPkt
    55                           	dabs	1,0x530,3,_hid_report_out
    56                           	dabs	1,0x570,3,_hid_report_in
    57  0000                     
    58                           	psect	idataCOMRAM
    59  001B7A                     __pidataCOMRAM:
    60                           	opt stack 0
    61                           
    62                           ;initializer for _blinkStatusValid
    63  001B7A  01                 	db	1
    64                           
    65                           	psect	idataBANK0
    66  001B60                     __pidataBANK0:
    67                           	opt stack 0
    68                           
    69                           ;initializer for _uyan
    70  001B60  30                 	db	48
    71  001B61  31                 	db	49
    72  001B62  30                 	db	48
    73  001B63  31                 	db	49
    74  001B64  30                 	db	48
    75  001B65  31                 	db	49
    76  001B66  30                 	db	48
    77  001B67  31                 	db	49
    78  001B68  00                 	db	0
    79                           
    80                           	psect	smallconst
    81  000800                     __psmallconst:
    82                           	opt stack 0
    83  000800  00                 	db	0
    84  000801                     _USB_SD_Ptr:
    85                           	opt stack 0
    86  000801  BF                 	db	low _sd000
    87  000802  08                 	db	high _sd000
    88  000803  09                 	db	low _sd001
    89  000804  08                 	db	high _sd001
    90  000805  3D                 	db	low _sd002
    91  000806  08                 	db	high _sd002
    92  000807                     __end_of_USB_SD_Ptr:
    93                           	opt stack 0
    94  000807                     _USB_CD_Ptr:
    95                           	opt stack 0
    96  000807  67                 	db	low _configDescriptor1
    97  000808  08                 	db	high _configDescriptor1
    98  000809                     __end_of_USB_CD_Ptr:
    99                           	opt stack 0
   100  000809                     _sd001:
   101                           	opt stack 0
   102  000809  34                 	db	52
   103  00080A  03                 	db	3
   104  00080B  004D               	dw	77
   105  00080D  0069               	dw	105
   106  00080F  0063               	dw	99
   107  000811  0072               	dw	114
   108  000813  006F               	dw	111
   109  000815  0063               	dw	99
   110  000817  0068               	dw	104
   111  000819  0069               	dw	105
   112  00081B  0070               	dw	112
   113  00081D  0020               	dw	32
   114  00081F  0054               	dw	84
   115  000821  0065               	dw	101
   116  000823  0063               	dw	99
   117  000825  0068               	dw	104
   118  000827  006E               	dw	110
   119  000829  006F               	dw	111
   120  00082B  006C               	dw	108
   121  00082D  006F               	dw	111
   122  00082F  0067               	dw	103
   123  000831  0079               	dw	121
   124  000833  0020               	dw	32
   125  000835  0049               	dw	73
   126  000837  006E               	dw	110
   127  000839  0063               	dw	99
   128  00083B  002E               	dw	46
   129  00083D                     __end_of_sd001:
   130                           	opt stack 0
   131  00083D                     _sd002:
   132                           	opt stack 0
   133  00083D  2A                 	db	42
   134  00083E  03                 	db	3
   135  00083F  004D               	dw	77
   136  000841  0049               	dw	73
   137  000843  0043               	dw	67
   138  000845  0052               	dw	82
   139  000847  004F               	dw	79
   140  000849  0045               	dw	69
   141  00084B  004D               	dw	77
   142  00084D  0042               	dw	66
   143  00084F  0045               	dw	69
   144  000851  0044               	dw	68
   145  000853  0045               	dw	69
   146  000855  0044               	dw	68
   147  000857  0020               	dw	32
   148  000859  0055               	dw	85
   149  00085B  0053               	dw	83
   150  00085D  0042               	dw	66
   151  00085F  0020               	dw	32
   152  000861  0049               	dw	73
   153  000863  004F               	dw	79
   154  000865  0020               	dw	32
   155  000867                     __end_of_sd002:
   156                           	opt stack 0
   157  000867                     _configDescriptor1:
   158                           	opt stack 0
   159  000867  09                 	db	9
   160  000868  02                 	db	2
   161  000869  29                 	db	41
   162  00086A  00                 	db	0
   163  00086B  01                 	db	1
   164  00086C  01                 	db	1
   165  00086D  00                 	db	0
   166  00086E  C0                 	db	192
   167  00086F  32                 	db	50
   168  000870  09                 	db	9
   169  000871  04                 	db	4
   170  000872  00                 	db	0
   171  000873  00                 	db	0
   172  000874  02                 	db	2
   173  000875  03                 	db	3
   174  000876  00                 	db	0
   175  000877  00                 	db	0
   176  000878  00                 	db	0
   177  000879  09                 	db	9
   178  00087A  21                 	db	33
   179  00087B  11                 	db	17
   180  00087C  01                 	db	1
   181  00087D  00                 	db	0
   182  00087E  01                 	db	1
   183  00087F  22                 	db	34
   184  000880  1D                 	db	29
   185  000881  00                 	db	0
   186  000882  07                 	db	7
   187  000883  05                 	db	5
   188  000884  81                 	db	129
   189  000885  03                 	db	3
   190  000886  40                 	db	64
   191  000887  00                 	db	0
   192  000888  01                 	db	1
   193  000889  07                 	db	7
   194  00088A  05                 	db	5
   195  00088B  01                 	db	1
   196  00088C  03                 	db	3
   197  00088D  40                 	db	64
   198  00088E  00                 	db	0
   199  00088F  01                 	db	1
   200  000890                     __end_of_configDescriptor1:
   201                           	opt stack 0
   202  000890                     _hid_rpt01:
   203                           	opt stack 0
   204  000890  06                 	db	6
   205  000891  00                 	db	0
   206  000892  FF                 	db	255
   207  000893  09                 	db	9
   208  000894  01                 	db	1
   209  000895  A1                 	db	161
   210  000896  01                 	db	1
   211  000897  19                 	db	25
   212  000898  01                 	db	1
   213  000899  29                 	db	41
   214  00089A  40                 	db	64
   215  00089B  15                 	db	21
   216  00089C  00                 	db	0
   217  00089D  26                 	db	38
   218  00089E  FF                 	db	255
   219  00089F  00                 	db	0
   220  0008A0  75                 	db	117
   221  0008A1  08                 	db	8
   222  0008A2  95                 	db	149
   223  0008A3  40                 	db	64
   224  0008A4  81                 	db	129
   225  0008A5  00                 	db	0
   226  0008A6  19                 	db	25
   227  0008A7  01                 	db	1
   228  0008A8  29                 	db	41
   229  0008A9  40                 	db	64
   230  0008AA  91                 	db	145
   231  0008AB  00                 	db	0
   232  0008AC  C0                 	db	192
   233  0008AD                     __end_of_hid_rpt01:
   234                           	opt stack 0
   235  0008AD                     _device_dsc:
   236                           	opt stack 0
   237  0008AD  12                 	db	18
   238  0008AE  01                 	db	1
   239  0008AF  0200               	dw	512
   240  0008B1  00                 	db	0
   241  0008B2  00                 	db	0
   242  0008B3  00                 	db	0
   243  0008B4  08                 	db	8
   244  0008B5  04D8               	dw	1240
   245  0008B7  0042               	dw	66
   246  0008B9  0002               	dw	2
   247  0008BB  01                 	db	1
   248  0008BC  02                 	db	2
   249  0008BD  00                 	db	0
   250  0008BE  01                 	db	1
   251  0008BF                     __end_of_device_dsc:
   252                           	opt stack 0
   253  0008BF                     _sd000:
   254                           	opt stack 0
   255  0008BF  04                 	db	4
   256  0008C0  03                 	db	3
   257  0008C1  0409               	dw	1033
   258  0008C3                     __end_of_sd000:
   259                           	opt stack 0
   260  0000                     _PORTB	set	3969
   261  0000                     _PORTC	set	3970
   262  0000                     _TRISB	set	3987
   263  0000                     _TRISC	set	3988
   264  0000                     _UADDR	set	3950
   265  0000                     _UCFG	set	3951
   266  0000                     _UCON	set	3949
   267  0000                     _UCONbits	set	3949
   268  0000                     _UEIE	set	3947
   269  0000                     _UEIR	set	3946
   270  0000                     _UEP0bits	set	3952
   271  0000                     _UIE	set	3945
   272  0000                     _UIEbits	set	3945
   273  0000                     _UIR	set	3944
   274  0000                     _UIRbits	set	3944
   275  0000                     _USTAT	set	3948
   276  0000                     _UEP0	set	3952
   277  0000                     _UEP1	set	3953
   278  0000                     _PKTDIS	set	31596
   279  0000                     _RB2	set	31754
   280  0000                     _RC0	set	31760
   281  0000                     _RC1	set	31761
   282  0000                     _RC2	set	31762
   283  0000                     _RESUME	set	31594
   284  0000                     _SE0	set	31597
   285  0000                     _SUSPND	set	31593
   286  0000                     _ADRESH	set	4036
   287  0000                     _ADRESL	set	4035
   288  0000                     _PIR2bits	set	4001
   289  0000                     _ADCS0	set	32256
   290  0000                     _ADCS1	set	32257
   291  0000                     _ADCS2	set	32258
   292  0000                     _ADFM	set	32263
   293  0000                     _ADON	set	32272
   294  0000                     _CHS0	set	32274
   295  0000                     _CHS1	set	32275
   296  0000                     _CHS2	set	32276
   297  0000                     _GO_DONE	set	32273
   298  0000                     _PCFG0	set	32264
   299  0000                     _PCFG1	set	32265
   300  0000                     _PCFG2	set	32266
   301  0000                     _PCFG3	set	32267
   302                           
   303                           ; #config settings
   304  0008C3  00                 	db	0	; dummy byte at the end
   305  0000                     
   306                           	psect	cinit
   307  001926                     __pcinit:
   308                           	opt stack 0
   309  001926                     start_initialization:
   310                           	opt stack 0
   311  001926                     __initialization:
   312                           	opt stack 0
   313                           
   314                           ; Clear objects allocated to BANK0 (8 bytes)
   315  001926  EE00  F069         	lfsr	0,__pbssBANK0
   316  00192A  0E08               	movlw	8
   317  00192C                     clear_0:
   318  00192C  6AEE               	clrf	postinc0,c
   319  00192E  06E8               	decf	wreg,f,c
   320  001930  E1FD               	bnz	clear_0
   321                           
   322                           ; Clear objects allocated to COMRAM (57 bytes)
   323  001932  EE00  F001         	lfsr	0,__pbssCOMRAM
   324  001936  0E39               	movlw	57
   325  001938                     clear_1:
   326  001938  6AEE               	clrf	postinc0,c
   327  00193A  06E8               	decf	wreg,f,c
   328  00193C  E1FD               	bnz	clear_1
   329                           
   330                           ; Initialize objects allocated to BANK0 (9 bytes)
   331                           ; load TBLPTR registers with __pidataBANK0
   332  00193E  0E60               	movlw	low __pidataBANK0
   333  001940  6EF6               	movwf	tblptrl,c
   334  001942  0E1B               	movlw	high __pidataBANK0
   335  001944  6EF7               	movwf	tblptrh,c
   336  001946  0E00               	movlw	low (__pidataBANK0 shr (0+16))
   337  001948  6EF8               	movwf	tblptru,c
   338  00194A  EE00  F060         	lfsr	0,__pdataBANK0
   339  00194E  EE10 F009          	lfsr	1,9
   340  001952                     copy_data0:
   341  001952  0009               	tblrd		*+
   342  001954  CFF5 FFEE          	movff	tablat,postinc0
   343  001958  50E5               	movf	postdec1,w,c
   344  00195A  50E1               	movf	fsr1l,w,c
   345  00195C  E1FA               	bnz	copy_data0
   346                           
   347                           ; Initialize objects allocated to COMRAM (1 bytes)
   348                           ; load TBLPTR registers with __pidataCOMRAM
   349  00195E  0E7A               	movlw	low __pidataCOMRAM
   350  001960  6EF6               	movwf	tblptrl,c
   351  001962  0E1B               	movlw	high __pidataCOMRAM
   352  001964  6EF7               	movwf	tblptrh,c
   353  001966  0E00               	movlw	low (__pidataCOMRAM shr (0+16))
   354  001968  6EF8               	movwf	tblptru,c
   355  00196A  0009               	tblrd		*+	;fetch initializer
   356  00196C  CFF5 F05C          	movff	tablat,__pdataCOMRAM
   357  001970                     end_of_initialization:
   358                           	opt stack 0
   359  001970                     __end_of__initialization:
   360                           	opt stack 0
   361  001970  0E00               	movlw	low (__Lmediumconst shr (0+16))
   362  001972  6EF8               	movwf	tblptru,c
   363  001974  0100               	movlb	0
   364  001976  EF62  F004         	goto	_main	;jump to C main() function
   365                           tblptru	equ	0xFF8
   366                           tblptrh	equ	0xFF7
   367                           tblptrl	equ	0xFF6
   368                           tablat	equ	0xFF5
   369                           postinc0	equ	0xFEE
   370                           wreg	equ	0xFE8
   371                           postdec1	equ	0xFE5
   372                           fsr1l	equ	0xFE1
   373                           
   374                           	psect	bssCOMRAM
   375  000001                     __pbssCOMRAM:
   376                           	opt stack 0
   377  000001                     _outPipes:
   378                           	opt stack 0
   379  000001                     	ds	8
   380  000009                     _inPipes:
   381                           	opt stack 0
   382  000009                     	ds	6
   383  00000F                     _pBDTEntryIn:
   384                           	opt stack 0
   385  00000F                     	ds	4
   386  000013                     _pBDTEntryOut:
   387                           	opt stack 0
   388  000013                     	ds	4
   389  000017                     _USBInData:
   390                           	opt stack 0
   391  000017                     	ds	3
   392  00001A                     USBCBSendResume@delay_count:
   393                           	opt stack 0
   394  00001A                     	ds	2
   395  00001C                     _USBInHandle:
   396                           	opt stack 0
   397  00001C                     	ds	2
   398  00001E                     _USBInMaxPacketSize:
   399                           	opt stack 0
   400  00001E                     	ds	2
   401  000020                     _USBOutHandle:
   402                           	opt stack 0
   403  000020                     	ds	2
   404  000022                     _a:
   405                           	opt stack 0
   406  000022                     	ds	2
   407  000024                     _bolum:
   408                           	opt stack 0
   409  000024                     	ds	2
   410  000026                     _index:
   411                           	opt stack 0
   412  000026                     	ds	2
   413  000028                     _pBDTEntryEP0OutCurrent:
   414                           	opt stack 0
   415  000028                     	ds	2
   416  00002A                     _pBDTEntryEP0OutNext:
   417                           	opt stack 0
   418  00002A                     	ds	2
   419  00002C                     _pDst:
   420                           	opt stack 0
   421  00002C                     	ds	2
   422  00002E                     _sayi:
   423                           	opt stack 0
   424  00002E                     	ds	2
   425  000030                     _BothEP0OutUOWNsSet:
   426                           	opt stack 0
   427  000030                     	ds	1
   428  000031                     _RemoteWakeup:
   429                           	opt stack 0
   430  000031                     	ds	1
   431  000032                     _USBDeviceState:
   432                           	opt stack 0
   433  000032                     	ds	1
   434  000033                     _controlTransferState:
   435                           	opt stack 0
   436  000033                     	ds	1
   437  000034                     _shortPacketStatus:
   438                           	opt stack 0
   439  000034                     	ds	1
   440  000035                     _USBActiveConfiguration:
   441                           	opt stack 0
   442  000035                     	ds	1
   443  000036                     _USBAlternateInterface:
   444                           	opt stack 0
   445  000036                     	ds	1
   446  000037                     _USTATcopy:
   447                           	opt stack 0
   448  000037                     	ds	1
   449  000038                     _active_protocol:
   450                           	opt stack 0
   451  000038                     	ds	1
   452  000039                     _idle_rate:
   453                           	opt stack 0
   454  000039                     	ds	1
   455                           tblptru	equ	0xFF8
   456                           tblptrh	equ	0xFF7
   457                           tblptrl	equ	0xFF6
   458                           tablat	equ	0xFF5
   459                           postinc0	equ	0xFEE
   460                           wreg	equ	0xFE8
   461                           postdec1	equ	0xFE5
   462                           fsr1l	equ	0xFE1
   463                           
   464                           	psect	dataCOMRAM
   465  00005C                     __pdataCOMRAM:
   466                           	opt stack 0
   467  00005C                     _blinkStatusValid:
   468                           	opt stack 0
   469  00005C                     	ds	1
   470                           tblptru	equ	0xFF8
   471                           tblptrh	equ	0xFF7
   472                           tblptrl	equ	0xFF6
   473                           tablat	equ	0xFF5
   474                           postinc0	equ	0xFEE
   475                           wreg	equ	0xFE8
   476                           postdec1	equ	0xFE5
   477                           fsr1l	equ	0xFE1
   478                           
   479                           	psect	bssBANK0
   480  000069                     __pbssBANK0:
   481                           	opt stack 0
   482  000069                     _gelen_veri:
   483                           	opt stack 0
   484  000069                     	ds	8
   485                           tblptru	equ	0xFF8
   486                           tblptrh	equ	0xFF7
   487                           tblptrl	equ	0xFF6
   488                           tablat	equ	0xFF5
   489                           postinc0	equ	0xFEE
   490                           wreg	equ	0xFE8
   491                           postdec1	equ	0xFE5
   492                           fsr1l	equ	0xFE1
   493                           
   494                           	psect	dataBANK0
   495  000060                     __pdataBANK0:
   496                           	opt stack 0
   497  000060                     _uyan:
   498                           	opt stack 0
   499  000060                     	ds	9
   500                           tblptru	equ	0xFF8
   501                           tblptrh	equ	0xFF7
   502                           tblptrl	equ	0xFF6
   503                           tablat	equ	0xFF5
   504                           postinc0	equ	0xFEE
   505                           wreg	equ	0xFE8
   506                           postdec1	equ	0xFE5
   507                           fsr1l	equ	0xFE1
   508                           
   509                           	psect	cstackCOMRAM
   510  00003A                     __pcstackCOMRAM:
   511                           	opt stack 0
   512  00003A                     ??_USBCtrlTrfRxService:
   513  00003A                     ??_USBCtrlTrfTxService:
   514  00003A                     ??_USBStdGetDscHandler:
   515  00003A                     ??_USBStdGetStatusHandler:
   516  00003A                     ??_USBStdFeatureReqHandler:
   517  00003A                     ?_USBTransferOnePacket:
   518                           	opt stack 0
   519  00003A                     ?___awmod:
   520                           	opt stack 0
   521  00003A                     USBConfigureEndpoint@direction:
   522                           	opt stack 0
   523  00003A                     USBTransferOnePacket@dir:
   524                           	opt stack 0
   525  00003A                     USBPrepareForNextSetupTrf@p:
   526                           	opt stack 0
   527  00003A                     ___awmod@dividend:
   528                           	opt stack 0
   529  00003A                     memset@p1:
   530                           	opt stack 0
   531                           
   532                           ; 2 bytes @ 0x0
   533  00003A                     	ds	1
   534  00003B                     ??_USBConfigureEndpoint:
   535  00003B                     USBStdFeatureReqHandler@pUEP:
   536                           	opt stack 0
   537  00003B                     USBStdGetStatusHandler@p:
   538                           	opt stack 0
   539  00003B                     USBTransferOnePacket@data:
   540                           	opt stack 0
   541                           
   542                           ; 2 bytes @ 0x1
   543  00003B                     	ds	1
   544  00003C                     USBCtrlTrfRxService@i:
   545                           	opt stack 0
   546  00003C                     USBCtrlTrfTxService@byteToSend:
   547                           	opt stack 0
   548  00003C                     ___awmod@divisor:
   549                           	opt stack 0
   550  00003C                     memset@c:
   551                           	opt stack 0
   552                           
   553                           ; 2 bytes @ 0x2
   554  00003C                     	ds	1
   555  00003D                     USBCtrlTrfRxService@byteToRead:
   556                           	opt stack 0
   557  00003D                     USBConfigureEndpoint@workaround:
   558                           	opt stack 0
   559  00003D                     USBTransferOnePacket@len:
   560                           	opt stack 0
   561  00003D                     USBStdFeatureReqHandler@p:
   562                           	opt stack 0
   563                           
   564                           ; 2 bytes @ 0x3
   565  00003D                     	ds	1
   566  00003E                     USBCtrlTrfInHandler@lastDTS:
   567                           	opt stack 0
   568  00003E                     USBConfigureEndpoint@EPNum:
   569                           	opt stack 0
   570  00003E                     USBTransferOnePacket@ep:
   571                           	opt stack 0
   572  00003E                     ___awmod@counter:
   573                           	opt stack 0
   574  00003E                     memset@n:
   575                           	opt stack 0
   576                           
   577                           ; 2 bytes @ 0x4
   578  00003E                     	ds	1
   579  00003F                     ___awmod@sign:
   580                           	opt stack 0
   581  00003F                     USBConfigureEndpoint@handle:
   582                           	opt stack 0
   583  00003F                     USBTransferOnePacket@handle:
   584                           	opt stack 0
   585                           
   586                           ; 2 bytes @ 0x5
   587  00003F                     	ds	1
   588  000040                     ?___awdiv:
   589                           	opt stack 0
   590  000040                     ___awdiv@dividend:
   591                           	opt stack 0
   592  000040                     memset@p:
   593                           	opt stack 0
   594                           
   595                           ; 2 bytes @ 0x6
   596  000040                     	ds	1
   597  000041                     USBEnableEndpoint@options:
   598                           	opt stack 0
   599                           
   600                           ; 1 bytes @ 0x7
   601  000041                     	ds	1
   602  000042                     USBDeviceInit@i:
   603                           	opt stack 0
   604  000042                     USBEnableEndpoint@p:
   605                           	opt stack 0
   606  000042                     ___awdiv@divisor:
   607                           	opt stack 0
   608                           
   609                           ; 2 bytes @ 0x8
   610  000042                     	ds	2
   611  000044                     USBEnableEndpoint@ep:
   612                           	opt stack 0
   613  000044                     ___awdiv@counter:
   614                           	opt stack 0
   615                           
   616                           ; 1 bytes @ 0xA
   617  000044                     	ds	1
   618  000045                     ___awdiv@sign:
   619                           	opt stack 0
   620  000045                     USER_USB_CALLBACK_EVENT_HANDLER@event:
   621                           	opt stack 0
   622                           
   623                           ; 2 bytes @ 0xB
   624  000045                     	ds	1
   625  000046                     ___awdiv@quotient:
   626                           	opt stack 0
   627                           
   628                           ; 2 bytes @ 0xC
   629  000046                     	ds	1
   630  000047                     USER_USB_CALLBACK_EVENT_HANDLER@pdata:
   631                           	opt stack 0
   632                           
   633                           ; 2 bytes @ 0xD
   634  000047                     	ds	2
   635  000049                     USER_USB_CALLBACK_EVENT_HANDLER@size:
   636                           	opt stack 0
   637                           
   638                           ; 2 bytes @ 0xF
   639  000049                     	ds	2
   640  00004B                     ??_USER_USB_CALLBACK_EVENT_HANDLER:
   641                           
   642                           ; 1 bytes @ 0x11
   643  00004B                     	ds	2
   644  00004D                     ??_USBCtrlEPService:
   645  00004D                     
   646                           ; 1 bytes @ 0x13
   647  00004D                     	ds	2
   648  00004F                     USBCtrlEPService@setup_cnt:
   649                           	opt stack 0
   650                           
   651                           ; 1 bytes @ 0x15
   652  00004F                     	ds	1
   653  000050                     ??_USBDeviceTasks:
   654                           
   655                           ; 1 bytes @ 0x16
   656  000050                     	ds	1
   657  000051                     USBDeviceTasks@i:
   658                           	opt stack 0
   659                           
   660                           ; 1 bytes @ 0x17
   661  000051                     	ds	1
   662  000052                     ??_main:
   663                           
   664                           ; 1 bytes @ 0x18
   665  000052                     	ds	2
   666  000054                     main@say:
   667                           	opt stack 0
   668                           
   669                           ; 2 bytes @ 0x1A
   670  000054                     	ds	2
   671  000056                     _main$170:
   672                           	opt stack 0
   673                           
   674                           ; 2 bytes @ 0x1C
   675  000056                     	ds	2
   676  000058                     _main$206:
   677                           	opt stack 0
   678                           
   679                           ; 2 bytes @ 0x1E
   680  000058                     	ds	2
   681  00005A                     main@tempature:
   682                           	opt stack 0
   683                           
   684                           ; 2 bytes @ 0x20
   685  00005A                     	ds	2
   686                           tblptru	equ	0xFF8
   687                           tblptrh	equ	0xFF7
   688                           tblptrl	equ	0xFF6
   689                           tablat	equ	0xFF5
   690                           postinc0	equ	0xFEE
   691                           wreg	equ	0xFE8
   692                           postdec1	equ	0xFE5
   693                           fsr1l	equ	0xFE1
   694                           
   695 ;;
   696 ;;Main: autosize = 0, tempsize = 2, incstack = 0, save=0
   697 ;;
   698 ;; *************** function _main *****************
   699 ;; Defined at:
   700 ;;		line 43 in file "USBTest.c"
   701 ;; Parameters:    Size  Location     Type
   702 ;;		None
   703 ;; Auto vars:     Size  Location     Type
   704 ;;  tempature       2   32[COMRAM] int 
   705 ;;  say             2   26[COMRAM] int 
   706 ;; Return value:  Size  Location     Type
   707 ;;                  1    wreg      void 
   708 ;; Registers used:
   709 ;;		wreg, fsr1l, fsr1h, fsr2l, fsr2h, status,2, status,0, tblptrl, tblptrh, tblptru, prodl, prodh, cstack
   710 ;; Tracked objects:
   711 ;;		On entry : 0/0
   712 ;;		On exit  : 0/0
   713 ;;		Unchanged: 0/0
   714 ;; Data sizes:     COMRAM   BANK0   BANK1   BANK2   BANK3  BANK4lBANK5hhhBANK5hhl BANK5hl  BANK5l   BANK6   BANK7
   715 ;;      Params:         0       0       0       0       0       0       0       0       0       0       0       0
   716 ;;      Locals:         8       0       0       0       0       0       0       0       0       0       0       0
   717 ;;      Temps:          2       0       0       0       0       0       0       0       0       0       0       0
   718 ;;      Totals:        10       0       0       0       0       0       0       0       0       0       0       0
   719 ;;Total ram usage:       10 bytes
   720 ;; Hardware stack levels required when called:    9
   721 ;; This function calls:
   722 ;;		_USBDeviceInit
   723 ;;		_USBDeviceTasks
   724 ;;		_USBTransferOnePacket
   725 ;;		___awdiv
   726 ;;		___awmod
   727 ;; This function is called by:
   728 ;;		Startup code after reset
   729 ;; This function uses a non-reentrant model
   730 ;;
   731                           
   732                           	psect	text0
   733  0008C4                     __ptext0:
   734                           	opt stack 0
   735  0008C4                     _main:
   736                           	opt stack 22
   737                           
   738                           ;incstack = 0
   739  0008C4  0E9C               	movlw	156
   740  0008C6  6E52               	movwf	??_main& (0+255),c
   741  0008C8  0ED7               	movlw	215
   742  0008CA                     u2667:
   743  0008CA  2EE8               	decfsz	wreg,f,c
   744  0008CC  D7FE               	goto	u2667
   745  0008CE  2E52               	decfsz	??_main& (0+255),f,c
   746  0008D0  D7FC               	goto	u2667
   747  0008D2  F000               	nop	
   748                           
   749                           ;USBTest.c: 47: TRISB = 0b00000000;
   750  0008D4  0E00               	movlw	0
   751  0008D6  6E93               	movwf	3987,c	;volatile
   752                           
   753                           ;USBTest.c: 48: TRISC = 0b00000000;
   754  0008D8  0E00               	movlw	0
   755  0008DA  6E94               	movwf	3988,c	;volatile
   756                           
   757                           ;USBTest.c: 49: ADCS2=1;
   758  0008DC  84C0               	bsf	4032,2,c	;volatile
   759                           
   760                           ;USBTest.c: 50: ADCS1=0;
   761  0008DE  92C0               	bcf	4032,1,c	;volatile
   762                           
   763                           ;USBTest.c: 51: ADCS0=1;
   764  0008E0  80C0               	bsf	4032,0,c	;volatile
   765                           
   766                           ;USBTest.c: 54: PCFG3=1;
   767  0008E2  86C1               	bsf	4033,3,c	;volatile
   768                           
   769                           ;USBTest.c: 55: PCFG2=1;
   770  0008E4  84C1               	bsf	4033,2,c	;volatile
   771                           
   772                           ;USBTest.c: 56: PCFG1=1;
   773  0008E6  82C1               	bsf	4033,1,c	;volatile
   774                           
   775                           ;USBTest.c: 57: PCFG0=0;
   776  0008E8  90C1               	bcf	4033,0,c	;volatile
   777                           
   778                           ;USBTest.c: 58: ADFM=1;
   779  0008EA  8EC0               	bsf	4032,7,c	;volatile
   780                           
   781                           ;USBTest.c: 59: ADON=1;
   782  0008EC  80C2               	bsf	4034,0,c	;volatile
   783                           
   784                           ;USBTest.c: 62: int tempature;
   785                           ;USBTest.c: 64: CHS2=0;
   786  0008EE  98C2               	bcf	4034,4,c	;volatile
   787                           
   788                           ;USBTest.c: 65: CHS1=0;
   789  0008F0  96C2               	bcf	4034,3,c	;volatile
   790                           
   791                           ;USBTest.c: 66: CHS0=0;
   792  0008F2  94C2               	bcf	4034,2,c	;volatile
   793                           
   794                           ;USBTest.c: 67: _delay((unsigned long)((15)*(48000000/4000.0)));
   795  0008F4  0EEA               	movlw	234
   796  0008F6  6E52               	movwf	??_main& (0+255),c
   797  0008F8  0EC3               	movlw	195
   798  0008FA                     u2677:
   799  0008FA  2EE8               	decfsz	wreg,f,c
   800  0008FC  D7FE               	goto	u2677
   801  0008FE  2E52               	decfsz	??_main& (0+255),f,c
   802  000900  D7FC               	goto	u2677
   803  000902  F000               	nop	
   804                           
   805                           ;USBTest.c: 68: GO_DONE=1;
   806  000904  82C2               	bsf	4034,1,c	;volatile
   807  000906                     l83:
   808  000906  A2C2               	btfss	4034,1,c	;volatile
   809  000908  D7FE               	goto	l83
   810                           
   811                           ;USBTest.c: 70: tempature=(int)((ADRESH*256+ADRESL)/2);
   812  00090A  50C4               	movf	4036,w,c	;volatile
   813  00090C  6E53               	movwf	(??_main+1)& (0+255),c
   814  00090E  6A52               	clrf	??_main& (0+255),c
   815  000910  50C3               	movf	4035,w,c	;volatile
   816  000912  2452               	addwf	??_main,w,c
   817  000914  6E40               	movwf	___awdiv@dividend,c
   818  000916  0E00               	movlw	0
   819  000918  2053               	addwfc	??_main+1,w,c
   820  00091A  6E41               	movwf	___awdiv@dividend+1,c
   821  00091C  0E00               	movlw	0
   822  00091E  6E43               	movwf	___awdiv@divisor+1,c
   823  000920  0E02               	movlw	2
   824  000922  6E42               	movwf	___awdiv@divisor,c
   825  000924  ECA3  F00B         	call	___awdiv	;wreg free
   826  000928  C040  F05A         	movff	?___awdiv,main@tempature
   827  00092C  C041  F05B         	movff	?___awdiv+1,main@tempature+1
   828                           
   829                           ;USBTest.c: 71: tempature=(tempature%100)/10;
   830  000930  0E00               	movlw	0
   831  000932  6E3D               	movwf	___awmod@divisor+1,c
   832  000934  0E64               	movlw	100
   833  000936  6E3C               	movwf	___awmod@divisor,c
   834  000938  C05A  F03A         	movff	main@tempature,___awmod@dividend
   835  00093C  C05B  F03B         	movff	main@tempature+1,___awmod@dividend+1
   836  000940  EC25  F00C         	call	___awmod	;wreg free
   837  000944  C03A  F040         	movff	?___awmod,___awdiv@dividend
   838  000948  C03B  F041         	movff	?___awmod+1,___awdiv@dividend+1
   839  00094C  0E00               	movlw	0
   840  00094E  6E43               	movwf	___awdiv@divisor+1,c
   841  000950  0E0A               	movlw	10
   842  000952  6E42               	movwf	___awdiv@divisor,c
   843  000954  ECA3  F00B         	call	___awdiv	;wreg free
   844  000958  C040  F05A         	movff	?___awdiv,main@tempature
   845  00095C  C041  F05B         	movff	?___awdiv+1,main@tempature+1
   846                           
   847                           ;USBTest.c: 74: PORTB = 0b00000000;
   848  000960  0E00               	movlw	0
   849  000962  6E81               	movwf	3969,c	;volatile
   850                           
   851                           ;USBTest.c: 75: PORTC = 0b00000000;
   852  000964  0E00               	movlw	0
   853  000966  6E82               	movwf	3970,c	;volatile
   854                           
   855                           ;USBTest.c: 83: USBOutHandle = 0;
   856  000968  0E00               	movlw	0
   857  00096A  6E20               	movwf	_USBOutHandle,c
   858  00096C  0E00               	movlw	0
   859  00096E  6E21               	movwf	_USBOutHandle+1,c
   860                           
   861                           ;USBTest.c: 84: USBInHandle = 0;
   862  000970  0E00               	movlw	0
   863  000972  6E1C               	movwf	_USBInHandle,c
   864  000974  0E00               	movlw	0
   865  000976  6E1D               	movwf	_USBInHandle+1,c
   866                           
   867                           ;USBTest.c: 88: USBDeviceInit();
   868  000978  ECD1  F00A         	call	_USBDeviceInit	;wreg free
   869                           
   870                           ;USBTest.c: 90: USBDeviceTasks();
   871  00097C  EC54  F006         	call	_USBDeviceTasks	;wreg free
   872                           
   873                           ;USBTest.c: 93: if((USBDeviceState < CONFIGURED_STATE)||(SUSPND==1));
   874  000980  0E1F               	movlw	31
   875  000982  6432               	cpfsgt	_USBDeviceState,c
   876  000984  D000               	goto	l3085
   877  000986                     l3085:
   878                           
   879                           ;USBTest.c: 98: int say=0;
   880  000986  0E00               	movlw	0
   881  000988  6E55               	movwf	main@say+1,c
   882  00098A  0E00               	movlw	0
   883  00098C  6E54               	movwf	main@say,c
   884  00098E                     l3087:
   885                           
   886                           ;USBTest.c: 101: {
   887                           ;USBTest.c: 105: USBDeviceTasks();
   888  00098E  EC54  F006         	call	_USBDeviceTasks	;wreg free
   889                           
   890                           ;USBTest.c: 108: if((USBDeviceState < CONFIGURED_STATE)||(SUSPND==1))continue;
   891  000992  0E1F               	movlw	31
   892  000994  6432               	cpfsgt	_USBDeviceState,c
   893  000996  D7FB               	goto	l3087
   894  000998  B26D               	btfsc	3949,1,c	;volatile
   895  00099A  D7F9               	goto	l3087
   896                           
   897                           ;USBTest.c: 109: if(!(USBOutHandle==0?0:((volatile BDT_ENTRY*)USBOutHandle)->STAT.UOWN))
   898  00099C  5020               	movf	_USBOutHandle,w,c
   899  00099E  1021               	iorwf	_USBOutHandle+1,w,c
   900  0009A0  B4D8               	btfsc	status,2,c
   901  0009A2  D00E               	goto	l3097
   902  0009A4  C020  FFD9         	movff	_USBOutHandle,fsr2l
   903  0009A8  C021  FFDA         	movff	_USBOutHandle+1,fsr2h
   904  0009AC  AEDF               	btfss	indf2,7,c
   905  0009AE  D003               	goto	u2450
   906  0009B0  6A52               	clrf	??_main& (0+255),c
   907  0009B2  2A52               	incf	??_main& (0+255),f,c
   908  0009B4  D001               	goto	u2458
   909  0009B6                     u2450:
   910  0009B6  6A52               	clrf	??_main& (0+255),c
   911  0009B8                     u2458:
   912  0009B8  5052               	movf	??_main,w,c
   913  0009BA  6E56               	movwf	_main$170,c
   914  0009BC  6A57               	clrf	_main$170+1,c
   915  0009BE  D004               	goto	l3099
   916  0009C0                     l3097:
   917  0009C0  0E00               	movlw	0
   918  0009C2  6E57               	movwf	_main$170+1,c
   919  0009C4  0E00               	movlw	0
   920  0009C6  6E56               	movwf	_main$170,c
   921  0009C8                     l3099:
   922  0009C8  5056               	movf	_main$170,w,c
   923  0009CA  1057               	iorwf	_main$170+1,w,c
   924  0009CC  A4D8               	btfss	status,2,c
   925  0009CE  D7DF               	goto	l3087
   926                           
   927                           ;USBTest.c: 110: {
   928                           ;USBTest.c: 112: if(ReceivedDataBuffer[0]=='0')
   929  0009D0  0E30               	movlw	48
   930  0009D2  0104               	movlb	4	; () banked
   931  0009D4  1980               	xorwf	128,w,b
   932  0009D6  A4D8               	btfss	status,2,c
   933  0009D8  D006               	goto	l3105
   934                           
   935                           ; BSR set to: 4
   936                           ;USBTest.c: 113: {
   937                           ;USBTest.c: 116: RC0 = ~RC0;
   938  0009DA  B082               	btfsc	3970,0,c	;volatile
   939  0009DC  D002               	goto	u2480
   940  0009DE  8082               	bsf	3970,0,c	;volatile
   941  0009E0  D017               	goto	l3113
   942  0009E2                     u2480:
   943  0009E2  9082               	bcf	3970,0,c	;volatile
   944                           
   945                           ;USBTest.c: 118: }else
   946  0009E4  D015               	goto	l3113
   947  0009E6                     l3105:
   948                           
   949                           ;USBTest.c: 119: if(ReceivedDataBuffer[0]=='1')
   950  0009E6  0E31               	movlw	49
   951  0009E8  0104               	movlb	4	; () banked
   952  0009EA  1980               	xorwf	128,w,b
   953  0009EC  A4D8               	btfss	status,2,c
   954  0009EE  D006               	goto	l3109
   955                           
   956                           ; BSR set to: 4
   957                           ;USBTest.c: 120: {
   958                           ;USBTest.c: 123: RC1 = ~RC1;
   959  0009F0  B282               	btfsc	3970,1,c	;volatile
   960  0009F2  D002               	goto	u2510
   961  0009F4  8282               	bsf	3970,1,c	;volatile
   962  0009F6  D00C               	goto	l3113
   963  0009F8                     u2510:
   964  0009F8  9282               	bcf	3970,1,c	;volatile
   965                           
   966                           ;USBTest.c: 125: } else
   967  0009FA  D00A               	goto	l3113
   968  0009FC                     l3109:
   969                           
   970                           ;USBTest.c: 126: if(ReceivedDataBuffer[0]=='2')
   971  0009FC  0E32               	movlw	50
   972  0009FE  0104               	movlb	4	; () banked
   973  000A00  1980               	xorwf	128,w,b
   974  000A02  A4D8               	btfss	status,2,c
   975  000A04  D005               	goto	l3113
   976                           
   977                           ; BSR set to: 4
   978                           ;USBTest.c: 127: {
   979                           ;USBTest.c: 129: RC2 = ~RC2;
   980  000A06  B482               	btfsc	3970,2,c	;volatile
   981  000A08  D002               	goto	u2540
   982  000A0A  8482               	bsf	3970,2,c	;volatile
   983  000A0C  D001               	goto	l3113
   984  000A0E                     u2540:
   985  000A0E  9482               	bcf	3970,2,c	;volatile
   986  000A10                     l3113:
   987                           
   988                           ;USBTest.c: 132: }
   989                           ;USBTest.c: 133: if(ReceivedDataBuffer[0]=='3')
   990  000A10  0E33               	movlw	51
   991  000A12  0104               	movlb	4	; () banked
   992  000A14  1980               	xorwf	128,w,b
   993  000A16  A4D8               	btfss	status,2,c
   994  000A18  D005               	goto	l3119
   995                           
   996                           ; BSR set to: 4
   997                           ;USBTest.c: 134: {
   998                           ;USBTest.c: 135: if(RB2)RB2=0;
   999  000A1A  A481               	btfss	3969,2,c	;volatile
  1000  000A1C  D002               	goto	l105
  1001                           
  1002                           ; BSR set to: 4
  1003  000A1E  9481               	bcf	3969,2,c	;volatile
  1004  000A20  D001               	goto	l3119
  1005  000A22                     l105:
  1006                           
  1007                           ; BSR set to: 4
  1008                           ;USBTest.c: 136: else RB2=1;
  1009  000A22  8481               	bsf	3969,2,c	;volatile
  1010  000A24                     l3119:
  1011                           
  1012                           ; BSR set to: 4
  1013                           ;USBTest.c: 137: }
  1014                           ;USBTest.c: 140: if(ReceivedDataBuffer[0]=='t')
  1015  000A24  0E74               	movlw	116
  1016  000A26  0104               	movlb	4	; () banked
  1017  000A28  1980               	xorwf	128,w,b
  1018  000A2A  A4D8               	btfss	status,2,c
  1019  000A2C  D05D               	goto	l107
  1020                           
  1021                           ; BSR set to: 4
  1022                           ;USBTest.c: 141: {
  1023                           ;USBTest.c: 143: ToSendDataBuffer[0]=' ';
  1024  000A2E  0E20               	movlw	32
  1025  000A30  0104               	movlb	4	; () banked
  1026  000A32  6FC0               	movwf	192,b
  1027                           
  1028                           ; BSR set to: 4
  1029                           ;USBTest.c: 147: CHS2=0;
  1030  000A34  98C2               	bcf	4034,4,c	;volatile
  1031                           
  1032                           ; BSR set to: 4
  1033                           ;USBTest.c: 148: CHS1=0;
  1034  000A36  96C2               	bcf	4034,3,c	;volatile
  1035                           
  1036                           ; BSR set to: 4
  1037                           ;USBTest.c: 149: CHS0=0;
  1038  000A38  94C2               	bcf	4034,2,c	;volatile
  1039                           
  1040                           ; BSR set to: 4
  1041                           ;USBTest.c: 150: _delay((unsigned long)((15)*(48000000/4000.0)));
  1042  000A3A  0EEA               	movlw	234
  1043  000A3C  6E52               	movwf	??_main& (0+255),c
  1044  000A3E  0EC3               	movlw	195
  1045  000A40                     u2687:
  1046  000A40  2EE8               	decfsz	wreg,f,c
  1047  000A42  D7FE               	goto	u2687
  1048  000A44  2E52               	decfsz	??_main& (0+255),f,c
  1049  000A46  D7FC               	goto	u2687
  1050  000A48  F000               	nop	
  1051                           
  1052                           ;USBTest.c: 151: GO_DONE=1;
  1053  000A4A  82C2               	bsf	4034,1,c	;volatile
  1054  000A4C                     l108:
  1055  000A4C  A2C2               	btfss	4034,1,c	;volatile
  1056  000A4E  D7FE               	goto	l108
  1057                           
  1058                           ;USBTest.c: 153: tempature=(int)((ADRESH*256+ADRESL)/2);
  1059  000A50  50C4               	movf	4036,w,c	;volatile
  1060  000A52  6E53               	movwf	(??_main+1)& (0+255),c
  1061  000A54  6A52               	clrf	??_main& (0+255),c
  1062  000A56  50C3               	movf	4035,w,c	;volatile
  1063  000A58  2452               	addwf	??_main,w,c
  1064  000A5A  6E40               	movwf	___awdiv@dividend,c
  1065  000A5C  0E00               	movlw	0
  1066  000A5E  2053               	addwfc	??_main+1,w,c
  1067  000A60  6E41               	movwf	___awdiv@dividend+1,c
  1068  000A62  0E00               	movlw	0
  1069  000A64  6E43               	movwf	___awdiv@divisor+1,c
  1070  000A66  0E02               	movlw	2
  1071  000A68  6E42               	movwf	___awdiv@divisor,c
  1072  000A6A  ECA3  F00B         	call	___awdiv	;wreg free
  1073  000A6E  C040  F05A         	movff	?___awdiv,main@tempature
  1074  000A72  C041  F05B         	movff	?___awdiv+1,main@tempature+1
  1075                           
  1076                           ;USBTest.c: 154: tempature=(tempature%100);
  1077  000A76  C05A  F03A         	movff	main@tempature,___awmod@dividend
  1078  000A7A  C05B  F03B         	movff	main@tempature+1,___awmod@dividend+1
  1079  000A7E  0E00               	movlw	0
  1080  000A80  6E3D               	movwf	___awmod@divisor+1,c
  1081  000A82  0E64               	movlw	100
  1082  000A84  6E3C               	movwf	___awmod@divisor,c
  1083  000A86  EC25  F00C         	call	___awmod	;wreg free
  1084  000A8A  C03A  F05A         	movff	?___awmod,main@tempature
  1085  000A8E  C03B  F05B         	movff	?___awmod+1,main@tempature+1
  1086                           
  1087                           ;USBTest.c: 155: ToSendDataBuffer[0]=tempature;
  1088  000A92  C05A  F4C0         	movff	main@tempature,1216
  1089                           
  1090                           ;USBTest.c: 158: if(!(USBInHandle==0?0:((volatile BDT_ENTRY*)USBInHandle)->STAT.UOWN))
  1091  000A96  501C               	movf	_USBInHandle,w,c
  1092  000A98  101D               	iorwf	_USBInHandle+1,w,c
  1093  000A9A  B4D8               	btfsc	status,2,c
  1094  000A9C  D00E               	goto	l3141
  1095  000A9E  C01C  FFD9         	movff	_USBInHandle,fsr2l
  1096  000AA2  C01D  FFDA         	movff	_USBInHandle+1,fsr2h
  1097  000AA6  AEDF               	btfss	indf2,7,c
  1098  000AA8  D003               	goto	u2610
  1099  000AAA  6A52               	clrf	??_main& (0+255),c
  1100  000AAC  2A52               	incf	??_main& (0+255),f,c
  1101  000AAE  D001               	goto	u2618
  1102  000AB0                     u2610:
  1103  000AB0  6A52               	clrf	??_main& (0+255),c
  1104  000AB2                     u2618:
  1105  000AB2  5052               	movf	??_main,w,c
  1106  000AB4  6E58               	movwf	_main$206,c
  1107  000AB6  6A59               	clrf	_main$206+1,c
  1108  000AB8  D004               	goto	l3143
  1109  000ABA                     l3141:
  1110  000ABA  0E00               	movlw	0
  1111  000ABC  6E59               	movwf	_main$206+1,c
  1112  000ABE  0E00               	movlw	0
  1113  000AC0  6E58               	movwf	_main$206,c
  1114  000AC2                     l3143:
  1115  000AC2  5058               	movf	_main$206,w,c
  1116  000AC4  1059               	iorwf	_main$206+1,w,c
  1117  000AC6  A4D8               	btfss	status,2,c
  1118  000AC8  D00F               	goto	l107
  1119                           
  1120                           ;USBTest.c: 159: USBInHandle = USBTransferOnePacket(1,1,ToSendDataBuffer,64);
  1121  000ACA  0E01               	movlw	1
  1122  000ACC  6E3A               	movwf	USBTransferOnePacket@dir,c
  1123  000ACE  0EC0               	movlw	192
  1124  000AD0  6E3B               	movwf	USBTransferOnePacket@data,c
  1125  000AD2  0E04               	movlw	4
  1126  000AD4  6E3C               	movwf	USBTransferOnePacket@data+1,c
  1127  000AD6  0E40               	movlw	64
  1128  000AD8  6E3D               	movwf	USBTransferOnePacket@len,c
  1129  000ADA  0E01               	movlw	1
  1130  000ADC  EC83  F00A         	call	_USBTransferOnePacket
  1131  000AE0  C03A  F01C         	movff	?_USBTransferOnePacket,_USBInHandle
  1132  000AE4  C03B  F01D         	movff	?_USBTransferOnePacket+1,_USBInHandle+1
  1133  000AE8                     l107:
  1134                           
  1135                           ;USBTest.c: 160: }
  1136                           ;USBTest.c: 163: USBOutHandle=USBTransferOnePacket(1,0,ReceivedDataBuffer,64);
  1137  000AE8  0E00               	movlw	0
  1138  000AEA  6E3A               	movwf	USBTransferOnePacket@dir,c
  1139  000AEC  0E80               	movlw	128
  1140  000AEE  6E3B               	movwf	USBTransferOnePacket@data,c
  1141  000AF0  0E04               	movlw	4
  1142  000AF2  6E3C               	movwf	USBTransferOnePacket@data+1,c
  1143  000AF4  0E40               	movlw	64
  1144  000AF6  6E3D               	movwf	USBTransferOnePacket@len,c
  1145  000AF8  0E01               	movlw	1
  1146  000AFA  EC83  F00A         	call	_USBTransferOnePacket
  1147  000AFE  C03A  F020         	movff	?_USBTransferOnePacket,_USBOutHandle
  1148  000B02  C03B  F021         	movff	?_USBTransferOnePacket+1,_USBOutHandle+1
  1149  000B06  D743               	goto	l3087
  1150  000B08                     __end_of_main:
  1151                           	opt stack 0
  1152                           tblptru	equ	0xFF8
  1153                           tblptrh	equ	0xFF7
  1154                           tblptrl	equ	0xFF6
  1155                           tablat	equ	0xFF5
  1156                           postinc0	equ	0xFEE
  1157                           wreg	equ	0xFE8
  1158                           postdec1	equ	0xFE5
  1159                           fsr1l	equ	0xFE1
  1160                           indf2	equ	0xFDF
  1161                           fsr2h	equ	0xFDA
  1162                           fsr2l	equ	0xFD9
  1163                           status	equ	0xFD8
  1164                           
  1165 ;; *************** function ___awmod *****************
  1166 ;; Defined at:
  1167 ;;		line 8 in file "C:\Program Files (x86)\Microchip\xc8\v1.37\sources\common\awmod.c"
  1168 ;; Parameters:    Size  Location     Type
  1169 ;;  dividend        2    0[COMRAM] int 
  1170 ;;  divisor         2    2[COMRAM] int 
  1171 ;; Auto vars:     Size  Location     Type
  1172 ;;  sign            1    5[COMRAM] unsigned char 
  1173 ;;  counter         1    4[COMRAM] unsigned char 
  1174 ;; Return value:  Size  Location     Type
  1175 ;;                  2    0[COMRAM] int 
  1176 ;; Registers used:
  1177 ;;		wreg, status,2, status,0
  1178 ;; Tracked objects:
  1179 ;;		On entry : 0/0
  1180 ;;		On exit  : 0/0
  1181 ;;		Unchanged: 0/0
  1182 ;; Data sizes:     COMRAM   BANK0   BANK1   BANK2   BANK3  BANK4lBANK5hhhBANK5hhl BANK5hl  BANK5l   BANK6   BANK7
  1183 ;;      Params:         4       0       0       0       0       0       0       0       0       0       0       0
  1184 ;;      Locals:         2       0       0       0       0       0       0       0       0       0       0       0
  1185 ;;      Temps:          0       0       0       0       0       0       0       0       0       0       0       0
  1186 ;;      Totals:         6       0       0       0       0       0       0       0       0       0       0       0
  1187 ;;Total ram usage:        6 bytes
  1188 ;; Hardware stack levels used:    1
  1189 ;; This function calls:
  1190 ;;		Nothing
  1191 ;; This function is called by:
  1192 ;;		_main
  1193 ;; This function uses a non-reentrant model
  1194 ;;
  1195                           
  1196                           	psect	text1
  1197  00184A                     __ptext1:
  1198                           	opt stack 0
  1199  00184A                     ___awmod:
  1200                           	opt stack 30
  1201                           
  1202                           ;incstack = 0
  1203  00184A  0E00               	movlw	0
  1204  00184C  6E3F               	movwf	___awmod@sign,c
  1205  00184E  AE3B               	btfss	___awmod@dividend+1,7,c
  1206  001850  D006               	goto	l3007
  1207  001852  6C3A               	negf	___awmod@dividend,c
  1208  001854  1E3B               	comf	___awmod@dividend+1,f,c
  1209  001856  B0D8               	btfsc	status,0,c
  1210  001858  2A3B               	incf	___awmod@dividend+1,f,c
  1211  00185A  0E01               	movlw	1
  1212  00185C  6E3F               	movwf	___awmod@sign,c
  1213  00185E                     l3007:
  1214  00185E  AE3D               	btfss	___awmod@divisor+1,7,c
  1215  001860  D004               	goto	l3011
  1216  001862  6C3C               	negf	___awmod@divisor,c
  1217  001864  1E3D               	comf	___awmod@divisor+1,f,c
  1218  001866  B0D8               	btfsc	status,0,c
  1219  001868  2A3D               	incf	___awmod@divisor+1,f,c
  1220  00186A                     l3011:
  1221  00186A  503C               	movf	___awmod@divisor,w,c
  1222  00186C  103D               	iorwf	___awmod@divisor+1,w,c
  1223  00186E  B4D8               	btfsc	status,2,c
  1224  001870  D018               	goto	l3027
  1225  001872  0E01               	movlw	1
  1226  001874  6E3E               	movwf	___awmod@counter,c
  1227  001876  D004               	goto	l3017
  1228  001878                     l3015:
  1229  001878  90D8               	bcf	status,0,c
  1230  00187A  363C               	rlcf	___awmod@divisor,f,c
  1231  00187C  363D               	rlcf	___awmod@divisor+1,f,c
  1232  00187E  2A3E               	incf	___awmod@counter,f,c
  1233  001880                     l3017:
  1234  001880  AE3D               	btfss	___awmod@divisor+1,7,c
  1235  001882  D7FA               	goto	l3015
  1236  001884                     l3019:
  1237  001884  503C               	movf	___awmod@divisor,w,c
  1238  001886  5C3A               	subwf	___awmod@dividend,w,c
  1239  001888  503D               	movf	___awmod@divisor+1,w,c
  1240  00188A  583B               	subwfb	___awmod@dividend+1,w,c
  1241  00188C  A0D8               	btfss	status,0,c
  1242  00188E  D004               	goto	l3023
  1243  001890  503C               	movf	___awmod@divisor,w,c
  1244  001892  5E3A               	subwf	___awmod@dividend,f,c
  1245  001894  503D               	movf	___awmod@divisor+1,w,c
  1246  001896  5A3B               	subwfb	___awmod@dividend+1,f,c
  1247  001898                     l3023:
  1248  001898  90D8               	bcf	status,0,c
  1249  00189A  323D               	rrcf	___awmod@divisor+1,f,c
  1250  00189C  323C               	rrcf	___awmod@divisor,f,c
  1251  00189E  2E3E               	decfsz	___awmod@counter,f,c
  1252  0018A0  D7F1               	goto	l3019
  1253  0018A2                     l3027:
  1254  0018A2  503F               	movf	___awmod@sign,w,c
  1255  0018A4  B4D8               	btfsc	status,2,c
  1256  0018A6  D004               	goto	l3031
  1257  0018A8  6C3A               	negf	___awmod@dividend,c
  1258  0018AA  1E3B               	comf	___awmod@dividend+1,f,c
  1259  0018AC  B0D8               	btfsc	status,0,c
  1260  0018AE  2A3B               	incf	___awmod@dividend+1,f,c
  1261  0018B0                     l3031:
  1262  0018B0  C03A  F03A         	movff	___awmod@dividend,?___awmod
  1263  0018B4  C03B  F03B         	movff	___awmod@dividend+1,?___awmod+1
  1264  0018B8  0012               	return	
  1265  0018BA                     __end_of___awmod:
  1266                           	opt stack 0
  1267                           tblptru	equ	0xFF8
  1268                           tblptrh	equ	0xFF7
  1269                           tblptrl	equ	0xFF6
  1270                           tablat	equ	0xFF5
  1271                           postinc0	equ	0xFEE
  1272                           wreg	equ	0xFE8
  1273                           postdec1	equ	0xFE5
  1274                           fsr1l	equ	0xFE1
  1275                           indf2	equ	0xFDF
  1276                           fsr2h	equ	0xFDA
  1277                           fsr2l	equ	0xFD9
  1278                           status	equ	0xFD8
  1279                           
  1280 ;; *************** function ___awdiv *****************
  1281 ;; Defined at:
  1282 ;;		line 8 in file "C:\Program Files (x86)\Microchip\xc8\v1.37\sources\common\awdiv.c"
  1283 ;; Parameters:    Size  Location     Type
  1284 ;;  dividend        2    6[COMRAM] int 
  1285 ;;  divisor         2    8[COMRAM] int 
  1286 ;; Auto vars:     Size  Location     Type
  1287 ;;  quotient        2   12[COMRAM] int 
  1288 ;;  sign            1   11[COMRAM] unsigned char 
  1289 ;;  counter         1   10[COMRAM] unsigned char 
  1290 ;; Return value:  Size  Location     Type
  1291 ;;                  2    6[COMRAM] int 
  1292 ;; Registers used:
  1293 ;;		wreg, status,2, status,0
  1294 ;; Tracked objects:
  1295 ;;		On entry : 0/0
  1296 ;;		On exit  : 0/0
  1297 ;;		Unchanged: 0/0
  1298 ;; Data sizes:     COMRAM   BANK0   BANK1   BANK2   BANK3  BANK4lBANK5hhhBANK5hhl BANK5hl  BANK5l   BANK6   BANK7
  1299 ;;      Params:         4       0       0       0       0       0       0       0       0       0       0       0
  1300 ;;      Locals:         4       0       0       0       0       0       0       0       0       0       0       0
  1301 ;;      Temps:          0       0       0       0       0       0       0       0       0       0       0       0
  1302 ;;      Totals:         8       0       0       0       0       0       0       0       0       0       0       0
  1303 ;;Total ram usage:        8 bytes
  1304 ;; Hardware stack levels used:    1
  1305 ;; This function calls:
  1306 ;;		Nothing
  1307 ;; This function is called by:
  1308 ;;		_main
  1309 ;; This function uses a non-reentrant model
  1310 ;;
  1311                           
  1312                           	psect	text2
  1313  001746                     __ptext2:
  1314                           	opt stack 0
  1315  001746                     ___awdiv:
  1316                           	opt stack 30
  1317                           
  1318                           ;incstack = 0
  1319  001746  0E00               	movlw	0
  1320  001748  6E45               	movwf	___awdiv@sign,c
  1321  00174A  AE43               	btfss	___awdiv@divisor+1,7,c
  1322  00174C  D006               	goto	l2963
  1323  00174E  6C42               	negf	___awdiv@divisor,c
  1324  001750  1E43               	comf	___awdiv@divisor+1,f,c
  1325  001752  B0D8               	btfsc	status,0,c
  1326  001754  2A43               	incf	___awdiv@divisor+1,f,c
  1327  001756  0E01               	movlw	1
  1328  001758  6E45               	movwf	___awdiv@sign,c
  1329  00175A                     l2963:
  1330  00175A  AE41               	btfss	___awdiv@dividend+1,7,c
  1331  00175C  D006               	goto	l2969
  1332  00175E  6C40               	negf	___awdiv@dividend,c
  1333  001760  1E41               	comf	___awdiv@dividend+1,f,c
  1334  001762  B0D8               	btfsc	status,0,c
  1335  001764  2A41               	incf	___awdiv@dividend+1,f,c
  1336  001766  0E01               	movlw	1
  1337  001768  1A45               	xorwf	___awdiv@sign,f,c
  1338  00176A                     l2969:
  1339  00176A  0E00               	movlw	0
  1340  00176C  6E47               	movwf	___awdiv@quotient+1,c
  1341  00176E  0E00               	movlw	0
  1342  001770  6E46               	movwf	___awdiv@quotient,c
  1343  001772  5042               	movf	___awdiv@divisor,w,c
  1344  001774  1043               	iorwf	___awdiv@divisor+1,w,c
  1345  001776  B4D8               	btfsc	status,2,c
  1346  001778  D01C               	goto	l2991
  1347  00177A  0E01               	movlw	1
  1348  00177C  6E44               	movwf	___awdiv@counter,c
  1349  00177E  D004               	goto	l2977
  1350  001780                     l2975:
  1351  001780  90D8               	bcf	status,0,c
  1352  001782  3642               	rlcf	___awdiv@divisor,f,c
  1353  001784  3643               	rlcf	___awdiv@divisor+1,f,c
  1354  001786  2A44               	incf	___awdiv@counter,f,c
  1355  001788                     l2977:
  1356  001788  AE43               	btfss	___awdiv@divisor+1,7,c
  1357  00178A  D7FA               	goto	l2975
  1358  00178C                     l2979:
  1359  00178C  90D8               	bcf	status,0,c
  1360  00178E  3646               	rlcf	___awdiv@quotient,f,c
  1361  001790  3647               	rlcf	___awdiv@quotient+1,f,c
  1362  001792  5042               	movf	___awdiv@divisor,w,c
  1363  001794  5C40               	subwf	___awdiv@dividend,w,c
  1364  001796  5043               	movf	___awdiv@divisor+1,w,c
  1365  001798  5841               	subwfb	___awdiv@dividend+1,w,c
  1366  00179A  A0D8               	btfss	status,0,c
  1367  00179C  D005               	goto	l2987
  1368  00179E  5042               	movf	___awdiv@divisor,w,c
  1369  0017A0  5E40               	subwf	___awdiv@dividend,f,c
  1370  0017A2  5043               	movf	___awdiv@divisor+1,w,c
  1371  0017A4  5A41               	subwfb	___awdiv@dividend+1,f,c
  1372  0017A6  8046               	bsf	___awdiv@quotient,0,c
  1373  0017A8                     l2987:
  1374  0017A8  90D8               	bcf	status,0,c
  1375  0017AA  3243               	rrcf	___awdiv@divisor+1,f,c
  1376  0017AC  3242               	rrcf	___awdiv@divisor,f,c
  1377  0017AE  2E44               	decfsz	___awdiv@counter,f,c
  1378  0017B0  D7ED               	goto	l2979
  1379  0017B2                     l2991:
  1380  0017B2  5045               	movf	___awdiv@sign,w,c
  1381  0017B4  B4D8               	btfsc	status,2,c
  1382  0017B6  D004               	goto	l2995
  1383  0017B8  6C46               	negf	___awdiv@quotient,c
  1384  0017BA  1E47               	comf	___awdiv@quotient+1,f,c
  1385  0017BC  B0D8               	btfsc	status,0,c
  1386  0017BE  2A47               	incf	___awdiv@quotient+1,f,c
  1387  0017C0                     l2995:
  1388  0017C0  C046  F040         	movff	___awdiv@quotient,?___awdiv
  1389  0017C4  C047  F041         	movff	___awdiv@quotient+1,?___awdiv+1
  1390  0017C8  0012               	return	
  1391  0017CA                     __end_of___awdiv:
  1392                           	opt stack 0
  1393                           tblptru	equ	0xFF8
  1394                           tblptrh	equ	0xFF7
  1395                           tblptrl	equ	0xFF6
  1396                           tablat	equ	0xFF5
  1397                           postinc0	equ	0xFEE
  1398                           wreg	equ	0xFE8
  1399                           postdec1	equ	0xFE5
  1400                           fsr1l	equ	0xFE1
  1401                           indf2	equ	0xFDF
  1402                           fsr2h	equ	0xFDA
  1403                           fsr2l	equ	0xFD9
  1404                           status	equ	0xFD8
  1405                           
  1406 ;; *************** function _USBDeviceTasks *****************
  1407 ;; Defined at:
  1408 ;;		line 777 in file "usb_device.c"
  1409 ;; Parameters:    Size  Location     Type
  1410 ;;		None
  1411 ;; Auto vars:     Size  Location     Type
  1412 ;;  i               1   23[COMRAM] unsigned char 
  1413 ;; Return value:  Size  Location     Type
  1414 ;;                  1    wreg      void 
  1415 ;; Registers used:
  1416 ;;		wreg, fsr1l, fsr1h, fsr2l, fsr2h, status,2, status,0, tblptrl, tblptrh, tblptru, prodl, prodh, cstack
  1417 ;; Tracked objects:
  1418 ;;		On entry : 0/0
  1419 ;;		On exit  : 0/0
  1420 ;;		Unchanged: 0/0
  1421 ;; Data sizes:     COMRAM   BANK0   BANK1   BANK2   BANK3  BANK4lBANK5hhhBANK5hhl BANK5hl  BANK5l   BANK6   BANK7
  1422 ;;      Params:         0       0       0       0       0       0       0       0       0       0       0       0
  1423 ;;      Locals:         1       0       0       0       0       0       0       0       0       0       0       0
  1424 ;;      Temps:          1       0       0       0       0       0       0       0       0       0       0       0
  1425 ;;      Totals:         2       0       0       0       0       0       0       0       0       0       0       0
  1426 ;;Total ram usage:        2 bytes
  1427 ;; Hardware stack levels used:    1
  1428 ;; Hardware stack levels required when called:    8
  1429 ;; This function calls:
  1430 ;;		_USBCtrlEPService
  1431 ;;		_USBDeviceInit
  1432 ;;		_USBStallHandler
  1433 ;;		_USBSuspend
  1434 ;;		_USBWakeFromSuspend
  1435 ;;		_USER_USB_CALLBACK_EVENT_HANDLER
  1436 ;; This function is called by:
  1437 ;;		_main
  1438 ;; This function uses a non-reentrant model
  1439 ;;
  1440                           
  1441                           	psect	text3
  1442  000CA8                     __ptext3:
  1443                           	opt stack 0
  1444  000CA8                     _USBDeviceTasks:
  1445                           	opt stack 22
  1446                           
  1447                           ;usb_device.c: 845: }
  1448                           ;usb_device.c: 867: if(USBDeviceState == DETACHED_STATE)
  1449                           
  1450                           ;usb_device.c: 844: return;
  1451                           
  1452                           ;usb_device.c: 843: PIR2bits.USBIF = 0;;
  1453                           
  1454                           ;usb_device.c: 815: USBDeviceState = DETACHED_STATE;
  1455                           
  1456                           ;usb_device.c: 812: UIE = 0;
  1457                           
  1458                           ;usb_device.c: 807: {
  1459                           ;usb_device.c: 809: UCON = 0;
  1460                           
  1461                           ;usb_device.c: 780: BYTE i;
  1462                           ;usb_device.c: 806: if (1 != 1)
  1463                           
  1464                           ;incstack = 0
  1465  000CA8  5032               	movf	_USBDeviceState,w,c
  1466  000CAA  A4D8               	btfss	status,2,c
  1467  000CAC  D010               	goto	l2863
  1468                           
  1469                           ;usb_device.c: 868: {
  1470                           ;usb_device.c: 870: UCON = 0;
  1471  000CAE  0E00               	movlw	0
  1472  000CB0  6E6D               	movwf	3949,c	;volatile
  1473                           
  1474                           ;usb_device.c: 873: UIE = 0;
  1475  000CB2  0E00               	movlw	0
  1476  000CB4  6E69               	movwf	3945,c	;volatile
  1477                           
  1478                           ;usb_device.c: 877: { UCFG = 0x10 | 0x00 | 0x04 | 0x02; UEIE = 0x9F; UIE = 0x39 | 0x40 |
      +                           0x02; };
  1479  000CB6  0E16               	movlw	22
  1480  000CB8  6E6F               	movwf	3951,c	;volatile
  1481  000CBA  0E9F               	movlw	159
  1482  000CBC  6E6B               	movwf	3947,c	;volatile
  1483  000CBE  0E7B               	movlw	123
  1484  000CC0  6E69               	movwf	3945,c	;volatile
  1485                           
  1486                           ;usb_device.c: 880: while(!UCONbits.USBEN){UCONbits.USBEN = 1;}
  1487  000CC2  D001               	goto	l269
  1488  000CC4                     l270:
  1489  000CC4  866D               	bsf	3949,3,c	;volatile
  1490  000CC6                     l269:
  1491  000CC6  A66D               	btfss	3949,3,c	;volatile
  1492  000CC8  D7FD               	goto	l270
  1493                           
  1494                           ;usb_device.c: 883: USBDeviceState = ATTACHED_STATE;
  1495  000CCA  0E01               	movlw	1
  1496  000CCC  6E32               	movwf	_USBDeviceState,c
  1497  000CCE                     l2863:
  1498                           
  1499                           ;usb_device.c: 888: }
  1500                           ;usb_device.c: 891: if(USBDeviceState == ATTACHED_STATE)
  1501  000CCE  0432               	decf	_USBDeviceState,w,c
  1502  000CD0  B4D8               	btfsc	status,2,c
  1503                           
  1504                           ;usb_device.c: 892: {
  1505                           ;usb_device.c: 902: if(!SE0)
  1506  000CD2  BA6D               	btfsc	3949,5,c	;volatile
  1507  000CD4  D008               	goto	l2873
  1508                           
  1509                           ;usb_device.c: 903: {
  1510                           ;usb_device.c: 904: UIR = 0;;
  1511  000CD6  0E00               	movlw	0
  1512  000CD8  6E68               	movwf	3944,c	;volatile
  1513                           
  1514                           ;usb_device.c: 906: UIE=0;
  1515  000CDA  0E00               	movlw	0
  1516  000CDC  6E69               	movwf	3945,c	;volatile
  1517                           
  1518                           ;usb_device.c: 908: UIEbits.URSTIE = 1;
  1519  000CDE  8069               	bsf	3945,0,c	;volatile
  1520                           
  1521                           ;usb_device.c: 909: UIEbits.IDLEIE = 1;
  1522  000CE0  8869               	bsf	3945,4,c	;volatile
  1523                           
  1524                           ;usb_device.c: 910: USBDeviceState = POWERED_STATE;
  1525  000CE2  0E02               	movlw	2
  1526  000CE4  6E32               	movwf	_USBDeviceState,c
  1527  000CE6                     l2873:
  1528                           
  1529                           ;usb_device.c: 911: }
  1530                           ;usb_device.c: 912: }
  1531                           ;usb_device.c: 928: if(UIRbits.ACTVIF && UIEbits.ACTVIE)
  1532  000CE6  B468               	btfsc	3944,2,c	;volatile
  1533  000CE8  A469               	btfss	3945,2,c	;volatile
  1534  000CEA  D003               	goto	l2881
  1535                           
  1536                           ;usb_device.c: 929: {
  1537                           ;usb_device.c: 930: (UIR &= 0xFB);
  1538  000CEC  9468               	bcf	3944,2,c	;volatile
  1539                           
  1540                           ;usb_device.c: 934: USBWakeFromSuspend();
  1541  000CEE  EC74  F00D         	call	_USBWakeFromSuspend	;wreg free
  1542  000CF2                     l2881:
  1543                           
  1544                           ;usb_device.c: 936: }
  1545                           ;usb_device.c: 941: if(SUSPND==1)
  1546  000CF2  A26D               	btfss	3949,1,c	;volatile
  1547  000CF4  D002               	goto	l275
  1548                           
  1549                           ;usb_device.c: 942: {
  1550                           ;usb_device.c: 943: PIR2bits.USBIF = 0;;
  1551  000CF6  9AA1               	bcf	4001,5,c	;volatile
  1552                           
  1553                           ;usb_device.c: 944: return;
  1554  000CF8  0012               	return	
  1555  000CFA                     l275:
  1556                           
  1557                           ;usb_device.c: 945: }
  1558                           ;usb_device.c: 957: if(UIRbits.URSTIF && UIEbits.URSTIE)
  1559  000CFA  B068               	btfsc	3944,0,c	;volatile
  1560  000CFC  A069               	btfss	3945,0,c	;volatile
  1561  000CFE  D014               	goto	l2901
  1562                           
  1563                           ;usb_device.c: 958: {
  1564                           ;usb_device.c: 959: USBDeviceInit();
  1565  000D00  ECD1  F00A         	call	_USBDeviceInit	;wreg free
  1566                           
  1567                           ;usb_device.c: 960: USBDeviceState = DEFAULT_STATE;
  1568  000D04  0E04               	movlw	4
  1569  000D06  6E32               	movwf	_USBDeviceState,c
  1570                           
  1571                           ;usb_device.c: 972: BDT[0].ADR = (BYTE*)&SetupPkt;
  1572  000D08  0E00               	movlw	0
  1573  000D0A  0104               	movlb	4	; () banked
  1574  000D0C  6F02               	movwf	2,b	;volatile
  1575  000D0E  0E05               	movlw	5
  1576  000D10  0104               	movlb	4	; () banked
  1577  000D12  6F03               	movwf	3,b	;volatile
  1578                           
  1579                           ; BSR set to: 4
  1580                           ;usb_device.c: 973: BDT[0].CNT = 8;
  1581  000D14  0E08               	movlw	8
  1582  000D16  0104               	movlb	4	; () banked
  1583  000D18  6F01               	movwf	1,b	;volatile
  1584                           
  1585                           ; BSR set to: 4
  1586                           ;usb_device.c: 974: BDT[0].STAT.Val &= ~0xFF;
  1587  000D1A  0E00               	movlw	0
  1588  000D1C  0104               	movlb	4	; () banked
  1589  000D1E  6F00               	movwf	0,b	;volatile
  1590                           
  1591                           ; BSR set to: 4
  1592                           ;usb_device.c: 975: BDT[0].STAT.Val |= 0x80|0x00|0x08|0x04;
  1593  000D20  0E8C               	movlw	140
  1594  000D22  0104               	movlb	4	; () banked
  1595  000D24  1300               	iorwf	0,f,b	;volatile
  1596                           
  1597                           ; BSR set to: 4
  1598                           ;usb_device.c: 985: (UIR &= 0xFE);
  1599  000D26  9068               	bcf	3944,0,c	;volatile
  1600  000D28                     l2901:
  1601                           
  1602                           ;usb_device.c: 986: }
  1603                           ;usb_device.c: 991: if(UIRbits.IDLEIF && UIEbits.IDLEIE)
  1604  000D28  B868               	btfsc	3944,4,c	;volatile
  1605  000D2A  A869               	btfss	3945,4,c	;volatile
  1606  000D2C  D003               	goto	l2909
  1607                           
  1608                           ;usb_device.c: 992: {
  1609                           ;usb_device.c: 997: USBSuspend();
  1610  000D2E  EC9E  F00D         	call	_USBSuspend	;wreg free
  1611                           
  1612                           ;usb_device.c: 1000: (UIR &= 0xEF);
  1613  000D32  9868               	bcf	3944,4,c	;volatile
  1614  000D34                     l2909:
  1615                           
  1616                           ;usb_device.c: 1001: }
  1617                           ;usb_device.c: 1003: if(UIRbits.SOFIF && UIEbits.SOFIE)
  1618  000D34  BC68               	btfsc	3944,6,c	;volatile
  1619  000D36  AC69               	btfss	3945,6,c	;volatile
  1620  000D38  D00F               	goto	l2917
  1621                           
  1622                           ;usb_device.c: 1004: {
  1623                           ;usb_device.c: 1005: USER_USB_CALLBACK_EVENT_HANDLER(EVENT_SOF,0,1);
  1624  000D3A  0E00               	movlw	0
  1625  000D3C  6E46               	movwf	USER_USB_CALLBACK_EVENT_HANDLER@event+1,c
  1626  000D3E  0E73               	movlw	115
  1627  000D40  6E45               	movwf	USER_USB_CALLBACK_EVENT_HANDLER@event,c
  1628  000D42  0E00               	movlw	0
  1629  000D44  6E47               	movwf	USER_USB_CALLBACK_EVENT_HANDLER@pdata,c
  1630  000D46  0E00               	movlw	0
  1631  000D48  6E48               	movwf	USER_USB_CALLBACK_EVENT_HANDLER@pdata+1,c
  1632  000D4A  0E00               	movlw	0
  1633  000D4C  6E4A               	movwf	USER_USB_CALLBACK_EVENT_HANDLER@size+1,c
  1634  000D4E  0E01               	movlw	1
  1635  000D50  6E49               	movwf	USER_USB_CALLBACK_EVENT_HANDLER@size,c
  1636  000D52  ECE5  F00B         	call	_USER_USB_CALLBACK_EVENT_HANDLER	;wreg free
  1637                           
  1638                           ;usb_device.c: 1006: (UIR &= 0xBF);
  1639  000D56  9C68               	bcf	3944,6,c	;volatile
  1640  000D58                     l2917:
  1641                           
  1642                           ;usb_device.c: 1007: }
  1643                           ;usb_device.c: 1009: if(UIRbits.STALLIF && UIEbits.STALLIE)
  1644  000D58  BA68               	btfsc	3944,5,c	;volatile
  1645  000D5A  AA69               	btfss	3945,5,c	;volatile
  1646  000D5C  D002               	goto	l2923
  1647                           
  1648                           ;usb_device.c: 1010: {
  1649                           ;usb_device.c: 1011: USBStallHandler();
  1650  000D5E  EC2C  F00D         	call	_USBStallHandler	;wreg free
  1651  000D62                     l2923:
  1652                           
  1653                           ;usb_device.c: 1012: }
  1654                           ;usb_device.c: 1014: if(UIRbits.UERRIF && UIEbits.UERRIE)
  1655  000D62  B268               	btfsc	3944,1,c	;volatile
  1656  000D64  A269               	btfss	3945,1,c	;volatile
  1657  000D66  D00F               	goto	l2931
  1658                           
  1659                           ;usb_device.c: 1015: {
  1660                           ;usb_device.c: 1016: USER_USB_CALLBACK_EVENT_HANDLER(EVENT_BUS_ERROR,0,1);
  1661  000D68  0E7F               	movlw	127
  1662  000D6A  6E46               	movwf	USER_USB_CALLBACK_EVENT_HANDLER@event+1,c
  1663  000D6C  6845               	setf	USER_USB_CALLBACK_EVENT_HANDLER@event,c
  1664  000D6E  0E00               	movlw	0
  1665  000D70  6E47               	movwf	USER_USB_CALLBACK_EVENT_HANDLER@pdata,c
  1666  000D72  0E00               	movlw	0
  1667  000D74  6E48               	movwf	USER_USB_CALLBACK_EVENT_HANDLER@pdata+1,c
  1668  000D76  0E00               	movlw	0
  1669  000D78  6E4A               	movwf	USER_USB_CALLBACK_EVENT_HANDLER@size+1,c
  1670  000D7A  0E01               	movlw	1
  1671  000D7C  6E49               	movwf	USER_USB_CALLBACK_EVENT_HANDLER@size,c
  1672  000D7E  ECE5  F00B         	call	_USER_USB_CALLBACK_EVENT_HANDLER	;wreg free
  1673                           
  1674                           ;usb_device.c: 1017: UEIR = 0;;
  1675  000D82  0E00               	movlw	0
  1676  000D84  6E6A               	movwf	3946,c	;volatile
  1677  000D86                     l2931:
  1678                           
  1679                           ;usb_device.c: 1018: }
  1680                           ;usb_device.c: 1025: if(USBDeviceState < DEFAULT_STATE)
  1681  000D86  0E04               	movlw	4
  1682  000D88  6032               	cpfslt	_USBDeviceState,c
  1683  000D8A  D002               	goto	l281
  1684                           
  1685                           ;usb_device.c: 1026: {
  1686                           ;usb_device.c: 1027: PIR2bits.USBIF = 0;;
  1687  000D8C  9AA1               	bcf	4001,5,c	;volatile
  1688                           
  1689                           ;usb_device.c: 1028: return;
  1690  000D8E  0012               	return	
  1691  000D90                     l281:
  1692                           
  1693                           ;usb_device.c: 1029: }
  1694                           ;usb_device.c: 1034: if(UIEbits.TRNIE)
  1695  000D90  A669               	btfss	3945,3,c	;volatile
  1696  000D92  D024               	goto	l282
  1697                           
  1698                           ;usb_device.c: 1035: {
  1699                           ;usb_device.c: 1036: for(i = 0; i < 4; i++)
  1700  000D94  0E00               	movlw	0
  1701  000D96  6E51               	movwf	USBDeviceTasks@i,c
  1702  000D98                     l2937:
  1703  000D98  0E03               	movlw	3
  1704  000D9A  6451               	cpfsgt	USBDeviceTasks@i,c
  1705  000D9C  D001               	goto	l283
  1706  000D9E  D01E               	goto	l282
  1707  000DA0                     l283:
  1708                           
  1709                           ;usb_device.c: 1037: {
  1710                           ;usb_device.c: 1038: if(UIRbits.TRNIF)
  1711  000DA0  A668               	btfss	3944,3,c	;volatile
  1712  000DA2  D01C               	goto	l282
  1713                           
  1714                           ;usb_device.c: 1039: {
  1715                           ;usb_device.c: 1040: USTATcopy = USTAT;
  1716  000DA4  CF6C F037          	movff	3948,_USTATcopy	;volatile
  1717                           
  1718                           ;usb_device.c: 1042: (UIR &= 0xF7);
  1719  000DA8  9668               	bcf	3944,3,c	;volatile
  1720                           
  1721                           ;usb_device.c: 1049: if((USTATcopy & 0b01111000) == 0)
  1722  000DAA  C037  F050         	movff	_USTATcopy,??_USBDeviceTasks
  1723  000DAE  0E78               	movlw	120
  1724  000DB0  1650               	andwf	??_USBDeviceTasks,f,c
  1725  000DB2  A4D8               	btfss	status,2,c
  1726  000DB4  D003               	goto	l2949
  1727                           
  1728                           ;usb_device.c: 1050: {
  1729                           ;usb_device.c: 1051: USBCtrlEPService();
  1730  000DB6  ECCF  F009         	call	_USBCtrlEPService	;wreg free
  1731                           
  1732                           ;usb_device.c: 1052: }
  1733  000DBA  D00E               	goto	l2951
  1734  000DBC                     l2949:
  1735                           
  1736                           ;usb_device.c: 1053: else
  1737                           ;usb_device.c: 1054: {
  1738                           ;usb_device.c: 1055: USER_USB_CALLBACK_EVENT_HANDLER(EVENT_TRANSFER,(BYTE*)&USTATcopy,0)
      +                          ;
  1739  000DBC  0E00               	movlw	0
  1740  000DBE  6E46               	movwf	USER_USB_CALLBACK_EVENT_HANDLER@event+1,c
  1741  000DC0  0E72               	movlw	114
  1742  000DC2  6E45               	movwf	USER_USB_CALLBACK_EVENT_HANDLER@event,c
  1743  000DC4  0E37               	movlw	low _USTATcopy
  1744  000DC6  6E47               	movwf	USER_USB_CALLBACK_EVENT_HANDLER@pdata,c
  1745  000DC8  0E00               	movlw	high _USTATcopy
  1746  000DCA  6E48               	movwf	USER_USB_CALLBACK_EVENT_HANDLER@pdata+1,c
  1747  000DCC  0E00               	movlw	0
  1748  000DCE  6E4A               	movwf	USER_USB_CALLBACK_EVENT_HANDLER@size+1,c
  1749  000DD0  0E00               	movlw	0
  1750  000DD2  6E49               	movwf	USER_USB_CALLBACK_EVENT_HANDLER@size,c
  1751  000DD4  ECE5  F00B         	call	_USER_USB_CALLBACK_EVENT_HANDLER	;wreg free
  1752  000DD8                     l2951:
  1753  000DD8  2A51               	incf	USBDeviceTasks@i,f,c
  1754  000DDA  D7DE               	goto	l2937
  1755  000DDC                     l282:
  1756                           
  1757                           ;usb_device.c: 1063: }
  1758                           ;usb_device.c: 1064: }
  1759                           ;usb_device.c: 1066: PIR2bits.USBIF = 0;;
  1760  000DDC  9AA1               	bcf	4001,5,c	;volatile
  1761  000DDE  0012               	return		;funcret
  1762  000DE0                     __end_of_USBDeviceTasks:
  1763                           	opt stack 0
  1764                           tblptru	equ	0xFF8
  1765                           tblptrh	equ	0xFF7
  1766                           tblptrl	equ	0xFF6
  1767                           tablat	equ	0xFF5
  1768                           postinc0	equ	0xFEE
  1769                           wreg	equ	0xFE8
  1770                           postdec1	equ	0xFE5
  1771                           fsr1l	equ	0xFE1
  1772                           indf2	equ	0xFDF
  1773                           fsr2h	equ	0xFDA
  1774                           fsr2l	equ	0xFD9
  1775                           status	equ	0xFD8
  1776                           
  1777 ;; *************** function _USBWakeFromSuspend *****************
  1778 ;; Defined at:
  1779 ;;		line 1185 in file "usb_device.c"
  1780 ;; Parameters:    Size  Location     Type
  1781 ;;		None
  1782 ;; Auto vars:     Size  Location     Type
  1783 ;;		None
  1784 ;; Return value:  Size  Location     Type
  1785 ;;                  1    wreg      void 
  1786 ;; Registers used:
  1787 ;;		wreg, fsr2l, fsr2h, status,2, status,0, prodl, prodh, cstack
  1788 ;; Tracked objects:
  1789 ;;		On entry : 0/0
  1790 ;;		On exit  : 0/0
  1791 ;;		Unchanged: 0/0
  1792 ;; Data sizes:     COMRAM   BANK0   BANK1   BANK2   BANK3  BANK4lBANK5hhhBANK5hhl BANK5hl  BANK5l   BANK6   BANK7
  1793 ;;      Params:         0       0       0       0       0       0       0       0       0       0       0       0
  1794 ;;      Locals:         0       0       0       0       0       0       0       0       0       0       0       0
  1795 ;;      Temps:          0       0       0       0       0       0       0       0       0       0       0       0
  1796 ;;      Totals:         0       0       0       0       0       0       0       0       0       0       0       0
  1797 ;;Total ram usage:        0 bytes
  1798 ;; Hardware stack levels used:    1
  1799 ;; Hardware stack levels required when called:    4
  1800 ;; This function calls:
  1801 ;;		_USER_USB_CALLBACK_EVENT_HANDLER
  1802 ;; This function is called by:
  1803 ;;		_USBDeviceTasks
  1804 ;; This function uses a non-reentrant model
  1805 ;;
  1806                           
  1807                           	psect	text4
  1808  001AE8                     __ptext4:
  1809                           	opt stack 0
  1810  001AE8                     _USBWakeFromSuspend:
  1811                           	opt stack 25
  1812                           
  1813                           ;usb_device.c: 1191: USER_USB_CALLBACK_EVENT_HANDLER(EVENT_RESUME,0,0);
  1814                           
  1815                           ;incstack = 0
  1816  001AE8  0E00               	movlw	0
  1817  001AEA  6E46               	movwf	USER_USB_CALLBACK_EVENT_HANDLER@event+1,c
  1818  001AEC  0E74               	movlw	116
  1819  001AEE  6E45               	movwf	USER_USB_CALLBACK_EVENT_HANDLER@event,c
  1820  001AF0  0E00               	movlw	0
  1821  001AF2  6E47               	movwf	USER_USB_CALLBACK_EVENT_HANDLER@pdata,c
  1822  001AF4  0E00               	movlw	0
  1823  001AF6  6E48               	movwf	USER_USB_CALLBACK_EVENT_HANDLER@pdata+1,c
  1824  001AF8  0E00               	movlw	0
  1825  001AFA  6E4A               	movwf	USER_USB_CALLBACK_EVENT_HANDLER@size+1,c
  1826  001AFC  0E00               	movlw	0
  1827  001AFE  6E49               	movwf	USER_USB_CALLBACK_EVENT_HANDLER@size,c
  1828  001B00  ECE5  F00B         	call	_USER_USB_CALLBACK_EVENT_HANDLER	;wreg free
  1829                           
  1830                           ;usb_device.c: 1198: UCONbits.SUSPND = 0;
  1831  001B04  926D               	bcf	3949,1,c	;volatile
  1832                           
  1833                           ;usb_device.c: 1203: UIEbits.ACTVIE = 0;
  1834  001B06  9469               	bcf	3945,2,c	;volatile
  1835                           
  1836                           ;usb_device.c: 1221: while(UIRbits.ACTVIF)
  1837  001B08  D001               	goto	l2793
  1838  001B0A                     l2791:
  1839                           
  1840                           ;usb_device.c: 1223: {
  1841                           ;usb_device.c: 1224: (UIR &= 0xFB);
  1842  001B0A  9468               	bcf	3944,2,c	;volatile
  1843  001B0C                     l2793:
  1844  001B0C  A468               	btfss	3944,2,c	;volatile
  1845  001B0E  0012               	return	
  1846  001B10  D7FC               	goto	l2791
  1847  001B12                     __end_of_USBWakeFromSuspend:
  1848                           	opt stack 0
  1849                           tblptru	equ	0xFF8
  1850                           tblptrh	equ	0xFF7
  1851                           tblptrl	equ	0xFF6
  1852                           tablat	equ	0xFF5
  1853                           postinc0	equ	0xFEE
  1854                           wreg	equ	0xFE8
  1855                           postdec1	equ	0xFE5
  1856                           fsr1l	equ	0xFE1
  1857                           indf2	equ	0xFDF
  1858                           fsr2h	equ	0xFDA
  1859                           fsr2l	equ	0xFD9
  1860                           status	equ	0xFD8
  1861                           
  1862 ;; *************** function _USBSuspend *****************
  1863 ;; Defined at:
  1864 ;;		line 1128 in file "usb_device.c"
  1865 ;; Parameters:    Size  Location     Type
  1866 ;;		None
  1867 ;; Auto vars:     Size  Location     Type
  1868 ;;		None
  1869 ;; Return value:  Size  Location     Type
  1870 ;;                  1    wreg      void 
  1871 ;; Registers used:
  1872 ;;		wreg, fsr2l, fsr2h, status,2, status,0, prodl, prodh, cstack
  1873 ;; Tracked objects:
  1874 ;;		On entry : 0/0
  1875 ;;		On exit  : 0/0
  1876 ;;		Unchanged: 0/0
  1877 ;; Data sizes:     COMRAM   BANK0   BANK1   BANK2   BANK3  BANK4lBANK5hhhBANK5hhl BANK5hl  BANK5l   BANK6   BANK7
  1878 ;;      Params:         0       0       0       0       0       0       0       0       0       0       0       0
  1879 ;;      Locals:         0       0       0       0       0       0       0       0       0       0       0       0
  1880 ;;      Temps:          0       0       0       0       0       0       0       0       0       0       0       0
  1881 ;;      Totals:         0       0       0       0       0       0       0       0       0       0       0       0
  1882 ;;Total ram usage:        0 bytes
  1883 ;; Hardware stack levels used:    1
  1884 ;; Hardware stack levels required when called:    4
  1885 ;; This function calls:
  1886 ;;		_USER_USB_CALLBACK_EVENT_HANDLER
  1887 ;; This function is called by:
  1888 ;;		_USBDeviceTasks
  1889 ;; This function uses a non-reentrant model
  1890 ;;
  1891                           
  1892                           	psect	text5
  1893  001B3C                     __ptext5:
  1894                           	opt stack 0
  1895  001B3C                     _USBSuspend:
  1896                           	opt stack 25
  1897                           
  1898                           ;usb_device.c: 1153: UIEbits.ACTVIE = 1;
  1899                           
  1900                           ;incstack = 0
  1901  001B3C  8469               	bsf	3945,2,c	;volatile
  1902                           
  1903                           ;usb_device.c: 1154: (UIR &= 0xEF);
  1904  001B3E  9868               	bcf	3944,4,c	;volatile
  1905                           
  1906                           ;usb_device.c: 1157: UCONbits.SUSPND = 1;
  1907  001B40  826D               	bsf	3949,1,c	;volatile
  1908                           
  1909                           ;usb_device.c: 1167: USER_USB_CALLBACK_EVENT_HANDLER(EVENT_SUSPEND,0,0);
  1910  001B42  0E00               	movlw	0
  1911  001B44  6E46               	movwf	USER_USB_CALLBACK_EVENT_HANDLER@event+1,c
  1912  001B46  0E75               	movlw	117
  1913  001B48  6E45               	movwf	USER_USB_CALLBACK_EVENT_HANDLER@event,c
  1914  001B4A  0E00               	movlw	0
  1915  001B4C  6E47               	movwf	USER_USB_CALLBACK_EVENT_HANDLER@pdata,c
  1916  001B4E  0E00               	movlw	0
  1917  001B50  6E48               	movwf	USER_USB_CALLBACK_EVENT_HANDLER@pdata+1,c
  1918  001B52  0E00               	movlw	0
  1919  001B54  6E4A               	movwf	USER_USB_CALLBACK_EVENT_HANDLER@size+1,c
  1920  001B56  0E00               	movlw	0
  1921  001B58  6E49               	movwf	USER_USB_CALLBACK_EVENT_HANDLER@size,c
  1922  001B5A  ECE5  F00B         	call	_USER_USB_CALLBACK_EVENT_HANDLER	;wreg free
  1923  001B5E  0012               	return		;funcret
  1924  001B60                     __end_of_USBSuspend:
  1925                           	opt stack 0
  1926                           tblptru	equ	0xFF8
  1927                           tblptrh	equ	0xFF7
  1928                           tblptrl	equ	0xFF6
  1929                           tablat	equ	0xFF5
  1930                           postinc0	equ	0xFEE
  1931                           wreg	equ	0xFE8
  1932                           postdec1	equ	0xFE5
  1933                           fsr1l	equ	0xFE1
  1934                           indf2	equ	0xFDF
  1935                           fsr2h	equ	0xFDA
  1936                           fsr2l	equ	0xFD9
  1937                           status	equ	0xFD8
  1938                           
  1939 ;; *************** function _USBStallHandler *****************
  1940 ;; Defined at:
  1941 ;;		line 1085 in file "usb_device.c"
  1942 ;; Parameters:    Size  Location     Type
  1943 ;;		None
  1944 ;; Auto vars:     Size  Location     Type
  1945 ;;		None
  1946 ;; Return value:  Size  Location     Type
  1947 ;;                  1    wreg      void 
  1948 ;; Registers used:
  1949 ;;		wreg, fsr2l, fsr2h, status,2, status,0
  1950 ;; Tracked objects:
  1951 ;;		On entry : 0/0
  1952 ;;		On exit  : 0/0
  1953 ;;		Unchanged: 0/0
  1954 ;; Data sizes:     COMRAM   BANK0   BANK1   BANK2   BANK3  BANK4lBANK5hhhBANK5hhl BANK5hl  BANK5l   BANK6   BANK7
  1955 ;;      Params:         0       0       0       0       0       0       0       0       0       0       0       0
  1956 ;;      Locals:         0       0       0       0       0       0       0       0       0       0       0       0
  1957 ;;      Temps:          1       0       0       0       0       0       0       0       0       0       0       0
  1958 ;;      Totals:         1       0       0       0       0       0       0       0       0       0       0       0
  1959 ;;Total ram usage:        1 bytes
  1960 ;; Hardware stack levels used:    1
  1961 ;; This function calls:
  1962 ;;		Nothing
  1963 ;; This function is called by:
  1964 ;;		_USBDeviceTasks
  1965 ;; This function uses a non-reentrant model
  1966 ;;
  1967                           
  1968                           	psect	text6
  1969  001A58                     __ptext6:
  1970                           	opt stack 0
  1971  001A58                     _USBStallHandler:
  1972                           	opt stack 29
  1973                           
  1974                           ;usb_device.c: 1098: if(UEP0bits.EPSTALL == 1)
  1975                           
  1976                           ;incstack = 0
  1977  001A58  A070               	btfss	3952,0,c	;volatile
  1978  001A5A  D017               	goto	l2813
  1979                           
  1980                           ;usb_device.c: 1099: {
  1981                           ;usb_device.c: 1101: if((pBDTEntryEP0OutCurrent->STAT.Val == 0x80) && (pBDTEntryIn[0]->S
      +                          TAT.Val == (0x80|0x04)))
  1982  001A5C  C028  FFD9         	movff	_pBDTEntryEP0OutCurrent,fsr2l
  1983  001A60  C029  FFDA         	movff	_pBDTEntryEP0OutCurrent+1,fsr2h
  1984  001A64  0E80               	movlw	128
  1985  001A66  18DE               	xorwf	postinc2,w,c
  1986  001A68  A4D8               	btfss	status,2,c
  1987  001A6A  D00E               	goto	l2811
  1988  001A6C  C00F  FFD9         	movff	_pBDTEntryIn,fsr2l
  1989  001A70  C010  FFDA         	movff	_pBDTEntryIn+1,fsr2h
  1990  001A74  0E84               	movlw	132
  1991  001A76  18DE               	xorwf	postinc2,w,c
  1992  001A78  A4D8               	btfss	status,2,c
  1993  001A7A  D006               	goto	l2811
  1994                           
  1995                           ;usb_device.c: 1102: {
  1996                           ;usb_device.c: 1104: pBDTEntryEP0OutCurrent->STAT.Val = 0x80|0x00|0x08|0x04;
  1997  001A7C  C028  FFD9         	movff	_pBDTEntryEP0OutCurrent,fsr2l
  1998  001A80  C029  FFDA         	movff	_pBDTEntryEP0OutCurrent+1,fsr2h
  1999  001A84  0E8C               	movlw	140
  2000  001A86  6EDF               	movwf	indf2,c
  2001  001A88                     l2811:
  2002                           
  2003                           ;usb_device.c: 1105: }
  2004                           ;usb_device.c: 1106: UEP0bits.EPSTALL = 0;
  2005  001A88  9070               	bcf	3952,0,c	;volatile
  2006  001A8A                     l2813:
  2007                           
  2008                           ;usb_device.c: 1107: }
  2009                           ;usb_device.c: 1109: (UIR &= 0xDF);
  2010  001A8A  9A68               	bcf	3944,5,c	;volatile
  2011  001A8C  0012               	return		;funcret
  2012  001A8E                     __end_of_USBStallHandler:
  2013                           	opt stack 0
  2014                           tblptru	equ	0xFF8
  2015                           tblptrh	equ	0xFF7
  2016                           tblptrl	equ	0xFF6
  2017                           tablat	equ	0xFF5
  2018                           postinc0	equ	0xFEE
  2019                           wreg	equ	0xFE8
  2020                           postdec1	equ	0xFE5
  2021                           fsr1l	equ	0xFE1
  2022                           indf2	equ	0xFDF
  2023                           postinc2	equ	0xFDE
  2024                           fsr2h	equ	0xFDA
  2025                           fsr2l	equ	0xFD9
  2026                           status	equ	0xFD8
  2027                           
  2028 ;; *************** function _USBDeviceInit *****************
  2029 ;; Defined at:
  2030 ;;		line 671 in file "usb_device.c"
  2031 ;; Parameters:    Size  Location     Type
  2032 ;;		None
  2033 ;; Auto vars:     Size  Location     Type
  2034 ;;  i               1    8[COMRAM] unsigned char 
  2035 ;; Return value:  Size  Location     Type
  2036 ;;                  1    wreg      void 
  2037 ;; Registers used:
  2038 ;;		wreg, fsr2l, fsr2h, status,2, status,0, prodl, prodh, cstack
  2039 ;; Tracked objects:
  2040 ;;		On entry : 0/0
  2041 ;;		On exit  : 0/0
  2042 ;;		Unchanged: 0/0
  2043 ;; Data sizes:     COMRAM   BANK0   BANK1   BANK2   BANK3  BANK4lBANK5hhhBANK5hhl BANK5hl  BANK5l   BANK6   BANK7
  2044 ;;      Params:         0       0       0       0       0       0       0       0       0       0       0       0
  2045 ;;      Locals:         1       0       0       0       0       0       0       0       0       0       0       0
  2046 ;;      Temps:          0       0       0       0       0       0       0       0       0       0       0       0
  2047 ;;      Totals:         1       0       0       0       0       0       0       0       0       0       0       0
  2048 ;;Total ram usage:        1 bytes
  2049 ;; Hardware stack levels used:    1
  2050 ;; Hardware stack levels required when called:    1
  2051 ;; This function calls:
  2052 ;;		_memset
  2053 ;; This function is called by:
  2054 ;;		_main
  2055 ;;		_USBDeviceTasks
  2056 ;; This function uses a non-reentrant model
  2057 ;;
  2058                           
  2059                           	psect	text7
  2060  0015A2                     __ptext7:
  2061                           	opt stack 0
  2062  0015A2                     _USBDeviceInit:
  2063                           	opt stack 28
  2064                           
  2065                           ;usb_device.c: 673: BYTE i;
  2066                           ;usb_device.c: 676: UEIR = 0;;
  2067                           
  2068                           ;incstack = 0
  2069  0015A2  0E00               	movlw	0
  2070  0015A4  6E6A               	movwf	3946,c	;volatile
  2071                           
  2072                           ;usb_device.c: 679: UIR = 0;;
  2073  0015A6  0E00               	movlw	0
  2074  0015A8  6E68               	movwf	3944,c	;volatile
  2075                           
  2076                           ;usb_device.c: 681: { UCFG = 0x10 | 0x00 | 0x04 | 0x02; UEIE = 0x9F; UIE = 0x39 | 0x40 |
      +                           0x02; };
  2077  0015AA  0E16               	movlw	22
  2078  0015AC  6E6F               	movwf	3951,c	;volatile
  2079  0015AE  0E9F               	movlw	159
  2080  0015B0  6E6B               	movwf	3947,c	;volatile
  2081  0015B2  0E7B               	movlw	123
  2082  0015B4  6E69               	movwf	3945,c	;volatile
  2083                           
  2084                           ;usb_device.c: 684: ;
  2085                           ;usb_device.c: 687: ;
  2086                           ;usb_device.c: 690: UCONbits.PPBRST = 1;
  2087  0015B6  8C6D               	bsf	3949,6,c	;volatile
  2088                           
  2089                           ;usb_device.c: 693: UADDR = 0x00;
  2090  0015B8  0E00               	movlw	0
  2091  0015BA  6E6E               	movwf	3950,c	;volatile
  2092                           
  2093                           ;usb_device.c: 696: memset((void*)&UEP1,0x00,(1-1));
  2094  0015BC  0E71               	movlw	113
  2095  0015BE  6E3A               	movwf	memset@p1,c
  2096  0015C0  0E0F               	movlw	15
  2097  0015C2  6E3B               	movwf	memset@p1+1,c
  2098  0015C4  0E00               	movlw	0
  2099  0015C6  6E3D               	movwf	memset@c+1,c
  2100  0015C8  0E00               	movlw	0
  2101  0015CA  6E3C               	movwf	memset@c,c
  2102  0015CC  0E00               	movlw	0
  2103  0015CE  6E3F               	movwf	memset@n+1,c
  2104  0015D0  0E00               	movlw	0
  2105  0015D2  6E3E               	movwf	memset@n,c
  2106  0015D4  EC5E  F00D         	call	_memset	;wreg free
  2107                           
  2108                           ;usb_device.c: 699: UCONbits.PPBRST = 0;
  2109  0015D8  9C6D               	bcf	3949,6,c	;volatile
  2110                           
  2111                           ;usb_device.c: 702: for(i=0;i<(sizeof(BDT)/sizeof(BDT_ENTRY));i++)
  2112  0015DA  0E00               	movlw	0
  2113  0015DC  6E42               	movwf	USBDeviceInit@i,c
  2114  0015DE                     l2759:
  2115  0015DE  0E07               	movlw	7
  2116  0015E0  6442               	cpfsgt	USBDeviceInit@i,c
  2117  0015E2  D001               	goto	l2763
  2118  0015E4  D00E               	goto	l2769
  2119  0015E6                     l2763:
  2120                           
  2121                           ;usb_device.c: 703: {
  2122                           ;usb_device.c: 704: BDT[i].Val = 0x00;
  2123  0015E6  5042               	movf	USBDeviceInit@i,w,c
  2124  0015E8  0D04               	mullw	4
  2125  0015EA  0E00               	movlw	0
  2126  0015EC  24F3               	addwf	prodl,w,c
  2127  0015EE  6ED9               	movwf	fsr2l,c
  2128  0015F0  0E04               	movlw	4
  2129  0015F2  20F4               	addwfc	prodh,w,c
  2130  0015F4  6EDA               	movwf	fsr2h,c
  2131  0015F6  6ADE               	clrf	postinc2,c
  2132  0015F8  6ADE               	clrf	postinc2,c
  2133  0015FA  6ADE               	clrf	postinc2,c
  2134  0015FC  6ADD               	clrf	postdec2,c
  2135  0015FE  2A42               	incf	USBDeviceInit@i,f,c
  2136  001600  D7EE               	goto	l2759
  2137  001602                     l2769:
  2138                           
  2139                           ;usb_device.c: 705: }
  2140                           ;usb_device.c: 708: UEP0 = 0x06|0x10;
  2141  001602  0E16               	movlw	22
  2142  001604  6E70               	movwf	3952,c	;volatile
  2143                           
  2144                           ;usb_device.c: 711: while(UIRbits.TRNIF == 1)
  2145  001606  D001               	goto	l2773
  2146  001608                     l2771:
  2147                           
  2148                           ;usb_device.c: 712: {
  2149                           ;usb_device.c: 713: (UIR &= 0xF7);
  2150  001608  9668               	bcf	3944,3,c	;volatile
  2151  00160A                     l2773:
  2152  00160A  B668               	btfsc	3944,3,c	;volatile
  2153  00160C  D7FD               	goto	l2771
  2154                           
  2155                           ;usb_device.c: 714: }
  2156                           ;usb_device.c: 717: inPipes[0].info.Val = 0;
  2157  00160E  0E00               	movlw	0
  2158  001610  6E0C               	movwf	_inPipes+3,c
  2159                           
  2160                           ;usb_device.c: 718: outPipes[0].info.Val = 0;
  2161  001612  0E00               	movlw	0
  2162  001614  6E04               	movwf	_outPipes+3,c
  2163                           
  2164                           ;usb_device.c: 719: outPipes[0].wCount.Val = 0;
  2165  001616  0E00               	movlw	0
  2166  001618  6E06               	movwf	_outPipes+5,c
  2167  00161A  0E00               	movlw	0
  2168  00161C  6E05               	movwf	_outPipes+4,c
  2169                           
  2170                           ;usb_device.c: 722: PKTDIS = 0;
  2171  00161E  986D               	bcf	3949,4,c	;volatile
  2172                           
  2173                           ;usb_device.c: 725: pBDTEntryIn[0] = (volatile BDT_ENTRY*)&BDT[2];
  2174  001620  0E08               	movlw	8
  2175  001622  6E0F               	movwf	_pBDTEntryIn,c
  2176  001624  0E04               	movlw	4
  2177  001626  6E10               	movwf	_pBDTEntryIn+1,c
  2178                           
  2179                           ;usb_device.c: 728: USBActiveConfiguration = 0;
  2180  001628  0E00               	movlw	0
  2181  00162A  6E35               	movwf	_USBActiveConfiguration,c
  2182                           
  2183                           ;usb_device.c: 731: USBDeviceState = DETACHED_STATE;
  2184  00162C  0E00               	movlw	0
  2185  00162E  6E32               	movwf	_USBDeviceState,c
  2186  001630  0012               	return		;funcret
  2187  001632                     __end_of_USBDeviceInit:
  2188                           	opt stack 0
  2189                           tblptru	equ	0xFF8
  2190                           tblptrh	equ	0xFF7
  2191                           tblptrl	equ	0xFF6
  2192                           tablat	equ	0xFF5
  2193                           prodh	equ	0xFF4
  2194                           prodl	equ	0xFF3
  2195                           postinc0	equ	0xFEE
  2196                           wreg	equ	0xFE8
  2197                           postdec1	equ	0xFE5
  2198                           fsr1l	equ	0xFE1
  2199                           indf2	equ	0xFDF
  2200                           postinc2	equ	0xFDE
  2201                           postdec2	equ	0xFDD
  2202                           fsr2h	equ	0xFDA
  2203                           fsr2l	equ	0xFD9
  2204                           status	equ	0xFD8
  2205                           
  2206 ;; *************** function _USBCtrlEPService *****************
  2207 ;; Defined at:
  2208 ;;		line 1250 in file "usb_device.c"
  2209 ;; Parameters:    Size  Location     Type
  2210 ;;		None
  2211 ;; Auto vars:     Size  Location     Type
  2212 ;;  setup_cnt       1   21[COMRAM] unsigned char 
  2213 ;; Return value:  Size  Location     Type
  2214 ;;                  1    wreg      void 
  2215 ;; Registers used:
  2216 ;;		wreg, fsr1l, fsr1h, fsr2l, fsr2h, status,2, status,0, tblptrl, tblptrh, tblptru, prodl, prodh, cstack
  2217 ;; Tracked objects:
  2218 ;;		On entry : 0/0
  2219 ;;		On exit  : 0/0
  2220 ;;		Unchanged: 0/0
  2221 ;; Data sizes:     COMRAM   BANK0   BANK1   BANK2   BANK3  BANK4lBANK5hhhBANK5hhl BANK5hl  BANK5l   BANK6   BANK7
  2222 ;;      Params:         0       0       0       0       0       0       0       0       0       0       0       0
  2223 ;;      Locals:         1       0       0       0       0       0       0       0       0       0       0       0
  2224 ;;      Temps:          2       0       0       0       0       0       0       0       0       0       0       0
  2225 ;;      Totals:         3       0       0       0       0       0       0       0       0       0       0       0
  2226 ;;Total ram usage:        3 bytes
  2227 ;; Hardware stack levels used:    1
  2228 ;; Hardware stack levels required when called:    7
  2229 ;; This function calls:
  2230 ;;		_USBCtrlTrfInHandler
  2231 ;;		_USBCtrlTrfOutHandler
  2232 ;;		_USBCtrlTrfSetupHandler
  2233 ;; This function is called by:
  2234 ;;		_USBDeviceTasks
  2235 ;; This function uses a non-reentrant model
  2236 ;;
  2237                           
  2238                           	psect	text8
  2239  00139E                     __ptext8:
  2240                           	opt stack 0
  2241  00139E                     _USBCtrlEPService:
  2242                           	opt stack 22
  2243                           
  2244                           ;usb_device.c: 1253: if((USTATcopy & ~0x02) == 0x00)
  2245                           
  2246                           ;incstack = 0
  2247  00139E  C037  F04D         	movff	_USTATcopy,??_USBCtrlEPService
  2248  0013A2  0EFD               	movlw	253
  2249  0013A4  164D               	andwf	??_USBCtrlEPService,f,c
  2250  0013A6  A4D8               	btfss	status,2,c
  2251  0013A8  D055               	goto	l2845
  2252                           
  2253                           ;usb_device.c: 1254: {
  2254                           ;usb_device.c: 1257: pBDTEntryEP0OutCurrent = (volatile BDT_ENTRY*)&BDT[(USTATcopy & 0x7
      +                          E)>>1];
  2255  0013AA  C037  F04D         	movff	_USTATcopy,??_USBCtrlEPService
  2256  0013AE  90D8               	bcf	status,0,c
  2257  0013B0  324D               	rrcf	??_USBCtrlEPService,f,c
  2258  0013B2  0E3F               	movlw	63
  2259  0013B4  164D               	andwf	??_USBCtrlEPService,f,c
  2260  0013B6  504D               	movf	??_USBCtrlEPService,w,c
  2261  0013B8  0D04               	mullw	4
  2262  0013BA  0E00               	movlw	0
  2263  0013BC  24F3               	addwf	prodl,w,c
  2264  0013BE  6E28               	movwf	_pBDTEntryEP0OutCurrent,c
  2265  0013C0  0E04               	movlw	4
  2266  0013C2  20F4               	addwfc	prodh,w,c
  2267  0013C4  6E29               	movwf	_pBDTEntryEP0OutCurrent+1,c
  2268                           
  2269                           ;usb_device.c: 1265: pBDTEntryEP0OutNext = pBDTEntryEP0OutCurrent;
  2270  0013C6  C028  F02A         	movff	_pBDTEntryEP0OutCurrent,_pBDTEntryEP0OutNext
  2271  0013CA  C029  F02B         	movff	_pBDTEntryEP0OutCurrent+1,_pBDTEntryEP0OutNext+1
  2272                           
  2273                           ;usb_device.c: 1267: ((BYTE_VAL*)&pBDTEntryEP0OutNext)->Val ^= 0x0004;
  2274  0013CE  0E04               	movlw	4
  2275  0013D0  1A2A               	xorwf	_pBDTEntryEP0OutNext,f,c
  2276                           
  2277                           ;usb_device.c: 1270: if(pBDTEntryEP0OutCurrent->STAT.PID == 0xD)
  2278  0013D2  C028  FFD9         	movff	_pBDTEntryEP0OutCurrent,fsr2l
  2279  0013D6  C029  FFDA         	movff	_pBDTEntryEP0OutCurrent+1,fsr2h
  2280  0013DA  30DF               	rrcf	indf2,w,c
  2281  0013DC  32E8               	rrcf	wreg,f,c
  2282  0013DE  0B0F               	andlw	15
  2283  0013E0  0A0D               	xorlw	13
  2284  0013E2  A4D8               	btfss	status,2,c
  2285  0013E4  D034               	goto	l2843
  2286                           
  2287                           ;usb_device.c: 1271: {
  2288                           ;usb_device.c: 1275: if(pBDTEntryEP0OutCurrent->ADR == (BYTE*)&CtrlTrfData)
  2289  0013E6  EE20 F002          	lfsr	2,2
  2290  0013EA  5028               	movf	_pBDTEntryEP0OutCurrent,w,c
  2291  0013EC  26D9               	addwf	fsr2l,f,c
  2292  0013EE  5029               	movf	_pBDTEntryEP0OutCurrent+1,w,c
  2293  0013F0  22DA               	addwfc	fsr2h,f,c
  2294  0013F2  0E20               	movlw	32
  2295  0013F4  18DE               	xorwf	postinc2,w,c
  2296  0013F6  E128               	bnz	l2841
  2297  0013F8  0E05               	movlw	5
  2298  0013FA  18DE               	xorwf	postinc2,w,c
  2299  0013FC  A4D8               	btfss	status,2,c
  2300  0013FE  D024               	goto	l2841
  2301                           
  2302                           ;usb_device.c: 1276: {
  2303                           ;usb_device.c: 1277: unsigned char setup_cnt;
  2304                           ;usb_device.c: 1279: pBDTEntryEP0OutCurrent->ADR = (BYTE*)&SetupPkt;
  2305  001400  EE20 F002          	lfsr	2,2
  2306  001404  5028               	movf	_pBDTEntryEP0OutCurrent,w,c
  2307  001406  26D9               	addwf	fsr2l,f,c
  2308  001408  5029               	movf	_pBDTEntryEP0OutCurrent+1,w,c
  2309  00140A  22DA               	addwfc	fsr2h,f,c
  2310  00140C  0E00               	movlw	0
  2311  00140E  6EDE               	movwf	postinc2,c
  2312  001410  0E05               	movlw	5
  2313  001412  6EDD               	movwf	postdec2,c
  2314                           
  2315                           ;usb_device.c: 1280: for(setup_cnt = 0; setup_cnt < sizeof(CTRL_TRF_SETUP); setup_cnt++)
  2316  001414  0E00               	movlw	0
  2317  001416  6E4F               	movwf	USBCtrlEPService@setup_cnt,c
  2318  001418                     l2831:
  2319  001418  0E07               	movlw	7
  2320  00141A  644F               	cpfsgt	USBCtrlEPService@setup_cnt,c
  2321  00141C  D001               	goto	l2835
  2322  00141E  D014               	goto	l2841
  2323  001420                     l2835:
  2324                           
  2325                           ;usb_device.c: 1281: {
  2326                           ;usb_device.c: 1282: *(((BYTE*)&SetupPkt)+setup_cnt) = *(((BYTE*)&CtrlTrfData)+setup_cnt
      +                          );
  2327  001420  504F               	movf	USBCtrlEPService@setup_cnt,w,c
  2328  001422  0D01               	mullw	1
  2329  001424  0E20               	movlw	32
  2330  001426  24F3               	addwf	prodl,w,c
  2331  001428  6ED9               	movwf	fsr2l,c
  2332  00142A  0E05               	movlw	5
  2333  00142C  20F4               	addwfc	prodh,w,c
  2334  00142E  6EDA               	movwf	fsr2h,c
  2335  001430  504F               	movf	USBCtrlEPService@setup_cnt,w,c
  2336  001432  0D01               	mullw	1
  2337  001434  0E00               	movlw	0
  2338  001436  24F3               	addwf	prodl,w,c
  2339  001438  6EE1               	movwf	fsr1l,c
  2340  00143A  0E05               	movlw	5
  2341  00143C  20F4               	addwfc	prodh,w,c
  2342  00143E  6EE2               	movwf	fsr1h,c
  2343  001440  CFDF FFE7          	movff	indf2,indf1
  2344  001444  2A4F               	incf	USBCtrlEPService@setup_cnt,f,c
  2345  001446  D7E8               	goto	l2831
  2346  001448                     l2841:
  2347                           
  2348                           ;usb_device.c: 1283: }
  2349                           ;usb_device.c: 1284: }
  2350                           ;usb_device.c: 1287: USBCtrlTrfSetupHandler();
  2351  001448  ECBD  F00C         	call	_USBCtrlTrfSetupHandler	;wreg free
  2352                           
  2353                           ;usb_device.c: 1288: }
  2354  00144C  0012               	return	
  2355  00144E                     l2843:
  2356                           
  2357                           ;usb_device.c: 1289: else
  2358                           ;usb_device.c: 1290: {
  2359                           ;usb_device.c: 1292: USBCtrlTrfOutHandler();
  2360  00144E  ECE6  F00C         	call	_USBCtrlTrfOutHandler	;wreg free
  2361                           
  2362                           ;usb_device.c: 1293: }
  2363                           ;usb_device.c: 1294: }
  2364  001452  0012               	return	
  2365  001454                     l2845:
  2366                           
  2367                           ;usb_device.c: 1295: else if((USTATcopy & ~0x02) == 0x04)
  2368  001454  5037               	movf	_USTATcopy,w,c
  2369  001456  0BFD               	andlw	253
  2370  001458  0A04               	xorlw	4
  2371  00145A  A4D8               	btfss	status,2,c
  2372  00145C  0012               	return	
  2373                           
  2374                           ;usb_device.c: 1296: {
  2375                           ;usb_device.c: 1299: USBCtrlTrfInHandler();
  2376  00145E  EC5E  F00B         	call	_USBCtrlTrfInHandler	;wreg free
  2377  001462  0012               	return	
  2378  001464                     __end_of_USBCtrlEPService:
  2379                           	opt stack 0
  2380                           tblptru	equ	0xFF8
  2381                           tblptrh	equ	0xFF7
  2382                           tblptrl	equ	0xFF6
  2383                           tablat	equ	0xFF5
  2384                           prodh	equ	0xFF4
  2385                           prodl	equ	0xFF3
  2386                           postinc0	equ	0xFEE
  2387                           wreg	equ	0xFE8
  2388                           indf1	equ	0xFE7
  2389                           postdec1	equ	0xFE5
  2390                           fsr1h	equ	0xFE2
  2391                           fsr1l	equ	0xFE1
  2392                           indf2	equ	0xFDF
  2393                           postinc2	equ	0xFDE
  2394                           postdec2	equ	0xFDD
  2395                           fsr2h	equ	0xFDA
  2396                           fsr2l	equ	0xFD9
  2397                           status	equ	0xFD8
  2398                           
  2399 ;; *************** function _USBCtrlTrfSetupHandler *****************
  2400 ;; Defined at:
  2401 ;;		line 1344 in file "usb_device.c"
  2402 ;; Parameters:    Size  Location     Type
  2403 ;;		None
  2404 ;; Auto vars:     Size  Location     Type
  2405 ;;		None
  2406 ;; Return value:  Size  Location     Type
  2407 ;;                  1    wreg      void 
  2408 ;; Registers used:
  2409 ;;		wreg, fsr1l, fsr1h, fsr2l, fsr2h, status,2, status,0, tblptrl, tblptrh, tblptru, prodl, prodh, cstack
  2410 ;; Tracked objects:
  2411 ;;		On entry : 0/0
  2412 ;;		On exit  : 0/0
  2413 ;;		Unchanged: 0/0
  2414 ;; Data sizes:     COMRAM   BANK0   BANK1   BANK2   BANK3  BANK4lBANK5hhhBANK5hhl BANK5hl  BANK5l   BANK6   BANK7
  2415 ;;      Params:         0       0       0       0       0       0       0       0       0       0       0       0
  2416 ;;      Locals:         0       0       0       0       0       0       0       0       0       0       0       0
  2417 ;;      Temps:          0       0       0       0       0       0       0       0       0       0       0       0
  2418 ;;      Totals:         0       0       0       0       0       0       0       0       0       0       0       0
  2419 ;;Total ram usage:        0 bytes
  2420 ;; Hardware stack levels used:    1
  2421 ;; Hardware stack levels required when called:    6
  2422 ;; This function calls:
  2423 ;;		_USBCheckStdRequest
  2424 ;;		_USBCtrlEPServiceComplete
  2425 ;;		_USER_USB_CALLBACK_EVENT_HANDLER
  2426 ;; This function is called by:
  2427 ;;		_USBCtrlEPService
  2428 ;; This function uses a non-reentrant model
  2429 ;;
  2430                           
  2431                           	psect	text9
  2432  00197A                     __ptext9:
  2433                           	opt stack 0
  2434  00197A                     _USBCtrlTrfSetupHandler:
  2435                           	opt stack 22
  2436                           
  2437                           ;usb_device.c: 1347: if(pBDTEntryIn[0]->STAT.UOWN != 0)
  2438                           
  2439                           ;incstack = 0
  2440  00197A  C00F  FFD9         	movff	_pBDTEntryIn,fsr2l
  2441  00197E  C010  FFDA         	movff	_pBDTEntryIn+1,fsr2h
  2442  001982  AEDF               	btfss	indf2,7,c
  2443  001984  D006               	goto	l2689
  2444                           
  2445                           ;usb_device.c: 1348: {
  2446                           ;usb_device.c: 1351: pBDTEntryIn[0]->STAT.Val = 0x00;
  2447  001986  C00F  FFD9         	movff	_pBDTEntryIn,fsr2l
  2448  00198A  C010  FFDA         	movff	_pBDTEntryIn+1,fsr2h
  2449  00198E  0E00               	movlw	0
  2450  001990  6EDF               	movwf	indf2,c
  2451  001992                     l2689:
  2452                           
  2453                           ;usb_device.c: 1352: }
  2454                           ;usb_device.c: 1355: shortPacketStatus = 0;
  2455  001992  0E00               	movlw	0
  2456  001994  6E34               	movwf	_shortPacketStatus,c
  2457                           
  2458                           ;usb_device.c: 1358: controlTransferState = 0;
  2459  001996  0E00               	movlw	0
  2460  001998  6E33               	movwf	_controlTransferState,c
  2461                           
  2462                           ;usb_device.c: 1360: inPipes[0].wCount.Val = 0;
  2463  00199A  0E00               	movlw	0
  2464  00199C  6E0E               	movwf	_inPipes+5,c
  2465  00199E  0E00               	movlw	0
  2466  0019A0  6E0D               	movwf	_inPipes+4,c
  2467                           
  2468                           ;usb_device.c: 1361: inPipes[0].info.Val = 0;
  2469  0019A2  0E00               	movlw	0
  2470  0019A4  6E0C               	movwf	_inPipes+3,c
  2471                           
  2472                           ;usb_device.c: 1364: USBCheckStdRequest();
  2473  0019A6  EC62  F009         	call	_USBCheckStdRequest	;wreg free
  2474                           
  2475                           ;usb_device.c: 1365: USER_USB_CALLBACK_EVENT_HANDLER(EVENT_EP0_REQUEST,0,0);
  2476  0019AA  0E00               	movlw	0
  2477  0019AC  6E46               	movwf	USER_USB_CALLBACK_EVENT_HANDLER@event+1,c
  2478  0019AE  0E03               	movlw	3
  2479  0019B0  6E45               	movwf	USER_USB_CALLBACK_EVENT_HANDLER@event,c
  2480  0019B2  0E00               	movlw	0
  2481  0019B4  6E47               	movwf	USER_USB_CALLBACK_EVENT_HANDLER@pdata,c
  2482  0019B6  0E00               	movlw	0
  2483  0019B8  6E48               	movwf	USER_USB_CALLBACK_EVENT_HANDLER@pdata+1,c
  2484  0019BA  0E00               	movlw	0
  2485  0019BC  6E4A               	movwf	USER_USB_CALLBACK_EVENT_HANDLER@size+1,c
  2486  0019BE  0E00               	movlw	0
  2487  0019C0  6E49               	movwf	USER_USB_CALLBACK_EVENT_HANDLER@size,c
  2488  0019C2  ECE5  F00B         	call	_USER_USB_CALLBACK_EVENT_HANDLER	;wreg free
  2489                           
  2490                           ;usb_device.c: 1368: USBCtrlEPServiceComplete();
  2491  0019C6  EC84  F005         	call	_USBCtrlEPServiceComplete	;wreg free
  2492  0019CA  0012               	return		;funcret
  2493  0019CC                     __end_of_USBCtrlTrfSetupHandler:
  2494                           	opt stack 0
  2495                           tblptru	equ	0xFF8
  2496                           tblptrh	equ	0xFF7
  2497                           tblptrl	equ	0xFF6
  2498                           tablat	equ	0xFF5
  2499                           prodh	equ	0xFF4
  2500                           prodl	equ	0xFF3
  2501                           postinc0	equ	0xFEE
  2502                           wreg	equ	0xFE8
  2503                           indf1	equ	0xFE7
  2504                           postdec1	equ	0xFE5
  2505                           fsr1h	equ	0xFE2
  2506                           fsr1l	equ	0xFE1
  2507                           indf2	equ	0xFDF
  2508                           postinc2	equ	0xFDE
  2509                           postdec2	equ	0xFDD
  2510                           fsr2h	equ	0xFDA
  2511                           fsr2l	equ	0xFD9
  2512                           status	equ	0xFD8
  2513                           
  2514 ;; *************** function _USBCtrlEPServiceComplete *****************
  2515 ;; Defined at:
  2516 ;;		line 1910 in file "usb_device.c"
  2517 ;; Parameters:    Size  Location     Type
  2518 ;;		None
  2519 ;; Auto vars:     Size  Location     Type
  2520 ;;		None
  2521 ;; Return value:  Size  Location     Type
  2522 ;;                  1    wreg      void 
  2523 ;; Registers used:
  2524 ;;		wreg, fsr1l, fsr1h, fsr2l, fsr2h, status,2, status,0, tblptrl, tblptrh, tblptru, cstack
  2525 ;; Tracked objects:
  2526 ;;		On entry : 0/0
  2527 ;;		On exit  : 0/0
  2528 ;;		Unchanged: 0/0
  2529 ;; Data sizes:     COMRAM   BANK0   BANK1   BANK2   BANK3  BANK4lBANK5hhhBANK5hhl BANK5hl  BANK5l   BANK6   BANK7
  2530 ;;      Params:         0       0       0       0       0       0       0       0       0       0       0       0
  2531 ;;      Locals:         0       0       0       0       0       0       0       0       0       0       0       0
  2532 ;;      Temps:          0       0       0       0       0       0       0       0       0       0       0       0
  2533 ;;      Totals:         0       0       0       0       0       0       0       0       0       0       0       0
  2534 ;;Total ram usage:        0 bytes
  2535 ;; Hardware stack levels used:    1
  2536 ;; Hardware stack levels required when called:    1
  2537 ;; This function calls:
  2538 ;;		_USBCtrlTrfTxService
  2539 ;; This function is called by:
  2540 ;;		_USBCtrlTrfSetupHandler
  2541 ;; This function uses a non-reentrant model
  2542 ;;
  2543                           
  2544                           	psect	text10
  2545  000B08                     __ptext10:
  2546                           	opt stack 0
  2547  000B08                     _USBCtrlEPServiceComplete:
  2548                           	opt stack 26
  2549                           
  2550                           ;usb_device.c: 1916: PKTDIS = 0;
  2551                           
  2552                           ;incstack = 0
  2553  000B08  986D               	bcf	3949,4,c	;volatile
  2554                           
  2555                           ;usb_device.c: 1918: if(inPipes[0].info.bits.busy == 0)
  2556  000B0A  BE0C               	btfsc	_inPipes+3,7,c
  2557  000B0C  D04A               	goto	l401
  2558                           
  2559                           ;usb_device.c: 1919: {
  2560                           ;usb_device.c: 1920: if(outPipes[0].info.bits.busy == 1)
  2561  000B0E  AE04               	btfss	_outPipes+3,7,c
  2562  000B10  D029               	goto	l2591
  2563                           
  2564                           ;usb_device.c: 1921: {
  2565                           ;usb_device.c: 1922: controlTransferState = 2;
  2566  000B12  0E02               	movlw	2
  2567  000B14  6E33               	movwf	_controlTransferState,c
  2568                           
  2569                           ;usb_device.c: 1932: pBDTEntryIn[0]->CNT = 0;
  2570  000B16  EE20 F001          	lfsr	2,1
  2571  000B1A  500F               	movf	_pBDTEntryIn,w,c
  2572  000B1C  26D9               	addwf	fsr2l,f,c
  2573  000B1E  5010               	movf	_pBDTEntryIn+1,w,c
  2574  000B20  22DA               	addwfc	fsr2h,f,c
  2575  000B22  0E00               	movlw	0
  2576  000B24  6EDF               	movwf	indf2,c
  2577                           
  2578                           ;usb_device.c: 1933: pBDTEntryIn[0]->STAT.Val = 0x80|0x40|0x08;
  2579  000B26  C00F  FFD9         	movff	_pBDTEntryIn,fsr2l
  2580  000B2A  C010  FFDA         	movff	_pBDTEntryIn+1,fsr2h
  2581  000B2E  0EC8               	movlw	200
  2582  000B30  6EDF               	movwf	indf2,c
  2583                           
  2584                           ;usb_device.c: 1938: pBDTEntryEP0OutNext->CNT = 8;
  2585  000B32  EE20 F001          	lfsr	2,1
  2586  000B36  502A               	movf	_pBDTEntryEP0OutNext,w,c
  2587  000B38  26D9               	addwf	fsr2l,f,c
  2588  000B3A  502B               	movf	_pBDTEntryEP0OutNext+1,w,c
  2589  000B3C  22DA               	addwfc	fsr2h,f,c
  2590  000B3E  0E08               	movlw	8
  2591  000B40  6EDF               	movwf	indf2,c
  2592                           
  2593                           ;usb_device.c: 1939: pBDTEntryEP0OutNext->ADR = (BYTE*)&CtrlTrfData;
  2594  000B42  EE20 F002          	lfsr	2,2
  2595  000B46  502A               	movf	_pBDTEntryEP0OutNext,w,c
  2596  000B48  26D9               	addwf	fsr2l,f,c
  2597  000B4A  502B               	movf	_pBDTEntryEP0OutNext+1,w,c
  2598  000B4C  22DA               	addwfc	fsr2h,f,c
  2599  000B4E  0E20               	movlw	32
  2600  000B50  6EDE               	movwf	postinc2,c
  2601  000B52  0E05               	movlw	5
  2602  000B54  6EDD               	movwf	postdec2,c
  2603                           
  2604                           ;usb_device.c: 1940: pBDTEntryEP0OutNext->STAT.Val = 0x80|0x40|0x08;
  2605  000B56  C02A  FFD9         	movff	_pBDTEntryEP0OutNext,fsr2l
  2606  000B5A  C02B  FFDA         	movff	_pBDTEntryEP0OutNext+1,fsr2h
  2607  000B5E  0EC8               	movlw	200
  2608  000B60  6EDF               	movwf	indf2,c
  2609                           
  2610                           ;usb_device.c: 1941: }
  2611  000B62  0012               	return	
  2612  000B64                     l2591:
  2613                           
  2614                           ;usb_device.c: 1942: else
  2615                           ;usb_device.c: 1943: {
  2616                           ;usb_device.c: 1948: pBDTEntryEP0OutNext->CNT = 8;
  2617  000B64  EE20 F001          	lfsr	2,1
  2618  000B68  502A               	movf	_pBDTEntryEP0OutNext,w,c
  2619  000B6A  26D9               	addwf	fsr2l,f,c
  2620  000B6C  502B               	movf	_pBDTEntryEP0OutNext+1,w,c
  2621  000B6E  22DA               	addwfc	fsr2h,f,c
  2622  000B70  0E08               	movlw	8
  2623  000B72  6EDF               	movwf	indf2,c
  2624                           
  2625                           ;usb_device.c: 1949: pBDTEntryEP0OutNext->ADR = (BYTE*)&SetupPkt;
  2626  000B74  EE20 F002          	lfsr	2,2
  2627  000B78  502A               	movf	_pBDTEntryEP0OutNext,w,c
  2628  000B7A  26D9               	addwf	fsr2l,f,c
  2629  000B7C  502B               	movf	_pBDTEntryEP0OutNext+1,w,c
  2630  000B7E  22DA               	addwfc	fsr2h,f,c
  2631  000B80  0E00               	movlw	0
  2632  000B82  6EDE               	movwf	postinc2,c
  2633  000B84  0E05               	movlw	5
  2634  000B86  6EDD               	movwf	postdec2,c
  2635                           
  2636                           ;usb_device.c: 1950: pBDTEntryEP0OutNext->STAT.Val = 0x80|0x00|0x08|0x04;
  2637  000B88  C02A  FFD9         	movff	_pBDTEntryEP0OutNext,fsr2l
  2638  000B8C  C02B  FFDA         	movff	_pBDTEntryEP0OutNext+1,fsr2h
  2639  000B90  0E8C               	movlw	140
  2640  000B92  6EDF               	movwf	indf2,c
  2641                           
  2642                           ;usb_device.c: 1951: pBDTEntryIn[0]->STAT.Val = 0x80|0x04;
  2643  000B94  C00F  FFD9         	movff	_pBDTEntryIn,fsr2l
  2644  000B98  C010  FFDA         	movff	_pBDTEntryIn+1,fsr2h
  2645  000B9C  0E84               	movlw	132
  2646  000B9E  6EDF               	movwf	indf2,c
  2647                           
  2648                           ;usb_device.c: 1952: }
  2649                           ;usb_device.c: 1953: }
  2650  000BA0  0012               	return	
  2651  000BA2                     l401:
  2652                           
  2653                           ;usb_device.c: 1954: else
  2654                           ;usb_device.c: 1955: {
  2655                           ;usb_device.c: 1956: if(outPipes[0].info.bits.busy == 0)
  2656  000BA2  BE04               	btfsc	_outPipes+3,7,c
  2657  000BA4  0012               	return	
  2658                           
  2659                           ;usb_device.c: 1957: {
  2660                           ;usb_device.c: 1958: if(SetupPkt.DataDir == (0x80>>7))
  2661  000BA6  0105               	movlb	5	; () banked
  2662  000BA8  AF00               	btfss	0,7,b	;volatile
  2663  000BAA  D055               	goto	l2627
  2664                           
  2665                           ; BSR set to: 5
  2666                           ;usb_device.c: 1959: {
  2667                           ;usb_device.c: 1960: if(SetupPkt.wLength < inPipes[0].wCount.Val)
  2668  000BAC  500D               	movf	_inPipes+4,w,c
  2669  000BAE  0105               	movlb	5	; () banked
  2670  000BB0  5D06               	subwf	6,w,b	;volatile
  2671  000BB2  500E               	movf	_inPipes+5,w,c
  2672  000BB4  0105               	movlb	5	; () banked
  2673  000BB6  5907               	subwfb	7,w,b	;volatile
  2674  000BB8  B0D8               	btfsc	status,0,c
  2675  000BBA  D004               	goto	l2603
  2676                           
  2677                           ; BSR set to: 5
  2678                           ;usb_device.c: 1961: {
  2679                           ;usb_device.c: 1962: inPipes[0].wCount.Val = SetupPkt.wLength;
  2680  000BBC  C506 F00D          	movff	1286,_inPipes+4	;volatile
  2681  000BC0  C507 F00E          	movff	1287,_inPipes+5	;volatile
  2682  000BC4                     l2603:
  2683                           
  2684                           ; BSR set to: 5
  2685                           ;usb_device.c: 1963: }
  2686                           ;usb_device.c: 1964: USBCtrlTrfTxService();
  2687  000BC4  ECF0  F006         	call	_USBCtrlTrfTxService	;wreg free
  2688                           
  2689                           ;usb_device.c: 1965: controlTransferState = 1;
  2690  000BC8  0E01               	movlw	1
  2691  000BCA  6E33               	movwf	_controlTransferState,c
  2692                           
  2693                           ;usb_device.c: 1987: pBDTEntryEP0OutNext->CNT = 8;
  2694  000BCC  EE20 F001          	lfsr	2,1
  2695  000BD0  502A               	movf	_pBDTEntryEP0OutNext,w,c
  2696  000BD2  26D9               	addwf	fsr2l,f,c
  2697  000BD4  502B               	movf	_pBDTEntryEP0OutNext+1,w,c
  2698  000BD6  22DA               	addwfc	fsr2h,f,c
  2699  000BD8  0E08               	movlw	8
  2700  000BDA  6EDF               	movwf	indf2,c
  2701                           
  2702                           ;usb_device.c: 1988: pBDTEntryEP0OutNext->ADR = (BYTE*)&SetupPkt;
  2703  000BDC  EE20 F002          	lfsr	2,2
  2704  000BE0  502A               	movf	_pBDTEntryEP0OutNext,w,c
  2705  000BE2  26D9               	addwf	fsr2l,f,c
  2706  000BE4  502B               	movf	_pBDTEntryEP0OutNext+1,w,c
  2707  000BE6  22DA               	addwfc	fsr2h,f,c
  2708  000BE8  0E00               	movlw	0
  2709  000BEA  6EDE               	movwf	postinc2,c
  2710  000BEC  0E05               	movlw	5
  2711  000BEE  6EDD               	movwf	postdec2,c
  2712                           
  2713                           ;usb_device.c: 1989: pBDTEntryEP0OutNext->STAT.Val = 0x80;
  2714  000BF0  C02A  FFD9         	movff	_pBDTEntryEP0OutNext,fsr2l
  2715  000BF4  C02B  FFDA         	movff	_pBDTEntryEP0OutNext+1,fsr2h
  2716  000BF8  0E80               	movlw	128
  2717  000BFA  6EDF               	movwf	indf2,c
  2718                           
  2719                           ;usb_device.c: 1990: BothEP0OutUOWNsSet = FALSE;
  2720  000BFC  0E00               	movlw	0
  2721  000BFE  6E30               	movwf	_BothEP0OutUOWNsSet,c
  2722                           
  2723                           ;usb_device.c: 1993: pBDTEntryEP0OutCurrent->CNT = 8;
  2724  000C00  EE20 F001          	lfsr	2,1
  2725  000C04  5028               	movf	_pBDTEntryEP0OutCurrent,w,c
  2726  000C06  26D9               	addwf	fsr2l,f,c
  2727  000C08  5029               	movf	_pBDTEntryEP0OutCurrent+1,w,c
  2728  000C0A  22DA               	addwfc	fsr2h,f,c
  2729  000C0C  0E08               	movlw	8
  2730  000C0E  6EDF               	movwf	indf2,c
  2731                           
  2732                           ;usb_device.c: 1994: pBDTEntryEP0OutCurrent->ADR = (BYTE*)&SetupPkt;
  2733  000C10  EE20 F002          	lfsr	2,2
  2734  000C14  5028               	movf	_pBDTEntryEP0OutCurrent,w,c
  2735  000C16  26D9               	addwf	fsr2l,f,c
  2736  000C18  5029               	movf	_pBDTEntryEP0OutCurrent+1,w,c
  2737  000C1A  22DA               	addwfc	fsr2h,f,c
  2738  000C1C  0E00               	movlw	0
  2739  000C1E  6EDE               	movwf	postinc2,c
  2740  000C20  0E05               	movlw	5
  2741  000C22  6EDD               	movwf	postdec2,c
  2742                           
  2743                           ;usb_device.c: 1995: pBDTEntryEP0OutCurrent->STAT.Val = 0x80|0x04;
  2744  000C24  C028  FFD9         	movff	_pBDTEntryEP0OutCurrent,fsr2l
  2745  000C28  C029  FFDA         	movff	_pBDTEntryEP0OutCurrent+1,fsr2h
  2746  000C2C  0E84               	movlw	132
  2747  000C2E  6EDF               	movwf	indf2,c
  2748                           
  2749                           ;usb_device.c: 1996: BothEP0OutUOWNsSet = TRUE;
  2750  000C30  0E01               	movlw	1
  2751  000C32  6E30               	movwf	_BothEP0OutUOWNsSet,c
  2752                           
  2753                           ;usb_device.c: 2003: pBDTEntryIn[0]->ADR = (BYTE*)&CtrlTrfData;
  2754  000C34  EE20 F002          	lfsr	2,2
  2755  000C38  500F               	movf	_pBDTEntryIn,w,c
  2756  000C3A  26D9               	addwf	fsr2l,f,c
  2757  000C3C  5010               	movf	_pBDTEntryIn+1,w,c
  2758  000C3E  22DA               	addwfc	fsr2h,f,c
  2759  000C40  0E20               	movlw	32
  2760  000C42  6EDE               	movwf	postinc2,c
  2761  000C44  0E05               	movlw	5
  2762  000C46  6EDD               	movwf	postdec2,c
  2763                           
  2764                           ;usb_device.c: 2004: pBDTEntryIn[0]->STAT.Val = 0x80|0x40|0x08;
  2765  000C48  C00F  FFD9         	movff	_pBDTEntryIn,fsr2l
  2766  000C4C  C010  FFDA         	movff	_pBDTEntryIn+1,fsr2h
  2767  000C50  0EC8               	movlw	200
  2768  000C52  6EDF               	movwf	indf2,c
  2769                           
  2770                           ;usb_device.c: 2005: }
  2771  000C54  0012               	return	
  2772  000C56                     l2627:
  2773                           
  2774                           ;usb_device.c: 2006: else
  2775                           ;usb_device.c: 2007: {
  2776                           ;usb_device.c: 2008: controlTransferState = 2;
  2777  000C56  0E02               	movlw	2
  2778  000C58  6E33               	movwf	_controlTransferState,c
  2779                           
  2780                           ;usb_device.c: 2018: pBDTEntryIn[0]->CNT = 0;
  2781  000C5A  EE20 F001          	lfsr	2,1
  2782  000C5E  500F               	movf	_pBDTEntryIn,w,c
  2783  000C60  26D9               	addwf	fsr2l,f,c
  2784  000C62  5010               	movf	_pBDTEntryIn+1,w,c
  2785  000C64  22DA               	addwfc	fsr2h,f,c
  2786  000C66  0E00               	movlw	0
  2787  000C68  6EDF               	movwf	indf2,c
  2788                           
  2789                           ;usb_device.c: 2019: pBDTEntryIn[0]->STAT.Val = 0x80|0x40|0x08;
  2790  000C6A  C00F  FFD9         	movff	_pBDTEntryIn,fsr2l
  2791  000C6E  C010  FFDA         	movff	_pBDTEntryIn+1,fsr2h
  2792  000C72  0EC8               	movlw	200
  2793  000C74  6EDF               	movwf	indf2,c
  2794                           
  2795                           ;usb_device.c: 2024: pBDTEntryEP0OutNext->CNT = 8;
  2796  000C76  EE20 F001          	lfsr	2,1
  2797  000C7A  502A               	movf	_pBDTEntryEP0OutNext,w,c
  2798  000C7C  26D9               	addwf	fsr2l,f,c
  2799  000C7E  502B               	movf	_pBDTEntryEP0OutNext+1,w,c
  2800  000C80  22DA               	addwfc	fsr2h,f,c
  2801  000C82  0E08               	movlw	8
  2802  000C84  6EDF               	movwf	indf2,c
  2803                           
  2804                           ;usb_device.c: 2025: pBDTEntryEP0OutNext->ADR = (BYTE*)&CtrlTrfData;
  2805  000C86  EE20 F002          	lfsr	2,2
  2806  000C8A  502A               	movf	_pBDTEntryEP0OutNext,w,c
  2807  000C8C  26D9               	addwf	fsr2l,f,c
  2808  000C8E  502B               	movf	_pBDTEntryEP0OutNext+1,w,c
  2809  000C90  22DA               	addwfc	fsr2h,f,c
  2810  000C92  0E20               	movlw	32
  2811  000C94  6EDE               	movwf	postinc2,c
  2812  000C96  0E05               	movlw	5
  2813  000C98  6EDD               	movwf	postdec2,c
  2814                           
  2815                           ;usb_device.c: 2026: pBDTEntryEP0OutNext->STAT.Val = 0x80|0x40|0x08;
  2816  000C9A  C02A  FFD9         	movff	_pBDTEntryEP0OutNext,fsr2l
  2817  000C9E  C02B  FFDA         	movff	_pBDTEntryEP0OutNext+1,fsr2h
  2818  000CA2  0EC8               	movlw	200
  2819  000CA4  6EDF               	movwf	indf2,c
  2820  000CA6  0012               	return	
  2821  000CA8                     __end_of_USBCtrlEPServiceComplete:
  2822                           	opt stack 0
  2823                           tblptru	equ	0xFF8
  2824                           tblptrh	equ	0xFF7
  2825                           tblptrl	equ	0xFF6
  2826                           tablat	equ	0xFF5
  2827                           prodh	equ	0xFF4
  2828                           prodl	equ	0xFF3
  2829                           postinc0	equ	0xFEE
  2830                           wreg	equ	0xFE8
  2831                           indf1	equ	0xFE7
  2832                           postdec1	equ	0xFE5
  2833                           fsr1h	equ	0xFE2
  2834                           fsr1l	equ	0xFE1
  2835                           indf2	equ	0xFDF
  2836                           postinc2	equ	0xFDE
  2837                           postdec2	equ	0xFDD
  2838                           fsr2h	equ	0xFDA
  2839                           fsr2l	equ	0xFD9
  2840                           status	equ	0xFD8
  2841                           
  2842 ;; *************** function _USBCheckStdRequest *****************
  2843 ;; Defined at:
  2844 ;;		line 1559 in file "usb_device.c"
  2845 ;; Parameters:    Size  Location     Type
  2846 ;;		None
  2847 ;; Auto vars:     Size  Location     Type
  2848 ;;		None
  2849 ;; Return value:  Size  Location     Type
  2850 ;;                  1    wreg      void 
  2851 ;; Registers used:
  2852 ;;		wreg, fsr1l, fsr1h, fsr2l, fsr2h, status,2, status,0, tblptrl, tblptrh, tblptru, prodl, prodh, cstack
  2853 ;; Tracked objects:
  2854 ;;		On entry : 0/0
  2855 ;;		On exit  : 0/0
  2856 ;;		Unchanged: 0/0
  2857 ;; Data sizes:     COMRAM   BANK0   BANK1   BANK2   BANK3  BANK4lBANK5hhhBANK5hhl BANK5hl  BANK5l   BANK6   BANK7
  2858 ;;      Params:         0       0       0       0       0       0       0       0       0       0       0       0
  2859 ;;      Locals:         0       0       0       0       0       0       0       0       0       0       0       0
  2860 ;;      Temps:          0       0       0       0       0       0       0       0       0       0       0       0
  2861 ;;      Totals:         0       0       0       0       0       0       0       0       0       0       0       0
  2862 ;;Total ram usage:        0 bytes
  2863 ;; Hardware stack levels used:    1
  2864 ;; Hardware stack levels required when called:    5
  2865 ;; This function calls:
  2866 ;;		_USBStdFeatureReqHandler
  2867 ;;		_USBStdGetDscHandler
  2868 ;;		_USBStdGetStatusHandler
  2869 ;;		_USBStdSetCfgHandler
  2870 ;;		_USER_USB_CALLBACK_EVENT_HANDLER
  2871 ;; This function is called by:
  2872 ;;		_USBCtrlTrfSetupHandler
  2873 ;; This function uses a non-reentrant model
  2874 ;;
  2875                           
  2876                           	psect	text11
  2877  0012C4                     __ptext11:
  2878                           	opt stack 0
  2879  0012C4                     _USBCheckStdRequest:
  2880                           	opt stack 22
  2881                           
  2882                           ;usb_device.c: 1561: if(SetupPkt.RequestType != (0x00>>5)) return;
  2883                           
  2884                           ;incstack = 0
  2885  0012C4  0105               	movlb	5	; () banked
  2886  0012C6  3900               	swapf	0,w,b	;volatile
  2887  0012C8  32E8               	rrcf	wreg,f,c
  2888  0012CA  0B03               	andlw	3
  2889  0012CC  0900               	iorlw	0
  2890  0012CE  A4D8               	btfss	status,2,c
  2891  0012D0  0012               	return	
  2892  0012D2  D043               	goto	l2573
  2893  0012D4                     l347:
  2894                           
  2895                           ; BSR set to: 5
  2896                           ;usb_device.c: 1566: inPipes[0].info.bits.busy = 1;
  2897  0012D4  8E0C               	bsf	_inPipes+3,7,c
  2898                           
  2899                           ; BSR set to: 5
  2900                           ;usb_device.c: 1567: USBDeviceState = ADR_PENDING_STATE;
  2901  0012D6  0E08               	movlw	8
  2902  0012D8  6E32               	movwf	_USBDeviceState,c
  2903                           
  2904                           ;usb_device.c: 1569: break;
  2905  0012DA  0012               	return	
  2906  0012DC                     l2543:
  2907                           
  2908                           ; BSR set to: 5
  2909                           ;usb_device.c: 1571: USBStdGetDscHandler();
  2910  0012DC  EC76  F008         	call	_USBStdGetDscHandler	;wreg free
  2911                           
  2912                           ;usb_device.c: 1572: break;
  2913  0012E0  0012               	return	
  2914  0012E2                     l2545:
  2915                           
  2916                           ;usb_device.c: 1574: USBStdSetCfgHandler();
  2917  0012E2  EC5D  F00C         	call	_USBStdSetCfgHandler	;wreg free
  2918                           
  2919                           ;usb_device.c: 1575: break;
  2920  0012E6  0012               	return	
  2921  0012E8                     l2547:
  2922                           
  2923                           ;usb_device.c: 1577: inPipes[0].pSrc.bRam = (BYTE*)&USBActiveConfiguration;
  2924  0012E8  0E35               	movlw	low _USBActiveConfiguration
  2925  0012EA  6E09               	movwf	_inPipes,c
  2926  0012EC  0E00               	movlw	high _USBActiveConfiguration
  2927  0012EE  6E0A               	movwf	_inPipes+1,c
  2928                           
  2929                           ;usb_device.c: 1578: inPipes[0].info.bits.ctrl_trf_mem = 0x01;
  2930  0012F0  800C               	bsf	_inPipes+3,0,c
  2931                           
  2932                           ;usb_device.c: 1579: inPipes[0].wCount.v[0] = 1;
  2933  0012F2  0E01               	movlw	1
  2934  0012F4  6E0D               	movwf	_inPipes+4,c
  2935                           
  2936                           ;usb_device.c: 1580: inPipes[0].info.bits.busy = 1;
  2937  0012F6  8E0C               	bsf	_inPipes+3,7,c
  2938                           
  2939                           ;usb_device.c: 1581: break;
  2940  0012F8  0012               	return	
  2941  0012FA                     l2555:
  2942                           
  2943                           ;usb_device.c: 1583: USBStdGetStatusHandler();
  2944  0012FA  EC32  F00A         	call	_USBStdGetStatusHandler	;wreg free
  2945                           
  2946                           ;usb_device.c: 1584: break;
  2947  0012FE  0012               	return	
  2948  001300                     l2557:
  2949                           
  2950                           ;usb_device.c: 1586: case 3:
  2951                           ;usb_device.c: 1587: USBStdFeatureReqHandler();
  2952  001300  EC78  F007         	call	_USBStdFeatureReqHandler	;wreg free
  2953                           
  2954                           ;usb_device.c: 1588: break;
  2955  001304  0012               	return	
  2956  001306                     l2559:
  2957                           
  2958                           ;usb_device.c: 1590: inPipes[0].pSrc.bRam = (BYTE*)&USBAlternateInterface[SetupPkt.bIntf
      +                          ID];
  2959  001306  0105               	movlb	5	; () banked
  2960  001308  5104               	movf	4,w,b	;volatile
  2961  00130A  0D01               	mullw	1
  2962  00130C  0E36               	movlw	low _USBAlternateInterface
  2963  00130E  24F3               	addwf	prodl,w,c
  2964  001310  6E09               	movwf	_inPipes,c
  2965  001312  0E00               	movlw	high _USBAlternateInterface
  2966  001314  20F4               	addwfc	prodh,w,c
  2967  001316  6E0A               	movwf	_inPipes+1,c
  2968                           
  2969                           ; BSR set to: 5
  2970                           ;usb_device.c: 1591: inPipes[0].info.bits.ctrl_trf_mem = 0x01;
  2971  001318  800C               	bsf	_inPipes+3,0,c
  2972                           
  2973                           ; BSR set to: 5
  2974                           ;usb_device.c: 1592: inPipes[0].wCount.v[0] = 1;
  2975  00131A  0E01               	movlw	1
  2976  00131C  6E0D               	movwf	_inPipes+4,c
  2977                           
  2978                           ; BSR set to: 5
  2979                           ;usb_device.c: 1593: inPipes[0].info.bits.busy = 1;
  2980  00131E  8E0C               	bsf	_inPipes+3,7,c
  2981                           
  2982                           ;usb_device.c: 1594: break;
  2983  001320  0012               	return	
  2984  001322                     l356:
  2985                           
  2986                           ; BSR set to: 5
  2987                           ;usb_device.c: 1596: inPipes[0].info.bits.busy = 1;
  2988  001322  8E0C               	bsf	_inPipes+3,7,c
  2989                           
  2990                           ; BSR set to: 5
  2991                           ;usb_device.c: 1597: USBAlternateInterface[SetupPkt.bIntfID] = SetupPkt.bAltID;
  2992  001324  0105               	movlb	5	; () banked
  2993  001326  5104               	movf	4,w,b	;volatile
  2994  001328  0D01               	mullw	1
  2995  00132A  0E36               	movlw	low _USBAlternateInterface
  2996  00132C  24F3               	addwf	prodl,w,c
  2997  00132E  6ED9               	movwf	fsr2l,c
  2998  001330  0E00               	movlw	high _USBAlternateInterface
  2999  001332  20F4               	addwfc	prodh,w,c
  3000  001334  6EDA               	movwf	fsr2h,c
  3001  001336  C502 FFDF          	movff	1282,indf2	;volatile
  3002                           
  3003                           ;usb_device.c: 1598: break;
  3004  00133A  0012               	return	
  3005  00133C                     l2569:
  3006                           
  3007                           ; BSR set to: 5
  3008                           ;usb_device.c: 1600: USER_USB_CALLBACK_EVENT_HANDLER(EVENT_SET_DESCRIPTOR,0,0);
  3009  00133C  0E00               	movlw	0
  3010  00133E  6E46               	movwf	USER_USB_CALLBACK_EVENT_HANDLER@event+1,c
  3011  001340  0E02               	movlw	2
  3012  001342  6E45               	movwf	USER_USB_CALLBACK_EVENT_HANDLER@event,c
  3013  001344  0E00               	movlw	0
  3014  001346  6E47               	movwf	USER_USB_CALLBACK_EVENT_HANDLER@pdata,c
  3015  001348  0E00               	movlw	0
  3016  00134A  6E48               	movwf	USER_USB_CALLBACK_EVENT_HANDLER@pdata+1,c
  3017  00134C  0E00               	movlw	0
  3018  00134E  6E4A               	movwf	USER_USB_CALLBACK_EVENT_HANDLER@size+1,c
  3019  001350  0E00               	movlw	0
  3020  001352  6E49               	movwf	USER_USB_CALLBACK_EVENT_HANDLER@size,c
  3021  001354  ECE5  F00B         	call	_USER_USB_CALLBACK_EVENT_HANDLER	;wreg free
  3022                           
  3023                           ;usb_device.c: 1605: }
  3024                           
  3025                           ;usb_device.c: 1604: break;
  3026                           
  3027                           ;usb_device.c: 1603: default:
  3028                           
  3029                           ;usb_device.c: 1602: case 12:
  3030                           
  3031                           ;usb_device.c: 1601: break;
  3032  001358  0012               	return	
  3033  00135A                     l2573:
  3034  00135A  0105               	movlb	5	; () banked
  3035  00135C  5101               	movf	1,w,b	;volatile
  3036                           
  3037                           ; Switch size 1, requested type "space"
  3038                           ; Number of cases is 11, Range of values is 0 to 12
  3039                           ; switch strategies available:
  3040                           ; Name         Instructions Cycles
  3041                           ; simple_byte           34    18 (average)
  3042                           ;	Chosen strategy is simple_byte
  3043  00135E  0A00               	xorlw	0	; case 0
  3044  001360  B4D8               	btfsc	status,2,c
  3045  001362  D7CB               	goto	l2555
  3046  001364  0A01               	xorlw	1	; case 1
  3047  001366  B4D8               	btfsc	status,2,c
  3048  001368  D7CB               	goto	l2557
  3049  00136A  0A02               	xorlw	2	; case 3
  3050  00136C  B4D8               	btfsc	status,2,c
  3051  00136E  D7C8               	goto	l2557
  3052  001370  0A06               	xorlw	6	; case 5
  3053  001372  B4D8               	btfsc	status,2,c
  3054  001374  D7AF               	goto	l347
  3055  001376  0A03               	xorlw	3	; case 6
  3056  001378  B4D8               	btfsc	status,2,c
  3057  00137A  D7B0               	goto	l2543
  3058  00137C  0A01               	xorlw	1	; case 7
  3059  00137E  B4D8               	btfsc	status,2,c
  3060  001380  D7DD               	goto	l2569
  3061  001382  0A0F               	xorlw	15	; case 8
  3062  001384  B4D8               	btfsc	status,2,c
  3063  001386  D7B0               	goto	l2547
  3064  001388  0A01               	xorlw	1	; case 9
  3065  00138A  B4D8               	btfsc	status,2,c
  3066  00138C  D7AA               	goto	l2545
  3067  00138E  0A03               	xorlw	3	; case 10
  3068  001390  B4D8               	btfsc	status,2,c
  3069  001392  D7B9               	goto	l2559
  3070  001394  0A01               	xorlw	1	; case 11
  3071  001396  B4D8               	btfsc	status,2,c
  3072  001398  D7C4               	goto	l356
  3073  00139A  0A07               	xorlw	7	; case 12
  3074  00139C  0012               	return	
  3075  00139E                     __end_of_USBCheckStdRequest:
  3076                           	opt stack 0
  3077                           tblptru	equ	0xFF8
  3078                           tblptrh	equ	0xFF7
  3079                           tblptrl	equ	0xFF6
  3080                           tablat	equ	0xFF5
  3081                           prodh	equ	0xFF4
  3082                           prodl	equ	0xFF3
  3083                           postinc0	equ	0xFEE
  3084                           wreg	equ	0xFE8
  3085                           indf1	equ	0xFE7
  3086                           postdec1	equ	0xFE5
  3087                           fsr1h	equ	0xFE2
  3088                           fsr1l	equ	0xFE1
  3089                           indf2	equ	0xFDF
  3090                           postinc2	equ	0xFDE
  3091                           postdec2	equ	0xFDD
  3092                           fsr2h	equ	0xFDA
  3093                           fsr2l	equ	0xFD9
  3094                           status	equ	0xFD8
  3095                           
  3096 ;; *************** function _USBStdSetCfgHandler *****************
  3097 ;; Defined at:
  3098 ;;		line 2230 in file "usb_device.c"
  3099 ;; Parameters:    Size  Location     Type
  3100 ;;		None
  3101 ;; Auto vars:     Size  Location     Type
  3102 ;;		None
  3103 ;; Return value:  Size  Location     Type
  3104 ;;                  1    wreg      void 
  3105 ;; Registers used:
  3106 ;;		wreg, fsr2l, fsr2h, status,2, status,0, prodl, prodh, cstack
  3107 ;; Tracked objects:
  3108 ;;		On entry : 0/0
  3109 ;;		On exit  : 0/0
  3110 ;;		Unchanged: 0/0
  3111 ;; Data sizes:     COMRAM   BANK0   BANK1   BANK2   BANK3  BANK4lBANK5hhhBANK5hhl BANK5hl  BANK5l   BANK6   BANK7
  3112 ;;      Params:         0       0       0       0       0       0       0       0       0       0       0       0
  3113 ;;      Locals:         0       0       0       0       0       0       0       0       0       0       0       0
  3114 ;;      Temps:          0       0       0       0       0       0       0       0       0       0       0       0
  3115 ;;      Totals:         0       0       0       0       0       0       0       0       0       0       0       0
  3116 ;;Total ram usage:        0 bytes
  3117 ;; Hardware stack levels used:    1
  3118 ;; Hardware stack levels required when called:    4
  3119 ;; This function calls:
  3120 ;;		_USER_USB_CALLBACK_EVENT_HANDLER
  3121 ;;		_memset
  3122 ;; This function is called by:
  3123 ;;		_USBCheckStdRequest
  3124 ;; This function uses a non-reentrant model
  3125 ;;
  3126                           
  3127                           	psect	text12
  3128  0018BA                     __ptext12:
  3129                           	opt stack 0
  3130  0018BA                     _USBStdSetCfgHandler:
  3131                           	opt stack 22
  3132                           
  3133                           ;usb_device.c: 2233: inPipes[0].info.bits.busy = 1;
  3134                           
  3135                           ;incstack = 0
  3136  0018BA  8E0C               	bsf	_inPipes+3,7,c
  3137                           
  3138                           ;usb_device.c: 2236: memset((void*)&UEP1,0x00,(1-1));
  3139  0018BC  0E71               	movlw	113
  3140  0018BE  6E3A               	movwf	memset@p1,c
  3141  0018C0  0E0F               	movlw	15
  3142  0018C2  6E3B               	movwf	memset@p1+1,c
  3143  0018C4  0E00               	movlw	0
  3144  0018C6  6E3D               	movwf	memset@c+1,c
  3145  0018C8  0E00               	movlw	0
  3146  0018CA  6E3C               	movwf	memset@c,c
  3147  0018CC  0E00               	movlw	0
  3148  0018CE  6E3F               	movwf	memset@n+1,c
  3149  0018D0  0E00               	movlw	0
  3150  0018D2  6E3E               	movwf	memset@n,c
  3151  0018D4  EC5E  F00D         	call	_memset	;wreg free
  3152                           
  3153                           ;usb_device.c: 2239: memset((void*)&USBAlternateInterface,0x00,1);
  3154  0018D8  0E36               	movlw	low _USBAlternateInterface
  3155  0018DA  6E3A               	movwf	memset@p1,c
  3156  0018DC  0E00               	movlw	high _USBAlternateInterface
  3157  0018DE  6E3B               	movwf	memset@p1+1,c
  3158  0018E0  0E00               	movlw	0
  3159  0018E2  6E3D               	movwf	memset@c+1,c
  3160  0018E4  0E00               	movlw	0
  3161  0018E6  6E3C               	movwf	memset@c,c
  3162  0018E8  0E00               	movlw	0
  3163  0018EA  6E3F               	movwf	memset@n+1,c
  3164  0018EC  0E01               	movlw	1
  3165  0018EE  6E3E               	movwf	memset@n,c
  3166  0018F0  EC5E  F00D         	call	_memset	;wreg free
  3167                           
  3168                           ;usb_device.c: 2242: USBActiveConfiguration = SetupPkt.bConfigurationValue;
  3169  0018F4  C502 F035          	movff	1282,_USBActiveConfiguration	;volatile
  3170                           
  3171                           ;usb_device.c: 2245: if(USBActiveConfiguration == 0)
  3172  0018F8  5035               	movf	_USBActiveConfiguration,w,c
  3173  0018FA  A4D8               	btfss	status,2,c
  3174  0018FC  D003               	goto	l2463
  3175                           
  3176                           ;usb_device.c: 2246: {
  3177                           ;usb_device.c: 2248: USBDeviceState = ADDRESS_STATE;
  3178  0018FE  0E10               	movlw	16
  3179  001900  6E32               	movwf	_USBDeviceState,c
  3180                           
  3181                           ;usb_device.c: 2249: }
  3182  001902  0012               	return	
  3183  001904                     l2463:
  3184                           
  3185                           ;usb_device.c: 2250: else
  3186                           ;usb_device.c: 2251: {
  3187                           ;usb_device.c: 2253: USBDeviceState = CONFIGURED_STATE;
  3188  001904  0E20               	movlw	32
  3189  001906  6E32               	movwf	_USBDeviceState,c
  3190                           
  3191                           ;usb_device.c: 2255: USER_USB_CALLBACK_EVENT_HANDLER(EVENT_CONFIGURED,(void*)&USBActiveC
      +                          onfiguration,1);
  3192  001908  0E00               	movlw	0
  3193  00190A  6E46               	movwf	USER_USB_CALLBACK_EVENT_HANDLER@event+1,c
  3194  00190C  0E01               	movlw	1
  3195  00190E  6E45               	movwf	USER_USB_CALLBACK_EVENT_HANDLER@event,c
  3196  001910  0E35               	movlw	low _USBActiveConfiguration
  3197  001912  6E47               	movwf	USER_USB_CALLBACK_EVENT_HANDLER@pdata,c
  3198  001914  0E00               	movlw	high _USBActiveConfiguration
  3199  001916  6E48               	movwf	USER_USB_CALLBACK_EVENT_HANDLER@pdata+1,c
  3200  001918  0E00               	movlw	0
  3201  00191A  6E4A               	movwf	USER_USB_CALLBACK_EVENT_HANDLER@size+1,c
  3202  00191C  0E01               	movlw	1
  3203  00191E  6E49               	movwf	USER_USB_CALLBACK_EVENT_HANDLER@size,c
  3204  001920  ECE5  F00B         	call	_USER_USB_CALLBACK_EVENT_HANDLER	;wreg free
  3205  001924  0012               	return	
  3206  001926                     __end_of_USBStdSetCfgHandler:
  3207                           	opt stack 0
  3208                           tblptru	equ	0xFF8
  3209                           tblptrh	equ	0xFF7
  3210                           tblptrl	equ	0xFF6
  3211                           tablat	equ	0xFF5
  3212                           prodh	equ	0xFF4
  3213                           prodl	equ	0xFF3
  3214                           postinc0	equ	0xFEE
  3215                           wreg	equ	0xFE8
  3216                           indf1	equ	0xFE7
  3217                           postdec1	equ	0xFE5
  3218                           fsr1h	equ	0xFE2
  3219                           fsr1l	equ	0xFE1
  3220                           indf2	equ	0xFDF
  3221                           postinc2	equ	0xFDE
  3222                           postdec2	equ	0xFDD
  3223                           fsr2h	equ	0xFDA
  3224                           fsr2l	equ	0xFD9
  3225                           status	equ	0xFD8
  3226                           
  3227 ;; *************** function _memset *****************
  3228 ;; Defined at:
  3229 ;;		line 8 in file "C:\Program Files (x86)\Microchip\xc8\v1.37\sources\common\memset.c"
  3230 ;; Parameters:    Size  Location     Type
  3231 ;;  p1              2    0[COMRAM] PTR void 
  3232 ;;		 -> USBAlternateInterface(1), UEP1(1), 
  3233 ;;  c               2    2[COMRAM] int 
  3234 ;;  n               2    4[COMRAM] unsigned int 
  3235 ;; Auto vars:     Size  Location     Type
  3236 ;;  p               2    6[COMRAM] PTR unsigned char 
  3237 ;;		 -> USBAlternateInterface(1), UEP1(1), 
  3238 ;; Return value:  Size  Location     Type
  3239 ;;                  2    0[COMRAM] PTR void 
  3240 ;; Registers used:
  3241 ;;		wreg, fsr2l, fsr2h, status,2, status,0
  3242 ;; Tracked objects:
  3243 ;;		On entry : 0/0
  3244 ;;		On exit  : 0/0
  3245 ;;		Unchanged: 0/0
  3246 ;; Data sizes:     COMRAM   BANK0   BANK1   BANK2   BANK3  BANK4lBANK5hhhBANK5hhl BANK5hl  BANK5l   BANK6   BANK7
  3247 ;;      Params:         6       0       0       0       0       0       0       0       0       0       0       0
  3248 ;;      Locals:         2       0       0       0       0       0       0       0       0       0       0       0
  3249 ;;      Temps:          0       0       0       0       0       0       0       0       0       0       0       0
  3250 ;;      Totals:         8       0       0       0       0       0       0       0       0       0       0       0
  3251 ;;Total ram usage:        8 bytes
  3252 ;; Hardware stack levels used:    1
  3253 ;; This function calls:
  3254 ;;		Nothing
  3255 ;; This function is called by:
  3256 ;;		_USBDeviceInit
  3257 ;;		_USBStdSetCfgHandler
  3258 ;; This function uses a non-reentrant model
  3259 ;;
  3260                           
  3261                           	psect	text13
  3262  001ABC                     __ptext13:
  3263                           	opt stack 0
  3264  001ABC                     _memset:
  3265                           	opt stack 28
  3266                           
  3267                           ;incstack = 0
  3268  001ABC  C03A  F040         	movff	memset@p1,memset@p
  3269  001AC0  C03B  F041         	movff	memset@p1+1,memset@p+1
  3270  001AC4  D008               	goto	l2347
  3271  001AC6                     l2343:
  3272  001AC6  C040  FFD9         	movff	memset@p,fsr2l
  3273  001ACA  C041  FFDA         	movff	memset@p+1,fsr2h
  3274  001ACE  C03C  FFDF         	movff	memset@c,indf2
  3275  001AD2  4A40               	infsnz	memset@p,f,c
  3276  001AD4  2A41               	incf	memset@p+1,f,c
  3277  001AD6                     l2347:
  3278  001AD6  063E               	decf	memset@n,f,c
  3279  001AD8  A0D8               	btfss	status,0,c
  3280  001ADA  063F               	decf	memset@n+1,f,c
  3281  001ADC  283E               	incf	memset@n,w,c
  3282  001ADE  E1F3               	bnz	l2343
  3283  001AE0  283F               	incf	memset@n+1,w,c
  3284  001AE2  B4D8               	btfsc	status,2,c
  3285  001AE4  0012               	return	
  3286  001AE6  D7EF               	goto	l2343
  3287  001AE8                     __end_of_memset:
  3288                           	opt stack 0
  3289                           tblptru	equ	0xFF8
  3290                           tblptrh	equ	0xFF7
  3291                           tblptrl	equ	0xFF6
  3292                           tablat	equ	0xFF5
  3293                           prodh	equ	0xFF4
  3294                           prodl	equ	0xFF3
  3295                           postinc0	equ	0xFEE
  3296                           wreg	equ	0xFE8
  3297                           indf1	equ	0xFE7
  3298                           postdec1	equ	0xFE5
  3299                           fsr1h	equ	0xFE2
  3300                           fsr1l	equ	0xFE1
  3301                           indf2	equ	0xFDF
  3302                           postinc2	equ	0xFDE
  3303                           postdec2	equ	0xFDD
  3304                           fsr2h	equ	0xFDA
  3305                           fsr2l	equ	0xFD9
  3306                           status	equ	0xFD8
  3307                           
  3308 ;; *************** function _USER_USB_CALLBACK_EVENT_HANDLER *****************
  3309 ;; Defined at:
  3310 ;;		line 401 in file "usbcallback.c"
  3311 ;; Parameters:    Size  Location     Type
  3312 ;;  event           2   11[COMRAM] enum E4401
  3313 ;;  pdata           2   13[COMRAM] PTR void 
  3314 ;;		 -> USTATcopy(1), USBActiveConfiguration(1), NULL(0), 
  3315 ;;  size            2   15[COMRAM] unsigned short 
  3316 ;; Auto vars:     Size  Location     Type
  3317 ;;		None
  3318 ;; Return value:  Size  Location     Type
  3319 ;;                  1    wreg      enum E3
  3320 ;; Registers used:
  3321 ;;		wreg, fsr2l, fsr2h, status,2, status,0, prodl, prodh, cstack
  3322 ;; Tracked objects:
  3323 ;;		On entry : 0/0
  3324 ;;		On exit  : 0/0
  3325 ;;		Unchanged: 0/0
  3326 ;; Data sizes:     COMRAM   BANK0   BANK1   BANK2   BANK3  BANK4lBANK5hhhBANK5hhl BANK5hl  BANK5l   BANK6   BANK7
  3327 ;;      Params:         6       0       0       0       0       0       0       0       0       0       0       0
  3328 ;;      Locals:         0       0       0       0       0       0       0       0       0       0       0       0
  3329 ;;      Temps:          2       0       0       0       0       0       0       0       0       0       0       0
  3330 ;;      Totals:         8       0       0       0       0       0       0       0       0       0       0       0
  3331 ;;Total ram usage:        8 bytes
  3332 ;; Hardware stack levels used:    1
  3333 ;; Hardware stack levels required when called:    3
  3334 ;; This function calls:
  3335 ;;		_USBCBCheckOtherReq
  3336 ;;		_USBCBErrorHandler
  3337 ;;		_USBCBInitEP
  3338 ;;		_USBCBStdSetDscHandler
  3339 ;;		_USBCBSuspend
  3340 ;;		_USBCBWakeFromSuspend
  3341 ;;		_USBCB_SOF_Handler
  3342 ;; This function is called by:
  3343 ;;		_USBDeviceTasks
  3344 ;;		_USBSuspend
  3345 ;;		_USBWakeFromSuspend
  3346 ;;		_USBCtrlTrfSetupHandler
  3347 ;;		_USBCheckStdRequest
  3348 ;;		_USBStdSetCfgHandler
  3349 ;; This function uses a non-reentrant model
  3350 ;;
  3351                           
  3352                           	psect	text14
  3353  0017CA                     __ptext14:
  3354                           	opt stack 0
  3355  0017CA                     _USER_USB_CALLBACK_EVENT_HANDLER:
  3356                           	opt stack 26
  3357                           
  3358                           ;usbcallback.c: 403: switch(event)
  3359                           
  3360                           ;incstack = 0
  3361  0017CA  D017               	goto	l2367
  3362  0017CC                     l2351:
  3363                           
  3364                           ;usbcallback.c: 406: USBCBInitEP();
  3365  0017CC  EC89  F00D         	call	_USBCBInitEP	;wreg free
  3366                           
  3367                           ;usbcallback.c: 407: break;
  3368  0017D0  0012               	return	
  3369  0017D2                     l2353:
  3370                           
  3371                           ;usbcallback.c: 409: USBCBStdSetDscHandler();
  3372  0017D2  ECBB  F00D         	call	_USBCBStdSetDscHandler	;wreg free
  3373                           
  3374                           ;usbcallback.c: 410: break;
  3375  0017D6  0012               	return	
  3376  0017D8                     l2355:
  3377                           
  3378                           ;usbcallback.c: 412: USBCBCheckOtherReq();
  3379  0017D8  ECB5  F00D         	call	_USBCBCheckOtherReq	;wreg free
  3380                           
  3381                           ;usbcallback.c: 413: break;
  3382  0017DC  0012               	return	
  3383  0017DE                     l2357:
  3384                           
  3385                           ;usbcallback.c: 415: USBCB_SOF_Handler();
  3386  0017DE  ECB8  F00D         	call	_USBCB_SOF_Handler	;wreg free
  3387                           
  3388                           ;usbcallback.c: 416: break;
  3389  0017E2  0012               	return	
  3390  0017E4                     l2359:
  3391                           
  3392                           ;usbcallback.c: 418: USBCBSuspend();
  3393  0017E4  ECBA  F00D         	call	_USBCBSuspend	;wreg free
  3394                           
  3395                           ;usbcallback.c: 419: break;
  3396  0017E8  0012               	return	
  3397  0017EA                     l2361:
  3398                           
  3399                           ;usbcallback.c: 421: USBCBWakeFromSuspend();
  3400  0017EA  ECB9  F00D         	call	_USBCBWakeFromSuspend	;wreg free
  3401                           
  3402                           ;usbcallback.c: 422: break;
  3403  0017EE  0012               	return	
  3404  0017F0                     l2363:
  3405                           
  3406                           ;usbcallback.c: 424: USBCBErrorHandler();
  3407  0017F0  ECBC  F00D         	call	_USBCBErrorHandler	;wreg free
  3408                           
  3409                           ;usbcallback.c: 425: break;
  3410  0017F4  0012               	return	
  3411  0017F6                     l563:
  3412  0017F6  F000               	nop		;# 
  3413                           
  3414                           ;usbcallback.c: 431: }
  3415                           
  3416                           ;usbcallback.c: 430: break;
  3417                           
  3418                           ;usbcallback.c: 429: default:
  3419                           
  3420                           ;usbcallback.c: 428: break;
  3421  0017F8  0012               	return	
  3422  0017FA                     l2367:
  3423  0017FA  C045  F04B         	movff	USER_USB_CALLBACK_EVENT_HANDLER@event,??_USER_USB_CALLBACK_EVENT_HANDLER
  3424  0017FE  C046  F04C         	movff	USER_USB_CALLBACK_EVENT_HANDLER@event+1,??_USER_USB_CALLBACK_EVENT_HANDLER+1
  3425                           
  3426                           ; Switch on 2 bytes has been partitioned into a top level switch of size 1, and 2 sub-sw
      +                          itches
  3427                           ; Switch size 1, requested type "space"
  3428                           ; Number of cases is 2, Range of values is 0 to 127
  3429                           ; switch strategies available:
  3430                           ; Name         Instructions Cycles
  3431                           ; simple_byte            7     4 (average)
  3432                           ;	Chosen strategy is simple_byte
  3433  001802  504C               	movf	??_USER_USB_CALLBACK_EVENT_HANDLER+1,w,c
  3434  001804  0A00               	xorlw	0	; case 0
  3435  001806  B4D8               	btfsc	status,2,c
  3436  001808  D004               	goto	l3209
  3437  00180A  0A7F               	xorlw	127	; case 127
  3438  00180C  A4D8               	btfss	status,2,c
  3439  00180E  0012               	return	
  3440  001810  D017               	goto	l3211
  3441  001812                     l3209:
  3442                           
  3443                           ; Switch size 1, requested type "space"
  3444                           ; Number of cases is 7, Range of values is 1 to 117
  3445                           ; switch strategies available:
  3446                           ; Name         Instructions Cycles
  3447                           ; simple_byte           22    12 (average)
  3448                           ;	Chosen strategy is simple_byte
  3449  001812  504B               	movf	??_USER_USB_CALLBACK_EVENT_HANDLER,w,c
  3450  001814  0A01               	xorlw	1	; case 1
  3451  001816  B4D8               	btfsc	status,2,c
  3452  001818  D7D9               	goto	l2351
  3453  00181A  0A03               	xorlw	3	; case 2
  3454  00181C  B4D8               	btfsc	status,2,c
  3455  00181E  D7D9               	goto	l2353
  3456  001820  0A01               	xorlw	1	; case 3
  3457  001822  B4D8               	btfsc	status,2,c
  3458  001824  D7D9               	goto	l2355
  3459  001826  0A71               	xorlw	113	; case 114
  3460  001828  B4D8               	btfsc	status,2,c
  3461  00182A  D7E5               	goto	l563
  3462  00182C  0A01               	xorlw	1	; case 115
  3463  00182E  B4D8               	btfsc	status,2,c
  3464  001830  D7D6               	goto	l2357
  3465  001832  0A07               	xorlw	7	; case 116
  3466  001834  B4D8               	btfsc	status,2,c
  3467  001836  D7D9               	goto	l2361
  3468  001838  0A01               	xorlw	1	; case 117
  3469  00183A  A4D8               	btfss	status,2,c
  3470  00183C  0012               	return	
  3471  00183E  D7D2               	goto	l2359
  3472  001840                     l3211:
  3473                           
  3474                           ; Switch size 1, requested type "space"
  3475                           ; Number of cases is 1, Range of values is 255 to 255
  3476                           ; switch strategies available:
  3477                           ; Name         Instructions Cycles
  3478                           ; simple_byte            4     3 (average)
  3479                           ;	Chosen strategy is simple_byte
  3480  001840  504B               	movf	??_USER_USB_CALLBACK_EVENT_HANDLER,w,c
  3481  001842  0AFF               	xorlw	255	; case 255
  3482  001844  A4D8               	btfss	status,2,c
  3483  001846  0012               	return	
  3484  001848  D7D3               	goto	l2363
  3485  00184A                     __end_of_USER_USB_CALLBACK_EVENT_HANDLER:
  3486                           	opt stack 0
  3487                           tblptru	equ	0xFF8
  3488                           tblptrh	equ	0xFF7
  3489                           tblptrl	equ	0xFF6
  3490                           tablat	equ	0xFF5
  3491                           prodh	equ	0xFF4
  3492                           prodl	equ	0xFF3
  3493                           postinc0	equ	0xFEE
  3494                           wreg	equ	0xFE8
  3495                           indf1	equ	0xFE7
  3496                           postdec1	equ	0xFE5
  3497                           fsr1h	equ	0xFE2
  3498                           fsr1l	equ	0xFE1
  3499                           indf2	equ	0xFDF
  3500                           postinc2	equ	0xFDE
  3501                           postdec2	equ	0xFDD
  3502                           fsr2h	equ	0xFDA
  3503                           fsr2l	equ	0xFD9
  3504                           status	equ	0xFD8
  3505                           
  3506 ;; *************** function _USBCB_SOF_Handler *****************
  3507 ;; Defined at:
  3508 ;;		line 163 in file "usbcallback.c"
  3509 ;; Parameters:    Size  Location     Type
  3510 ;;		None
  3511 ;; Auto vars:     Size  Location     Type
  3512 ;;		None
  3513 ;; Return value:  Size  Location     Type
  3514 ;;                  1    wreg      void 
  3515 ;; Registers used:
  3516 ;;		None
  3517 ;; Tracked objects:
  3518 ;;		On entry : 0/0
  3519 ;;		On exit  : 0/0
  3520 ;;		Unchanged: 0/0
  3521 ;; Data sizes:     COMRAM   BANK0   BANK1   BANK2   BANK3  BANK4lBANK5hhhBANK5hhl BANK5hl  BANK5l   BANK6   BANK7
  3522 ;;      Params:         0       0       0       0       0       0       0       0       0       0       0       0
  3523 ;;      Locals:         0       0       0       0       0       0       0       0       0       0       0       0
  3524 ;;      Temps:          0       0       0       0       0       0       0       0       0       0       0       0
  3525 ;;      Totals:         0       0       0       0       0       0       0       0       0       0       0       0
  3526 ;;Total ram usage:        0 bytes
  3527 ;; Hardware stack levels used:    1
  3528 ;; This function calls:
  3529 ;;		Nothing
  3530 ;; This function is called by:
  3531 ;;		_USER_USB_CALLBACK_EVENT_HANDLER
  3532 ;; This function uses a non-reentrant model
  3533 ;;
  3534                           
  3535                           	psect	text15
  3536  001B70                     __ptext15:
  3537                           	opt stack 0
  3538  001B70                     _USBCB_SOF_Handler:
  3539                           	opt stack 28
  3540                           
  3541                           ;incstack = 0
  3542  001B70  0012               	return		;funcret
  3543  001B72                     __end_of_USBCB_SOF_Handler:
  3544                           	opt stack 0
  3545                           tblptru	equ	0xFF8
  3546                           tblptrh	equ	0xFF7
  3547                           tblptrl	equ	0xFF6
  3548                           tablat	equ	0xFF5
  3549                           prodh	equ	0xFF4
  3550                           prodl	equ	0xFF3
  3551                           postinc0	equ	0xFEE
  3552                           wreg	equ	0xFE8
  3553                           indf1	equ	0xFE7
  3554                           postdec1	equ	0xFE5
  3555                           fsr1h	equ	0xFE2
  3556                           fsr1l	equ	0xFE1
  3557                           indf2	equ	0xFDF
  3558                           postinc2	equ	0xFDE
  3559                           postdec2	equ	0xFDD
  3560                           fsr2h	equ	0xFDA
  3561                           fsr2l	equ	0xFD9
  3562                           status	equ	0xFD8
  3563                           
  3564 ;; *************** function _USBCBWakeFromSuspend *****************
  3565 ;; Defined at:
  3566 ;;		line 133 in file "usbcallback.c"
  3567 ;; Parameters:    Size  Location     Type
  3568 ;;		None
  3569 ;; Auto vars:     Size  Location     Type
  3570 ;;		None
  3571 ;; Return value:  Size  Location     Type
  3572 ;;                  1    wreg      void 
  3573 ;; Registers used:
  3574 ;;		None
  3575 ;; Tracked objects:
  3576 ;;		On entry : 0/0
  3577 ;;		On exit  : 0/0
  3578 ;;		Unchanged: 0/0
  3579 ;; Data sizes:     COMRAM   BANK0   BANK1   BANK2   BANK3  BANK4lBANK5hhhBANK5hhl BANK5hl  BANK5l   BANK6   BANK7
  3580 ;;      Params:         0       0       0       0       0       0       0       0       0       0       0       0
  3581 ;;      Locals:         0       0       0       0       0       0       0       0       0       0       0       0
  3582 ;;      Temps:          0       0       0       0       0       0       0       0       0       0       0       0
  3583 ;;      Totals:         0       0       0       0       0       0       0       0       0       0       0       0
  3584 ;;Total ram usage:        0 bytes
  3585 ;; Hardware stack levels used:    1
  3586 ;; This function calls:
  3587 ;;		Nothing
  3588 ;; This function is called by:
  3589 ;;		_USER_USB_CALLBACK_EVENT_HANDLER
  3590 ;; This function uses a non-reentrant model
  3591 ;;
  3592                           
  3593                           	psect	text16
  3594  001B72                     __ptext16:
  3595                           	opt stack 0
  3596  001B72                     _USBCBWakeFromSuspend:
  3597                           	opt stack 28
  3598                           
  3599                           ;incstack = 0
  3600  001B72  0012               	return		;funcret
  3601  001B74                     __end_of_USBCBWakeFromSuspend:
  3602                           	opt stack 0
  3603                           tblptru	equ	0xFF8
  3604                           tblptrh	equ	0xFF7
  3605                           tblptrl	equ	0xFF6
  3606                           tablat	equ	0xFF5
  3607                           prodh	equ	0xFF4
  3608                           prodl	equ	0xFF3
  3609                           postinc0	equ	0xFEE
  3610                           wreg	equ	0xFE8
  3611                           indf1	equ	0xFE7
  3612                           postdec1	equ	0xFE5
  3613                           fsr1h	equ	0xFE2
  3614                           fsr1l	equ	0xFE1
  3615                           indf2	equ	0xFDF
  3616                           postinc2	equ	0xFDE
  3617                           postdec2	equ	0xFDD
  3618                           fsr2h	equ	0xFDA
  3619                           fsr2l	equ	0xFD9
  3620                           status	equ	0xFD8
  3621                           
  3622 ;; *************** function _USBCBSuspend *****************
  3623 ;; Defined at:
  3624 ;;		line 43 in file "usbcallback.c"
  3625 ;; Parameters:    Size  Location     Type
  3626 ;;		None
  3627 ;; Auto vars:     Size  Location     Type
  3628 ;;		None
  3629 ;; Return value:  Size  Location     Type
  3630 ;;                  1    wreg      void 
  3631 ;; Registers used:
  3632 ;;		None
  3633 ;; Tracked objects:
  3634 ;;		On entry : 0/0
  3635 ;;		On exit  : 0/0
  3636 ;;		Unchanged: 0/0
  3637 ;; Data sizes:     COMRAM   BANK0   BANK1   BANK2   BANK3  BANK4lBANK5hhhBANK5hhl BANK5hl  BANK5l   BANK6   BANK7
  3638 ;;      Params:         0       0       0       0       0       0       0       0       0       0       0       0
  3639 ;;      Locals:         0       0       0       0       0       0       0       0       0       0       0       0
  3640 ;;      Temps:          0       0       0       0       0       0       0       0       0       0       0       0
  3641 ;;      Totals:         0       0       0       0       0       0       0       0       0       0       0       0
  3642 ;;Total ram usage:        0 bytes
  3643 ;; Hardware stack levels used:    1
  3644 ;; This function calls:
  3645 ;;		Nothing
  3646 ;; This function is called by:
  3647 ;;		_USER_USB_CALLBACK_EVENT_HANDLER
  3648 ;; This function uses a non-reentrant model
  3649 ;;
  3650                           
  3651                           	psect	text17
  3652  001B74                     __ptext17:
  3653                           	opt stack 0
  3654  001B74                     _USBCBSuspend:
  3655                           	opt stack 28
  3656                           
  3657                           ;incstack = 0
  3658  001B74  0012               	return		;funcret
  3659  001B76                     __end_of_USBCBSuspend:
  3660                           	opt stack 0
  3661                           tblptru	equ	0xFF8
  3662                           tblptrh	equ	0xFF7
  3663                           tblptrl	equ	0xFF6
  3664                           tablat	equ	0xFF5
  3665                           prodh	equ	0xFF4
  3666                           prodl	equ	0xFF3
  3667                           postinc0	equ	0xFEE
  3668                           wreg	equ	0xFE8
  3669                           indf1	equ	0xFE7
  3670                           postdec1	equ	0xFE5
  3671                           fsr1h	equ	0xFE2
  3672                           fsr1l	equ	0xFE1
  3673                           indf2	equ	0xFDF
  3674                           postinc2	equ	0xFDE
  3675                           postdec2	equ	0xFDD
  3676                           fsr2h	equ	0xFDA
  3677                           fsr2l	equ	0xFD9
  3678                           status	equ	0xFD8
  3679                           
  3680 ;; *************** function _USBCBStdSetDscHandler *****************
  3681 ;; Defined at:
  3682 ;;		line 262 in file "usbcallback.c"
  3683 ;; Parameters:    Size  Location     Type
  3684 ;;		None
  3685 ;; Auto vars:     Size  Location     Type
  3686 ;;		None
  3687 ;; Return value:  Size  Location     Type
  3688 ;;                  1    wreg      void 
  3689 ;; Registers used:
  3690 ;;		None
  3691 ;; Tracked objects:
  3692 ;;		On entry : 0/0
  3693 ;;		On exit  : 0/0
  3694 ;;		Unchanged: 0/0
  3695 ;; Data sizes:     COMRAM   BANK0   BANK1   BANK2   BANK3  BANK4lBANK5hhhBANK5hhl BANK5hl  BANK5l   BANK6   BANK7
  3696 ;;      Params:         0       0       0       0       0       0       0       0       0       0       0       0
  3697 ;;      Locals:         0       0       0       0       0       0       0       0       0       0       0       0
  3698 ;;      Temps:          0       0       0       0       0       0       0       0       0       0       0       0
  3699 ;;      Totals:         0       0       0       0       0       0       0       0       0       0       0       0
  3700 ;;Total ram usage:        0 bytes
  3701 ;; Hardware stack levels used:    1
  3702 ;; This function calls:
  3703 ;;		Nothing
  3704 ;; This function is called by:
  3705 ;;		_USER_USB_CALLBACK_EVENT_HANDLER
  3706 ;; This function uses a non-reentrant model
  3707 ;;
  3708                           
  3709                           	psect	text18
  3710  001B76                     __ptext18:
  3711                           	opt stack 0
  3712  001B76                     _USBCBStdSetDscHandler:
  3713                           	opt stack 28
  3714                           
  3715                           ;incstack = 0
  3716  001B76  0012               	return		;funcret
  3717  001B78                     __end_of_USBCBStdSetDscHandler:
  3718                           	opt stack 0
  3719                           tblptru	equ	0xFF8
  3720                           tblptrh	equ	0xFF7
  3721                           tblptrl	equ	0xFF6
  3722                           tablat	equ	0xFF5
  3723                           prodh	equ	0xFF4
  3724                           prodl	equ	0xFF3
  3725                           postinc0	equ	0xFEE
  3726                           wreg	equ	0xFE8
  3727                           indf1	equ	0xFE7
  3728                           postdec1	equ	0xFE5
  3729                           fsr1h	equ	0xFE2
  3730                           fsr1l	equ	0xFE1
  3731                           indf2	equ	0xFDF
  3732                           postinc2	equ	0xFDE
  3733                           postdec2	equ	0xFDD
  3734                           fsr2h	equ	0xFDA
  3735                           fsr2l	equ	0xFD9
  3736                           status	equ	0xFD8
  3737                           
  3738 ;; *************** function _USBCBInitEP *****************
  3739 ;; Defined at:
  3740 ;;		line 288 in file "usbcallback.c"
  3741 ;; Parameters:    Size  Location     Type
  3742 ;;		None
  3743 ;; Auto vars:     Size  Location     Type
  3744 ;;		None
  3745 ;; Return value:  Size  Location     Type
  3746 ;;                  1    wreg      void 
  3747 ;; Registers used:
  3748 ;;		wreg, fsr2l, fsr2h, status,2, status,0, prodl, prodh, cstack
  3749 ;; Tracked objects:
  3750 ;;		On entry : 0/0
  3751 ;;		On exit  : 0/0
  3752 ;;		Unchanged: 0/0
  3753 ;; Data sizes:     COMRAM   BANK0   BANK1   BANK2   BANK3  BANK4lBANK5hhhBANK5hhl BANK5hl  BANK5l   BANK6   BANK7
  3754 ;;      Params:         0       0       0       0       0       0       0       0       0       0       0       0
  3755 ;;      Locals:         0       0       0       0       0       0       0       0       0       0       0       0
  3756 ;;      Temps:          0       0       0       0       0       0       0       0       0       0       0       0
  3757 ;;      Totals:         0       0       0       0       0       0       0       0       0       0       0       0
  3758 ;;Total ram usage:        0 bytes
  3759 ;; Hardware stack levels used:    1
  3760 ;; Hardware stack levels required when called:    2
  3761 ;; This function calls:
  3762 ;;		_USBEnableEndpoint
  3763 ;;		_USBTransferOnePacket
  3764 ;; This function is called by:
  3765 ;;		_USER_USB_CALLBACK_EVENT_HANDLER
  3766 ;; This function uses a non-reentrant model
  3767 ;;
  3768                           
  3769                           	psect	text19
  3770  001B12                     __ptext19:
  3771                           	opt stack 0
  3772  001B12                     _USBCBInitEP:
  3773                           	opt stack 26
  3774                           
  3775                           ;usbcallback.c: 291: USBEnableEndpoint(1,0x02|0x04|0x10|0x08);
  3776                           
  3777                           ;incstack = 0
  3778  001B12  0E1E               	movlw	30
  3779  001B14  6E41               	movwf	USBEnableEndpoint@options,c
  3780  001B16  0E01               	movlw	1
  3781  001B18  EC0E  F00D         	call	_USBEnableEndpoint
  3782                           
  3783                           ;usbcallback.c: 293: USBOutHandle = USBTransferOnePacket(1,0,(BYTE*)&ReceivedDataBuffer,
      +                          64);
  3784  001B1C  0E00               	movlw	0
  3785  001B1E  6E3A               	movwf	USBTransferOnePacket@dir,c
  3786  001B20  0E80               	movlw	128
  3787  001B22  6E3B               	movwf	USBTransferOnePacket@data,c
  3788  001B24  0E04               	movlw	4
  3789  001B26  6E3C               	movwf	USBTransferOnePacket@data+1,c
  3790  001B28  0E40               	movlw	64
  3791  001B2A  6E3D               	movwf	USBTransferOnePacket@len,c
  3792  001B2C  0E01               	movlw	1
  3793  001B2E  EC83  F00A         	call	_USBTransferOnePacket
  3794  001B32  C03A  F020         	movff	?_USBTransferOnePacket,_USBOutHandle
  3795  001B36  C03B  F021         	movff	?_USBTransferOnePacket+1,_USBOutHandle+1
  3796  001B3A  0012               	return		;funcret
  3797  001B3C                     __end_of_USBCBInitEP:
  3798                           	opt stack 0
  3799                           tblptru	equ	0xFF8
  3800                           tblptrh	equ	0xFF7
  3801                           tblptrl	equ	0xFF6
  3802                           tablat	equ	0xFF5
  3803                           prodh	equ	0xFF4
  3804                           prodl	equ	0xFF3
  3805                           postinc0	equ	0xFEE
  3806                           wreg	equ	0xFE8
  3807                           indf1	equ	0xFE7
  3808                           postdec1	equ	0xFE5
  3809                           fsr1h	equ	0xFE2
  3810                           fsr1l	equ	0xFE1
  3811                           indf2	equ	0xFDF
  3812                           postinc2	equ	0xFDE
  3813                           postdec2	equ	0xFDD
  3814                           fsr2h	equ	0xFDA
  3815                           fsr2l	equ	0xFD9
  3816                           status	equ	0xFD8
  3817                           
  3818 ;; *************** function _USBTransferOnePacket *****************
  3819 ;; Defined at:
  3820 ;;		line 2476 in file "usb_device.c"
  3821 ;; Parameters:    Size  Location     Type
  3822 ;;  ep              1    wreg     unsigned char 
  3823 ;;  dir             1    0[COMRAM] unsigned char 
  3824 ;;  data            2    1[COMRAM] PTR unsigned char 
  3825 ;;		 -> ToSendDataBuffer(64), ReceivedDataBuffer(64), 
  3826 ;;  len             1    3[COMRAM] unsigned char 
  3827 ;; Auto vars:     Size  Location     Type
  3828 ;;  ep              1    4[COMRAM] unsigned char 
  3829 ;;  handle          2    5[COMRAM] PTR volatile struct __BD
  3830 ;;		 -> BDT(32), 
  3831 ;; Return value:  Size  Location     Type
  3832 ;;                  2    0[COMRAM] PTR void 
  3833 ;; Registers used:
  3834 ;;		wreg, fsr2l, fsr2h, status,2, status,0, prodl, prodh
  3835 ;; Tracked objects:
  3836 ;;		On entry : 0/0
  3837 ;;		On exit  : 0/0
  3838 ;;		Unchanged: 0/0
  3839 ;; Data sizes:     COMRAM   BANK0   BANK1   BANK2   BANK3  BANK4lBANK5hhhBANK5hhl BANK5hl  BANK5l   BANK6   BANK7
  3840 ;;      Params:         4       0       0       0       0       0       0       0       0       0       0       0
  3841 ;;      Locals:         3       0       0       0       0       0       0       0       0       0       0       0
  3842 ;;      Temps:          0       0       0       0       0       0       0       0       0       0       0       0
  3843 ;;      Totals:         7       0       0       0       0       0       0       0       0       0       0       0
  3844 ;;Total ram usage:        7 bytes
  3845 ;; Hardware stack levels used:    1
  3846 ;; This function calls:
  3847 ;;		Nothing
  3848 ;; This function is called by:
  3849 ;;		_main
  3850 ;;		_USBCBInitEP
  3851 ;; This function uses a non-reentrant model
  3852 ;;
  3853                           
  3854                           	psect	text20
  3855  001506                     __ptext20:
  3856                           	opt stack 0
  3857  001506                     _USBTransferOnePacket:
  3858                           	opt stack 30
  3859                           
  3860                           ;incstack = 0
  3861                           ;USBTransferOnePacket@ep stored from wreg
  3862  001506  6E3E               	movwf	USBTransferOnePacket@ep,c
  3863                           
  3864                           ;usb_device.c: 2478: volatile BDT_ENTRY* handle;
  3865                           ;usb_device.c: 2481: if(dir != 0)
  3866  001508  503A               	movf	USBTransferOnePacket@dir,w,c
  3867  00150A  B4D8               	btfsc	status,2,c
  3868  00150C  D007               	goto	l2243
  3869                           
  3870                           ;usb_device.c: 2482: {
  3871                           ;usb_device.c: 2484: handle = pBDTEntryIn[ep];
  3872  00150E  503E               	movf	USBTransferOnePacket@ep,w,c
  3873  001510  0D02               	mullw	2
  3874  001512  0E0F               	movlw	low _pBDTEntryIn
  3875  001514  24F3               	addwf	prodl,w,c
  3876  001516  6ED9               	movwf	fsr2l,c
  3877  001518  0E00               	movlw	high _pBDTEntryIn
  3878  00151A  D006               	goto	L1
  3879  00151C                     l2243:
  3880                           
  3881                           ;usb_device.c: 2486: else
  3882                           ;usb_device.c: 2487: {
  3883                           ;usb_device.c: 2489: handle = pBDTEntryOut[ep];
  3884  00151C  503E               	movf	USBTransferOnePacket@ep,w,c
  3885  00151E  0D02               	mullw	2
  3886  001520  0E13               	movlw	low _pBDTEntryOut
  3887  001522  24F3               	addwf	prodl,w,c
  3888  001524  6ED9               	movwf	fsr2l,c
  3889  001526  0E00               	movlw	high _pBDTEntryOut
  3890  001528                     L1:
  3891  001528  20F4               	addwfc	prodh,w,c
  3892  00152A  6EDA               	movwf	fsr2h,c
  3893  00152C  CFDE F03F          	movff	postinc2,USBTransferOnePacket@handle
  3894  001530  CFDD F040          	movff	postdec2,USBTransferOnePacket@handle+1
  3895                           
  3896                           ;usb_device.c: 2490: }
  3897                           ;usb_device.c: 2503: handle->ADR = (BYTE*)data;
  3898  001534  EE20 F002          	lfsr	2,2
  3899  001538  503F               	movf	USBTransferOnePacket@handle,w,c
  3900  00153A  26D9               	addwf	fsr2l,f,c
  3901  00153C  5040               	movf	USBTransferOnePacket@handle+1,w,c
  3902  00153E  22DA               	addwfc	fsr2h,f,c
  3903  001540  C03B  FFDE         	movff	USBTransferOnePacket@data,postinc2	;volatile
  3904  001544  C03C  FFDD         	movff	USBTransferOnePacket@data+1,postdec2	;volatile
  3905                           
  3906                           ;usb_device.c: 2504: handle->CNT = len;
  3907  001548  EE20 F001          	lfsr	2,1
  3908  00154C  503F               	movf	USBTransferOnePacket@handle,w,c
  3909  00154E  26D9               	addwf	fsr2l,f,c
  3910  001550  5040               	movf	USBTransferOnePacket@handle+1,w,c
  3911  001552  22DA               	addwfc	fsr2h,f,c
  3912  001554  C03D  FFDF         	movff	USBTransferOnePacket@len,indf2
  3913                           
  3914                           ;usb_device.c: 2505: handle->STAT.Val &= 0x40;
  3915  001558  C03F  FFD9         	movff	USBTransferOnePacket@handle,fsr2l
  3916  00155C  C040  FFDA         	movff	USBTransferOnePacket@handle+1,fsr2h
  3917  001560  0E40               	movlw	64
  3918  001562  16DF               	andwf	indf2,f,c
  3919                           
  3920                           ;usb_device.c: 2506: handle->STAT.Val |= 0x80 | 0x08;
  3921  001564  C03F  FFD9         	movff	USBTransferOnePacket@handle,fsr2l
  3922  001568  C040  FFDA         	movff	USBTransferOnePacket@handle+1,fsr2h
  3923  00156C  0E88               	movlw	136
  3924  00156E  12DF               	iorwf	indf2,f,c
  3925                           
  3926                           ;usb_device.c: 2509: if(dir != 0)
  3927  001570  503A               	movf	USBTransferOnePacket@dir,w,c
  3928  001572  B4D8               	btfsc	status,2,c
  3929  001574  D007               	goto	l2257
  3930                           
  3931                           ;usb_device.c: 2510: {
  3932                           ;usb_device.c: 2512: ((BYTE_VAL*)&pBDTEntryIn[ep])->Val ^= 0x0004;
  3933  001576  503E               	movf	USBTransferOnePacket@ep,w,c
  3934  001578  0D02               	mullw	2
  3935  00157A  0E0F               	movlw	low _pBDTEntryIn
  3936  00157C  24F3               	addwf	prodl,w,c
  3937  00157E  6ED9               	movwf	fsr2l,c
  3938  001580  0E00               	movlw	high _pBDTEntryIn
  3939  001582  D006               	goto	L2
  3940  001584                     l2257:
  3941                           
  3942                           ;usb_device.c: 2514: else
  3943                           ;usb_device.c: 2515: {
  3944                           ;usb_device.c: 2517: ((BYTE_VAL*)&pBDTEntryOut[ep])->Val ^= 0x0004;
  3945  001584  503E               	movf	USBTransferOnePacket@ep,w,c
  3946  001586  0D02               	mullw	2
  3947  001588  0E13               	movlw	low _pBDTEntryOut
  3948  00158A  24F3               	addwf	prodl,w,c
  3949  00158C  6ED9               	movwf	fsr2l,c
  3950  00158E  0E00               	movlw	high _pBDTEntryOut
  3951  001590                     L2:
  3952  001590  20F4               	addwfc	prodh,w,c
  3953  001592  6EDA               	movwf	fsr2h,c
  3954  001594  0E04               	movlw	4
  3955  001596  1ADF               	xorwf	indf2,f,c
  3956                           
  3957                           ;usb_device.c: 2518: }
  3958                           ;usb_device.c: 2519: return (void*)handle;
  3959  001598  C03F  F03A         	movff	USBTransferOnePacket@handle,?_USBTransferOnePacket
  3960  00159C  C040  F03B         	movff	USBTransferOnePacket@handle+1,?_USBTransferOnePacket+1
  3961  0015A0  0012               	return	
  3962  0015A2                     __end_of_USBTransferOnePacket:
  3963                           	opt stack 0
  3964                           tblptru	equ	0xFF8
  3965                           tblptrh	equ	0xFF7
  3966                           tblptrl	equ	0xFF6
  3967                           tablat	equ	0xFF5
  3968                           prodh	equ	0xFF4
  3969                           prodl	equ	0xFF3
  3970                           postinc0	equ	0xFEE
  3971                           wreg	equ	0xFE8
  3972                           indf1	equ	0xFE7
  3973                           postdec1	equ	0xFE5
  3974                           fsr1h	equ	0xFE2
  3975                           fsr1l	equ	0xFE1
  3976                           indf2	equ	0xFDF
  3977                           postinc2	equ	0xFDE
  3978                           postdec2	equ	0xFDD
  3979                           fsr2h	equ	0xFDA
  3980                           fsr2l	equ	0xFD9
  3981                           status	equ	0xFD8
  3982                           
  3983 ;; *************** function _USBEnableEndpoint *****************
  3984 ;; Defined at:
  3985 ;;		line 2376 in file "usb_device.c"
  3986 ;; Parameters:    Size  Location     Type
  3987 ;;  ep              1    wreg     unsigned char 
  3988 ;;  options         1    7[COMRAM] unsigned char 
  3989 ;; Auto vars:     Size  Location     Type
  3990 ;;  ep              1   10[COMRAM] unsigned char 
  3991 ;;  p               2    8[COMRAM] PTR unsigned char 
  3992 ;;		 -> UEP0(1), 
  3993 ;; Return value:  Size  Location     Type
  3994 ;;                  1    wreg      void 
  3995 ;; Registers used:
  3996 ;;		wreg, fsr2l, fsr2h, status,2, status,0, prodl, prodh, cstack
  3997 ;; Tracked objects:
  3998 ;;		On entry : 0/0
  3999 ;;		On exit  : 0/0
  4000 ;;		Unchanged: 0/0
  4001 ;; Data sizes:     COMRAM   BANK0   BANK1   BANK2   BANK3  BANK4lBANK5hhhBANK5hhl BANK5hl  BANK5l   BANK6   BANK7
  4002 ;;      Params:         1       0       0       0       0       0       0       0       0       0       0       0
  4003 ;;      Locals:         3       0       0       0       0       0       0       0       0       0       0       0
  4004 ;;      Temps:          0       0       0       0       0       0       0       0       0       0       0       0
  4005 ;;      Totals:         4       0       0       0       0       0       0       0       0       0       0       0
  4006 ;;Total ram usage:        4 bytes
  4007 ;; Hardware stack levels used:    1
  4008 ;; Hardware stack levels required when called:    1
  4009 ;; This function calls:
  4010 ;;		_USBConfigureEndpoint
  4011 ;; This function is called by:
  4012 ;;		_USBCBInitEP
  4013 ;; This function uses a non-reentrant model
  4014 ;;
  4015                           
  4016                           	psect	text21
  4017  001A1C                     __ptext21:
  4018                           	opt stack 0
  4019  001A1C                     _USBEnableEndpoint:
  4020                           	opt stack 26
  4021                           
  4022                           ;incstack = 0
  4023                           ;USBEnableEndpoint@ep stored from wreg
  4024  001A1C  6E44               	movwf	USBEnableEndpoint@ep,c
  4025                           
  4026                           ;usb_device.c: 2380: {
  4027                           ;usb_device.c: 2381: unsigned char* p;
  4028                           ;usb_device.c: 2386: p = (unsigned char*)(&UEP0+ep);
  4029  001A1E  5044               	movf	USBEnableEndpoint@ep,w,c
  4030  001A20  0D01               	mullw	1
  4031  001A22  0E70               	movlw	112
  4032  001A24  24F3               	addwf	prodl,w,c
  4033  001A26  6E42               	movwf	USBEnableEndpoint@p,c
  4034  001A28  0E0F               	movlw	15
  4035  001A2A  20F4               	addwfc	prodh,w,c
  4036  001A2C  6E43               	movwf	USBEnableEndpoint@p+1,c
  4037                           
  4038                           ;usb_device.c: 2388: *p = options;
  4039  001A2E  C042  FFD9         	movff	USBEnableEndpoint@p,fsr2l
  4040  001A32  C043  FFDA         	movff	USBEnableEndpoint@p+1,fsr2h
  4041  001A36  C041  FFDF         	movff	USBEnableEndpoint@options,indf2
  4042                           
  4043                           ;usb_device.c: 2389: }
  4044                           ;usb_device.c: 2391: if(options & 0x04)
  4045  001A3A  A441               	btfss	USBEnableEndpoint@options,2,c
  4046  001A3C  D005               	goto	l2271
  4047                           
  4048                           ;usb_device.c: 2392: {
  4049                           ;usb_device.c: 2393: USBConfigureEndpoint(ep,0);
  4050  001A3E  0E00               	movlw	0
  4051  001A40  6E3A               	movwf	USBConfigureEndpoint@direction,c
  4052  001A42  5044               	movf	USBEnableEndpoint@ep,w,c
  4053  001A44  EC19  F00B         	call	_USBConfigureEndpoint
  4054  001A48                     l2271:
  4055                           
  4056                           ;usb_device.c: 2394: }
  4057                           ;usb_device.c: 2395: if(options & 0x02)
  4058  001A48  A241               	btfss	USBEnableEndpoint@options,1,c
  4059  001A4A  0012               	return	
  4060                           
  4061                           ;usb_device.c: 2396: {
  4062                           ;usb_device.c: 2397: USBConfigureEndpoint(ep,1);
  4063  001A4C  0E01               	movlw	1
  4064  001A4E  6E3A               	movwf	USBConfigureEndpoint@direction,c
  4065  001A50  5044               	movf	USBEnableEndpoint@ep,w,c
  4066  001A52  EC19  F00B         	call	_USBConfigureEndpoint
  4067  001A56  0012               	return	
  4068  001A58                     __end_of_USBEnableEndpoint:
  4069                           	opt stack 0
  4070                           tblptru	equ	0xFF8
  4071                           tblptrh	equ	0xFF7
  4072                           tblptrl	equ	0xFF6
  4073                           tablat	equ	0xFF5
  4074                           prodh	equ	0xFF4
  4075                           prodl	equ	0xFF3
  4076                           postinc0	equ	0xFEE
  4077                           wreg	equ	0xFE8
  4078                           indf1	equ	0xFE7
  4079                           postdec1	equ	0xFE5
  4080                           fsr1h	equ	0xFE2
  4081                           fsr1l	equ	0xFE1
  4082                           indf2	equ	0xFDF
  4083                           postinc2	equ	0xFDE
  4084                           postdec2	equ	0xFDD
  4085                           fsr2h	equ	0xFDA
  4086                           fsr2l	equ	0xFD9
  4087                           status	equ	0xFD8
  4088                           
  4089 ;; *************** function _USBConfigureEndpoint *****************
  4090 ;; Defined at:
  4091 ;;		line 2277 in file "usb_device.c"
  4092 ;; Parameters:    Size  Location     Type
  4093 ;;  EPNum           1    wreg     unsigned char 
  4094 ;;  direction       1    0[COMRAM] unsigned char 
  4095 ;; Auto vars:     Size  Location     Type
  4096 ;;  EPNum           1    4[COMRAM] unsigned char 
  4097 ;;  handle          2    5[COMRAM] PTR volatile struct __BD
  4098 ;;		 -> BDT(32), 
  4099 ;;  workaround      1    3[COMRAM] unsigned char 
  4100 ;; Return value:  Size  Location     Type
  4101 ;;                  1    wreg      void 
  4102 ;; Registers used:
  4103 ;;		wreg, fsr2l, fsr2h, status,2, status,0, prodl, prodh
  4104 ;; Tracked objects:
  4105 ;;		On entry : 0/0
  4106 ;;		On exit  : 0/0
  4107 ;;		Unchanged: 0/0
  4108 ;; Data sizes:     COMRAM   BANK0   BANK1   BANK2   BANK3  BANK4lBANK5hhhBANK5hhl BANK5hl  BANK5l   BANK6   BANK7
  4109 ;;      Params:         1       0       0       0       0       0       0       0       0       0       0       0
  4110 ;;      Locals:         4       0       0       0       0       0       0       0       0       0       0       0
  4111 ;;      Temps:          2       0       0       0       0       0       0       0       0       0       0       0
  4112 ;;      Totals:         7       0       0       0       0       0       0       0       0       0       0       0
  4113 ;;Total ram usage:        7 bytes
  4114 ;; Hardware stack levels used:    1
  4115 ;; This function calls:
  4116 ;;		Nothing
  4117 ;; This function is called by:
  4118 ;;		_USBEnableEndpoint
  4119 ;; This function uses a non-reentrant model
  4120 ;;
  4121                           
  4122                           	psect	text22
  4123  001632                     __ptext22:
  4124                           	opt stack 0
  4125  001632                     _USBConfigureEndpoint:
  4126                           	opt stack 26
  4127                           
  4128                           ;incstack = 0
  4129                           ;USBConfigureEndpoint@EPNum stored from wreg
  4130  001632  6E3E               	movwf	USBConfigureEndpoint@EPNum,c
  4131                           
  4132                           ;usb_device.c: 2279: volatile BDT_ENTRY* handle;
  4133                           ;usb_device.c: 2281: unsigned char workaround;
  4134                           ;usb_device.c: 2284: handle = (volatile BDT_ENTRY*)&BDT[0];
  4135  001634  0E00               	movlw	0
  4136  001636  6E3F               	movwf	USBConfigureEndpoint@handle,c
  4137  001638  0E04               	movlw	4
  4138  00163A  6E40               	movwf	USBConfigureEndpoint@handle+1,c
  4139                           
  4140                           ;usb_device.c: 2289: workaround = (4*(4*EPNum+2*direction+0));
  4141  00163C  503A               	movf	USBConfigureEndpoint@direction,w,c
  4142  00163E  0D02               	mullw	2
  4143  001640  CFF3 F03B          	movff	prodl,??_USBConfigureEndpoint
  4144  001644  503E               	movf	USBConfigureEndpoint@EPNum,w,c
  4145  001646  0D04               	mullw	4
  4146  001648  50F3               	movf	prodl,w,c
  4147  00164A  243B               	addwf	??_USBConfigureEndpoint,w,c
  4148  00164C  6E3C               	movwf	(??_USBConfigureEndpoint+1)& (0+255),c
  4149  00164E  90D8               	bcf	status,0,c
  4150  001650  363C               	rlcf	??_USBConfigureEndpoint+1,f,c
  4151  001652  90D8               	bcf	status,0,c
  4152  001654  343C               	rlcf	??_USBConfigureEndpoint+1,w,c
  4153  001656  6E3D               	movwf	USBConfigureEndpoint@workaround,c
  4154                           
  4155                           ;usb_device.c: 2290: workaround = workaround/sizeof(BDT_ENTRY);
  4156  001658  403D               	rrncf	USBConfigureEndpoint@workaround,w,c
  4157  00165A  42E8               	rrncf	wreg,f,c
  4158  00165C  0B3F               	andlw	63
  4159  00165E  6E3D               	movwf	USBConfigureEndpoint@workaround,c
  4160                           
  4161                           ;usb_device.c: 2291: handle += workaround;
  4162  001660  503D               	movf	USBConfigureEndpoint@workaround,w,c
  4163  001662  0D04               	mullw	4
  4164  001664  50F3               	movf	prodl,w,c
  4165  001666  263F               	addwf	USBConfigureEndpoint@handle,f,c
  4166  001668  50F4               	movf	prodh,w,c
  4167  00166A  2240               	addwfc	USBConfigureEndpoint@handle+1,f,c
  4168                           
  4169                           ;usb_device.c: 2295: handle->STAT.UOWN = 0;
  4170  00166C  C03F  FFD9         	movff	USBConfigureEndpoint@handle,fsr2l
  4171  001670  C040  FFDA         	movff	USBConfigureEndpoint@handle+1,fsr2h
  4172  001674  9EDF               	bcf	indf2,7,c
  4173                           
  4174                           ;usb_device.c: 2297: if(direction == 0)
  4175  001676  503A               	movf	USBConfigureEndpoint@direction,w,c
  4176  001678  A4D8               	btfss	status,2,c
  4177  00167A  D007               	goto	l2233
  4178                           
  4179                           ;usb_device.c: 2298: {
  4180                           ;usb_device.c: 2299: pBDTEntryOut[EPNum] = handle;
  4181  00167C  503E               	movf	USBConfigureEndpoint@EPNum,w,c
  4182  00167E  0D02               	mullw	2
  4183  001680  0E13               	movlw	low _pBDTEntryOut
  4184  001682  24F3               	addwf	prodl,w,c
  4185  001684  6ED9               	movwf	fsr2l,c
  4186  001686  0E00               	movlw	high _pBDTEntryOut
  4187  001688  D006               	goto	L3
  4188  00168A                     l2233:
  4189                           
  4190                           ;usb_device.c: 2301: else
  4191                           ;usb_device.c: 2302: {
  4192                           ;usb_device.c: 2303: pBDTEntryIn[EPNum] = handle;
  4193  00168A  503E               	movf	USBConfigureEndpoint@EPNum,w,c
  4194  00168C  0D02               	mullw	2
  4195  00168E  0E0F               	movlw	low _pBDTEntryIn
  4196  001690  24F3               	addwf	prodl,w,c
  4197  001692  6ED9               	movwf	fsr2l,c
  4198  001694  0E00               	movlw	high _pBDTEntryIn
  4199  001696                     L3:
  4200  001696  20F4               	addwfc	prodh,w,c
  4201  001698  6EDA               	movwf	fsr2h,c
  4202  00169A  C03F  FFDE         	movff	USBConfigureEndpoint@handle,postinc2
  4203  00169E  C040  FFDD         	movff	USBConfigureEndpoint@handle+1,postdec2
  4204                           
  4205                           ;usb_device.c: 2304: }
  4206                           ;usb_device.c: 2307: handle->STAT.DTS = 0;
  4207  0016A2  C03F  FFD9         	movff	USBConfigureEndpoint@handle,fsr2l
  4208  0016A6  C040  FFDA         	movff	USBConfigureEndpoint@handle+1,fsr2h
  4209  0016AA  9CDF               	bcf	indf2,6,c
  4210                           
  4211                           ;usb_device.c: 2308: (handle+1)->STAT.DTS = 1;
  4212  0016AC  EE20 F004          	lfsr	2,4
  4213  0016B0  503F               	movf	USBConfigureEndpoint@handle,w,c
  4214  0016B2  26D9               	addwf	fsr2l,f,c
  4215  0016B4  5040               	movf	USBConfigureEndpoint@handle+1,w,c
  4216  0016B6  22DA               	addwfc	fsr2h,f,c
  4217  0016B8  8CDF               	bsf	indf2,6,c
  4218  0016BA  0012               	return		;funcret
  4219  0016BC                     __end_of_USBConfigureEndpoint:
  4220                           	opt stack 0
  4221                           tblptru	equ	0xFF8
  4222                           tblptrh	equ	0xFF7
  4223                           tblptrl	equ	0xFF6
  4224                           tablat	equ	0xFF5
  4225                           prodh	equ	0xFF4
  4226                           prodl	equ	0xFF3
  4227                           postinc0	equ	0xFEE
  4228                           wreg	equ	0xFE8
  4229                           indf1	equ	0xFE7
  4230                           postdec1	equ	0xFE5
  4231                           fsr1h	equ	0xFE2
  4232                           fsr1l	equ	0xFE1
  4233                           indf2	equ	0xFDF
  4234                           postinc2	equ	0xFDE
  4235                           postdec2	equ	0xFDD
  4236                           fsr2h	equ	0xFDA
  4237                           fsr2l	equ	0xFD9
  4238                           status	equ	0xFD8
  4239                           
  4240 ;; *************** function _USBCBErrorHandler *****************
  4241 ;; Defined at:
  4242 ;;		line 186 in file "usbcallback.c"
  4243 ;; Parameters:    Size  Location     Type
  4244 ;;		None
  4245 ;; Auto vars:     Size  Location     Type
  4246 ;;		None
  4247 ;; Return value:  Size  Location     Type
  4248 ;;                  1    wreg      void 
  4249 ;; Registers used:
  4250 ;;		None
  4251 ;; Tracked objects:
  4252 ;;		On entry : 0/0
  4253 ;;		On exit  : 0/0
  4254 ;;		Unchanged: 0/0
  4255 ;; Data sizes:     COMRAM   BANK0   BANK1   BANK2   BANK3  BANK4lBANK5hhhBANK5hhl BANK5hl  BANK5l   BANK6   BANK7
  4256 ;;      Params:         0       0       0       0       0       0       0       0       0       0       0       0
  4257 ;;      Locals:         0       0       0       0       0       0       0       0       0       0       0       0
  4258 ;;      Temps:          0       0       0       0       0       0       0       0       0       0       0       0
  4259 ;;      Totals:         0       0       0       0       0       0       0       0       0       0       0       0
  4260 ;;Total ram usage:        0 bytes
  4261 ;; Hardware stack levels used:    1
  4262 ;; This function calls:
  4263 ;;		Nothing
  4264 ;; This function is called by:
  4265 ;;		_USER_USB_CALLBACK_EVENT_HANDLER
  4266 ;; This function uses a non-reentrant model
  4267 ;;
  4268                           
  4269                           	psect	text23
  4270  001B78                     __ptext23:
  4271                           	opt stack 0
  4272  001B78                     _USBCBErrorHandler:
  4273                           	opt stack 28
  4274                           
  4275                           ;incstack = 0
  4276  001B78  0012               	return		;funcret
  4277  001B7A                     __end_of_USBCBErrorHandler:
  4278                           	opt stack 0
  4279                           tblptru	equ	0xFF8
  4280                           tblptrh	equ	0xFF7
  4281                           tblptrl	equ	0xFF6
  4282                           tablat	equ	0xFF5
  4283                           prodh	equ	0xFF4
  4284                           prodl	equ	0xFF3
  4285                           postinc0	equ	0xFEE
  4286                           wreg	equ	0xFE8
  4287                           indf1	equ	0xFE7
  4288                           postdec1	equ	0xFE5
  4289                           fsr1h	equ	0xFE2
  4290                           fsr1l	equ	0xFE1
  4291                           indf2	equ	0xFDF
  4292                           postinc2	equ	0xFDE
  4293                           postdec2	equ	0xFDD
  4294                           fsr2h	equ	0xFDA
  4295                           fsr2l	equ	0xFD9
  4296                           status	equ	0xFD8
  4297                           
  4298 ;; *************** function _USBCBCheckOtherReq *****************
  4299 ;; Defined at:
  4300 ;;		line 237 in file "usbcallback.c"
  4301 ;; Parameters:    Size  Location     Type
  4302 ;;		None
  4303 ;; Auto vars:     Size  Location     Type
  4304 ;;		None
  4305 ;; Return value:  Size  Location     Type
  4306 ;;                  1    wreg      void 
  4307 ;; Registers used:
  4308 ;;		wreg, status,2, status,0, cstack
  4309 ;; Tracked objects:
  4310 ;;		On entry : 0/0
  4311 ;;		On exit  : 0/0
  4312 ;;		Unchanged: 0/0
  4313 ;; Data sizes:     COMRAM   BANK0   BANK1   BANK2   BANK3  BANK4lBANK5hhhBANK5hhl BANK5hl  BANK5l   BANK6   BANK7
  4314 ;;      Params:         0       0       0       0       0       0       0       0       0       0       0       0
  4315 ;;      Locals:         0       0       0       0       0       0       0       0       0       0       0       0
  4316 ;;      Temps:          0       0       0       0       0       0       0       0       0       0       0       0
  4317 ;;      Totals:         0       0       0       0       0       0       0       0       0       0       0       0
  4318 ;;Total ram usage:        0 bytes
  4319 ;; Hardware stack levels used:    1
  4320 ;; Hardware stack levels required when called:    1
  4321 ;; This function calls:
  4322 ;;		_USBCheckHIDRequest
  4323 ;; This function is called by:
  4324 ;;		_USER_USB_CALLBACK_EVENT_HANDLER
  4325 ;; This function uses a non-reentrant model
  4326 ;;
  4327                           
  4328                           	psect	text24
  4329  001B6A                     __ptext24:
  4330                           	opt stack 0
  4331  001B6A                     _USBCBCheckOtherReq:
  4332                           	opt stack 27
  4333                           
  4334                           ;usbcallback.c: 239: USBCheckHIDRequest();
  4335                           
  4336                           ;incstack = 0
  4337  001B6A  ECEE  F008         	call	_USBCheckHIDRequest	;wreg free
  4338  001B6E  0012               	return		;funcret
  4339  001B70                     __end_of_USBCBCheckOtherReq:
  4340                           	opt stack 0
  4341                           tblptru	equ	0xFF8
  4342                           tblptrh	equ	0xFF7
  4343                           tblptrl	equ	0xFF6
  4344                           tablat	equ	0xFF5
  4345                           prodh	equ	0xFF4
  4346                           prodl	equ	0xFF3
  4347                           postinc0	equ	0xFEE
  4348                           wreg	equ	0xFE8
  4349                           indf1	equ	0xFE7
  4350                           postdec1	equ	0xFE5
  4351                           fsr1h	equ	0xFE2
  4352                           fsr1l	equ	0xFE1
  4353                           indf2	equ	0xFDF
  4354                           postinc2	equ	0xFDE
  4355                           postdec2	equ	0xFDD
  4356                           fsr2h	equ	0xFDA
  4357                           fsr2l	equ	0xFD9
  4358                           status	equ	0xFD8
  4359                           
  4360 ;; *************** function _USBCheckHIDRequest *****************
  4361 ;; Defined at:
  4362 ;;		line 164 in file "usb_function_hid.c"
  4363 ;; Parameters:    Size  Location     Type
  4364 ;;		None
  4365 ;; Auto vars:     Size  Location     Type
  4366 ;;		None
  4367 ;; Return value:  Size  Location     Type
  4368 ;;                  1    wreg      void 
  4369 ;; Registers used:
  4370 ;;		wreg, status,2, status,0
  4371 ;; Tracked objects:
  4372 ;;		On entry : 0/0
  4373 ;;		On exit  : 0/0
  4374 ;;		Unchanged: 0/0
  4375 ;; Data sizes:     COMRAM   BANK0   BANK1   BANK2   BANK3  BANK4lBANK5hhhBANK5hhl BANK5hl  BANK5l   BANK6   BANK7
  4376 ;;      Params:         0       0       0       0       0       0       0       0       0       0       0       0
  4377 ;;      Locals:         0       0       0       0       0       0       0       0       0       0       0       0
  4378 ;;      Temps:          0       0       0       0       0       0       0       0       0       0       0       0
  4379 ;;      Totals:         0       0       0       0       0       0       0       0       0       0       0       0
  4380 ;;Total ram usage:        0 bytes
  4381 ;; Hardware stack levels used:    1
  4382 ;; This function calls:
  4383 ;;		Nothing
  4384 ;; This function is called by:
  4385 ;;		_USBCBCheckOtherReq
  4386 ;; This function uses a non-reentrant model
  4387 ;;
  4388                           
  4389                           	psect	text25
  4390  0011DC                     __ptext25:
  4391                           	opt stack 0
  4392  0011DC                     _USBCheckHIDRequest:
  4393                           	opt stack 27
  4394                           
  4395                           ;usb_function_hid.c: 166: if(SetupPkt.Recipient != (0x01)) return;
  4396                           
  4397                           ;incstack = 0
  4398  0011DC  0105               	movlb	5	; () banked
  4399  0011DE  5100               	movf	0,w,b	;volatile
  4400  0011E0  0B1F               	andlw	31
  4401  0011E2  06E8               	decf	wreg,f,c
  4402  0011E4  A4D8               	btfss	status,2,c
  4403  0011E6  0012               	return	
  4404                           
  4405                           ; BSR set to: 5
  4406                           ;usb_function_hid.c: 167: if(SetupPkt.bIntfID != 0x00) return;
  4407                           
  4408                           ; BSR set to: 5
  4409                           
  4410                           ; BSR set to: 5
  4411  0011E8  0105               	movlb	5	; () banked
  4412  0011EA  5104               	movf	4,w,b	;volatile
  4413  0011EC  A4D8               	btfss	status,2,c
  4414  0011EE  0012               	return	
  4415                           
  4416                           ; BSR set to: 5
  4417                           ;usb_function_hid.c: 174: if(SetupPkt.bRequest == 6)
  4418                           
  4419                           ; BSR set to: 5
  4420                           
  4421                           ; BSR set to: 5
  4422  0011F0  0E06               	movlw	6
  4423  0011F2  0105               	movlb	5	; () banked
  4424  0011F4  1901               	xorwf	1,w,b	;volatile
  4425  0011F6  B4D8               	btfsc	status,2,c
  4426  0011F8  D01D               	goto	l2307
  4427  0011FA  D027               	goto	l2309
  4428  0011FC                     l2287:
  4429                           
  4430                           ; BSR set to: 5
  4431                           ;usb_function_hid.c: 179: if(USBActiveConfiguration == 1)
  4432  0011FC  0435               	decf	_USBActiveConfiguration,w,c
  4433  0011FE  A4D8               	btfss	status,2,c
  4434  001200  D024               	goto	l2309
  4435                           
  4436                           ; BSR set to: 5
  4437                           ;usb_function_hid.c: 180: {
  4438                           ;usb_function_hid.c: 181: { inPipes[0].pSrc.bRom = (const BYTE*)&configDescriptor1 + 18;
      +                           inPipes[0].wCount.Val = sizeof(USB_HID_DSC)+3; inPipes[0].info.Val = 0x40 | 0x80 | 0x00
      +                          ; };
  4439  001202  0E79               	movlw	low (_configDescriptor1+18)
  4440  001204  6E09               	movwf	_inPipes,c
  4441  001206  0E08               	movlw	high (_configDescriptor1+18)
  4442  001208  6E0A               	movwf	_inPipes+1,c
  4443                           
  4444                           ; BSR set to: 5
  4445  00120A  0E00               	movlw	0
  4446  00120C  6E0E               	movwf	_inPipes+5,c
  4447  00120E  0E09               	movlw	9
  4448  001210  D00D               	goto	L4
  4449  001212                     l2293:
  4450                           
  4451                           ; BSR set to: 5
  4452  001212  0EC0               	movlw	192
  4453  001214  6E0C               	movwf	_inPipes+3,c
  4454                           
  4455                           ; BSR set to: 5
  4456                           ;usb_function_hid.c: 185: }
  4457                           ;usb_function_hid.c: 186: break;
  4458  001216  D019               	goto	l2309
  4459  001218                     l2295:
  4460                           
  4461                           ; BSR set to: 5
  4462                           ;usb_function_hid.c: 188: if(USBActiveConfiguration == 1)
  4463  001218  0435               	decf	_USBActiveConfiguration,w,c
  4464  00121A  A4D8               	btfss	status,2,c
  4465  00121C  D016               	goto	l2309
  4466                           
  4467                           ; BSR set to: 5
  4468                           ;usb_function_hid.c: 189: {
  4469                           ;usb_function_hid.c: 190: { inPipes[0].pSrc.bRom = (const BYTE*)&hid_rpt01; inPipes[0].w
      +                          Count.Val = sizeof(hid_rpt01); inPipes[0].info.Val = 0x40 | 0x80 | 0x00; };
  4470  00121E  0E90               	movlw	low _hid_rpt01
  4471  001220  6E09               	movwf	_inPipes,c
  4472  001222  0E08               	movlw	high _hid_rpt01
  4473  001224  6E0A               	movwf	_inPipes+1,c
  4474                           
  4475                           ; BSR set to: 5
  4476  001226  0E00               	movlw	0
  4477  001228  6E0E               	movwf	_inPipes+5,c
  4478  00122A  0E1D               	movlw	29
  4479  00122C                     L4:
  4480  00122C  6E0D               	movwf	_inPipes+4,c
  4481  00122E  D7F1               	goto	l2293
  4482  001230                     l2303:
  4483                           
  4484                           ; BSR set to: 5
  4485                           ;usb_function_hid.c: 197: inPipes[0].info.Val = 0x00 | 0x80;
  4486  001230  0E80               	movlw	128
  4487  001232  D7F0               	goto	L5
  4488  001234                     l2307:
  4489                           
  4490                           ; BSR set to: 5
  4491  001234  0105               	movlb	5	; () banked
  4492  001236  5103               	movf	3,w,b	;volatile
  4493                           
  4494                           ; Switch size 1, requested type "space"
  4495                           ; Number of cases is 3, Range of values is 33 to 35
  4496                           ; switch strategies available:
  4497                           ; Name         Instructions Cycles
  4498                           ; simple_byte           10     6 (average)
  4499                           ;	Chosen strategy is simple_byte
  4500  001238  0A21               	xorlw	33	; case 33
  4501  00123A  B4D8               	btfsc	status,2,c
  4502  00123C  D7DF               	goto	l2287
  4503  00123E  0A03               	xorlw	3	; case 34
  4504  001240  B4D8               	btfsc	status,2,c
  4505  001242  D7EA               	goto	l2295
  4506  001244  0A01               	xorlw	1	; case 35
  4507  001246  B4D8               	btfsc	status,2,c
  4508  001248  D7F3               	goto	l2303
  4509  00124A                     l2309:
  4510                           
  4511                           ; BSR set to: 5
  4512                           ;usb_function_hid.c: 200: }
  4513                           ;usb_function_hid.c: 202: if(SetupPkt.RequestType != (0x20>>5))
  4514  00124A  0105               	movlb	5	; () banked
  4515  00124C  3900               	swapf	0,w,b	;volatile
  4516  00124E  32E8               	rrcf	wreg,f,c
  4517  001250  0B03               	andlw	3
  4518  001252  06E8               	decf	wreg,f,c
  4519  001254  A4D8               	btfss	status,2,c
  4520  001256  0012               	return	
  4521  001258  D020               	goto	l2335
  4522  00125A                     l2313:
  4523                           
  4524                           ; BSR set to: 5
  4525                           ;usb_function_hid.c: 220: { inPipes[0].pSrc.bRam = (BYTE*)&idle_rate; inPipes[0].wCount.
      +                          Val = 1; inPipes[0].info.Val = 0x40 | 0x80 | 0x01; };
  4526  00125A  0E39               	movlw	low _idle_rate
  4527  00125C  6E09               	movwf	_inPipes,c
  4528  00125E  0E00               	movlw	high _idle_rate
  4529  001260  6E0A               	movwf	_inPipes+1,c
  4530                           
  4531                           ; BSR set to: 5
  4532  001262  0E00               	movlw	0
  4533  001264  6E0E               	movwf	_inPipes+5,c
  4534  001266  0E01               	movlw	1
  4535  001268  6E0D               	movwf	_inPipes+4,c
  4536                           
  4537                           ; BSR set to: 5
  4538  00126A  0EC1               	movlw	193
  4539  00126C  6E0C               	movwf	_inPipes+3,c
  4540                           
  4541                           ;usb_function_hid.c: 224: break;
  4542  00126E  0012               	return	
  4543  001270                     l2319:
  4544                           
  4545                           ; BSR set to: 5
  4546                           ;usb_function_hid.c: 226: inPipes[0].info.Val = 0x00 | 0x80;
  4547  001270  0E80               	movlw	128
  4548  001272  6E0C               	movwf	_inPipes+3,c
  4549                           
  4550                           ; BSR set to: 5
  4551                           ;usb_function_hid.c: 227: idle_rate = SetupPkt.W_Value.byte.HB;
  4552  001274  C503 F039          	movff	1283,_idle_rate	;volatile
  4553                           
  4554                           ;usb_function_hid.c: 228: break;
  4555  001278  0012               	return	
  4556  00127A                     l2323:
  4557                           
  4558                           ; BSR set to: 5
  4559                           ;usb_function_hid.c: 230: { inPipes[0].pSrc.bRam = (BYTE*)&active_protocol; inPipes[0].w
      +                          Count.Val = 1; inPipes[0].info.Val = 0x00 | 0x80 | 0x01; };
  4560  00127A  0E38               	movlw	low _active_protocol
  4561  00127C  6E09               	movwf	_inPipes,c
  4562  00127E  0E00               	movlw	high _active_protocol
  4563  001280  6E0A               	movwf	_inPipes+1,c
  4564                           
  4565                           ; BSR set to: 5
  4566  001282  0E00               	movlw	0
  4567  001284  6E0E               	movwf	_inPipes+5,c
  4568  001286  0E01               	movlw	1
  4569  001288  6E0D               	movwf	_inPipes+4,c
  4570                           
  4571                           ; BSR set to: 5
  4572  00128A  0E81               	movlw	129
  4573  00128C  6E0C               	movwf	_inPipes+3,c
  4574                           
  4575                           ;usb_function_hid.c: 234: break;
  4576  00128E  0012               	return	
  4577  001290                     l2329:
  4578                           
  4579                           ; BSR set to: 5
  4580                           ;usb_function_hid.c: 236: inPipes[0].info.Val = 0x00 | 0x80;
  4581  001290  0E80               	movlw	128
  4582  001292  6E0C               	movwf	_inPipes+3,c
  4583                           
  4584                           ; BSR set to: 5
  4585                           ;usb_function_hid.c: 237: active_protocol = SetupPkt.W_Value.byte.LB;
  4586  001294  C502 F038          	movff	1282,_active_protocol	;volatile
  4587                           
  4588                           ; BSR set to: 5
  4589                           ;usb_function_hid.c: 239: }
  4590                           
  4591                           ;usb_function_hid.c: 238: break;
  4592  001298  0012               	return	
  4593  00129A                     l2335:
  4594                           
  4595                           ; BSR set to: 5
  4596  00129A  0105               	movlb	5	; () banked
  4597  00129C  5101               	movf	1,w,b	;volatile
  4598                           
  4599                           ; Switch size 1, requested type "space"
  4600                           ; Number of cases is 6, Range of values is 1 to 11
  4601                           ; switch strategies available:
  4602                           ; Name         Instructions Cycles
  4603                           ; simple_byte           19    10 (average)
  4604                           ;	Chosen strategy is simple_byte
  4605  00129E  0A01               	xorlw	1	; case 1
  4606  0012A0  B4D8               	btfsc	status,2,c
  4607  0012A2  0012               	return	
  4608  0012A4  0A03               	xorlw	3	; case 2
  4609  0012A6  B4D8               	btfsc	status,2,c
  4610  0012A8  D7D8               	goto	l2313
  4611  0012AA  0A01               	xorlw	1	; case 3
  4612  0012AC  B4D8               	btfsc	status,2,c
  4613  0012AE  D7E5               	goto	l2323
  4614  0012B0  0A0A               	xorlw	10	; case 9
  4615  0012B2  B4D8               	btfsc	status,2,c
  4616  0012B4  0012               	return	
  4617  0012B6  0A03               	xorlw	3	; case 10
  4618  0012B8  B4D8               	btfsc	status,2,c
  4619  0012BA  D7DA               	goto	l2319
  4620  0012BC  0A01               	xorlw	1	; case 11
  4621  0012BE  A4D8               	btfss	status,2,c
  4622  0012C0  0012               	return	
  4623  0012C2  D7E6               	goto	l2329
  4624  0012C4                     __end_of_USBCheckHIDRequest:
  4625                           	opt stack 0
  4626                           tblptru	equ	0xFF8
  4627                           tblptrh	equ	0xFF7
  4628                           tblptrl	equ	0xFF6
  4629                           tablat	equ	0xFF5
  4630                           prodh	equ	0xFF4
  4631                           prodl	equ	0xFF3
  4632                           postinc0	equ	0xFEE
  4633                           wreg	equ	0xFE8
  4634                           indf1	equ	0xFE7
  4635                           postdec1	equ	0xFE5
  4636                           fsr1h	equ	0xFE2
  4637                           fsr1l	equ	0xFE1
  4638                           indf2	equ	0xFDF
  4639                           postinc2	equ	0xFDE
  4640                           postdec2	equ	0xFDD
  4641                           fsr2h	equ	0xFDA
  4642                           fsr2l	equ	0xFD9
  4643                           status	equ	0xFD8
  4644                           
  4645 ;; *************** function _USBStdGetStatusHandler *****************
  4646 ;; Defined at:
  4647 ;;		line 1825 in file "usb_device.c"
  4648 ;; Parameters:    Size  Location     Type
  4649 ;;		None
  4650 ;; Auto vars:     Size  Location     Type
  4651 ;;  p               2    1[COMRAM] PTR struct __BDT
  4652 ;;		 -> BDT(32), 
  4653 ;; Return value:  Size  Location     Type
  4654 ;;                  1    wreg      void 
  4655 ;; Registers used:
  4656 ;;		wreg, fsr2l, fsr2h, status,2, status,0, prodl, prodh
  4657 ;; Tracked objects:
  4658 ;;		On entry : 0/0
  4659 ;;		On exit  : 0/0
  4660 ;;		Unchanged: 0/0
  4661 ;; Data sizes:     COMRAM   BANK0   BANK1   BANK2   BANK3  BANK4lBANK5hhhBANK5hhl BANK5hl  BANK5l   BANK6   BANK7
  4662 ;;      Params:         0       0       0       0       0       0       0       0       0       0       0       0
  4663 ;;      Locals:         2       0       0       0       0       0       0       0       0       0       0       0
  4664 ;;      Temps:          1       0       0       0       0       0       0       0       0       0       0       0
  4665 ;;      Totals:         3       0       0       0       0       0       0       0       0       0       0       0
  4666 ;;Total ram usage:        3 bytes
  4667 ;; Hardware stack levels used:    1
  4668 ;; This function calls:
  4669 ;;		Nothing
  4670 ;; This function is called by:
  4671 ;;		_USBCheckStdRequest
  4672 ;; This function uses a non-reentrant model
  4673 ;;
  4674                           
  4675                           	psect	text26
  4676  001464                     __ptext26:
  4677                           	opt stack 0
  4678  001464                     _USBStdGetStatusHandler:
  4679                           	opt stack 26
  4680                           
  4681                           ;usb_device.c: 1827: CtrlTrfData[0] = 0;
  4682                           
  4683                           ; BSR set to: 5
  4684                           ;incstack = 0
  4685  001464  0E00               	movlw	0
  4686  001466  0105               	movlb	5	; () banked
  4687  001468  6F20               	movwf	32,b	;volatile
  4688                           
  4689                           ;usb_device.c: 1828: CtrlTrfData[1] = 0;
  4690  00146A  0E00               	movlw	0
  4691  00146C  0105               	movlb	5	; () banked
  4692  00146E  6F21               	movwf	33,b	;volatile
  4693                           
  4694                           ;usb_device.c: 1830: switch(SetupPkt.Recipient)
  4695  001470  D034               	goto	l2485
  4696  001472                     l388:
  4697                           
  4698                           ; BSR set to: 5
  4699                           ;usb_device.c: 1838: if(1 == 1)
  4700  001472  8E0C               	bsf	_inPipes+3,7,c
  4701                           
  4702                           ; BSR set to: 5
  4703                           ;usb_device.c: 1839: {
  4704                           ;usb_device.c: 1840: CtrlTrfData[0]|=0x01;
  4705  001474  0105               	movlb	5	; () banked
  4706  001476  8120               	bsf	32,0,b	;volatile
  4707                           
  4708                           ; BSR set to: 5
  4709                           ;usb_device.c: 1841: }
  4710                           ;usb_device.c: 1843: if(RemoteWakeup == TRUE)
  4711                           
  4712                           ; BSR set to: 5
  4713  001478  0431               	decf	_RemoteWakeup,w,c
  4714  00147A  A4D8               	btfss	status,2,c
  4715  00147C  D03A               	goto	l391
  4716                           
  4717                           ; BSR set to: 5
  4718                           ;usb_device.c: 1844: {
  4719                           ;usb_device.c: 1845: CtrlTrfData[0]|=0x02;
  4720  00147E  0105               	movlb	5	; () banked
  4721  001480  8320               	bsf	32,1,b	;volatile
  4722                           
  4723                           ; BSR set to: 5
  4724                           ;usb_device.c: 1846: }
  4725                           ;usb_device.c: 1847: break;
  4726  001482  D037               	goto	l391
  4727  001484                     l392:
  4728                           
  4729                           ; BSR set to: 5
  4730                           ;usb_device.c: 1849: inPipes[0].info.bits.busy = 1;
  4731  001484  8E0C               	bsf	_inPipes+3,7,c
  4732                           
  4733                           ;usb_device.c: 1850: break;
  4734  001486  D035               	goto	l391
  4735  001488                     l393:
  4736                           
  4737                           ; BSR set to: 5
  4738                           ;usb_device.c: 1852: inPipes[0].info.bits.busy = 1;
  4739  001488  8E0C               	bsf	_inPipes+3,7,c
  4740                           
  4741                           ;usb_device.c: 1856: {
  4742                           ;usb_device.c: 1857: BDT_ENTRY *p;
  4743                           ;usb_device.c: 1859: if(SetupPkt.EPDir == 0)
  4744  00148A  0105               	movlb	5	; () banked
  4745  00148C  BF04               	btfsc	4,7,b	;volatile
  4746  00148E  D00B               	goto	l2477
  4747                           
  4748                           ; BSR set to: 5
  4749                           ;usb_device.c: 1860: {
  4750                           ;usb_device.c: 1861: p = (BDT_ENTRY*)pBDTEntryOut[SetupPkt.EPNum];
  4751  001490  0105               	movlb	5	; () banked
  4752  001492  5104               	movf	4,w,b	;volatile
  4753  001494  0B0F               	andlw	15
  4754  001496  6E3A               	movwf	??_USBStdGetStatusHandler& (0+255),c
  4755  001498  503A               	movf	??_USBStdGetStatusHandler,w,c
  4756  00149A  0D02               	mullw	2
  4757  00149C  0E13               	movlw	low _pBDTEntryOut
  4758  00149E  24F3               	addwf	prodl,w,c
  4759  0014A0  6ED9               	movwf	fsr2l,c
  4760  0014A2  0E00               	movlw	high _pBDTEntryOut
  4761  0014A4  D00A               	goto	L6
  4762  0014A6                     l2477:
  4763                           
  4764                           ; BSR set to: 5
  4765                           ;usb_device.c: 1863: else
  4766                           ;usb_device.c: 1864: {
  4767                           ;usb_device.c: 1865: p = (BDT_ENTRY*)pBDTEntryIn[SetupPkt.EPNum];
  4768  0014A6  0105               	movlb	5	; () banked
  4769  0014A8  5104               	movf	4,w,b	;volatile
  4770  0014AA  0B0F               	andlw	15
  4771  0014AC  6E3A               	movwf	??_USBStdGetStatusHandler& (0+255),c
  4772  0014AE  503A               	movf	??_USBStdGetStatusHandler,w,c
  4773  0014B0  0D02               	mullw	2
  4774  0014B2  0E0F               	movlw	low _pBDTEntryIn
  4775  0014B4  24F3               	addwf	prodl,w,c
  4776  0014B6  6ED9               	movwf	fsr2l,c
  4777  0014B8  0E00               	movlw	high _pBDTEntryIn
  4778  0014BA                     L6:
  4779  0014BA  20F4               	addwfc	prodh,w,c
  4780  0014BC  6EDA               	movwf	fsr2h,c
  4781  0014BE  CFDE F03B          	movff	postinc2,USBStdGetStatusHandler@p
  4782  0014C2  CFDD F03C          	movff	postdec2,USBStdGetStatusHandler@p+1
  4783                           
  4784                           ; BSR set to: 5
  4785                           ;usb_device.c: 1866: }
  4786                           ;usb_device.c: 1868: if(p->STAT.Val & 0x04)
  4787                           
  4788                           ; BSR set to: 5
  4789  0014C6  C03B  FFD9         	movff	USBStdGetStatusHandler@p,fsr2l
  4790  0014CA  C03C  FFDA         	movff	USBStdGetStatusHandler@p+1,fsr2h
  4791  0014CE  A4DF               	btfss	indf2,2,c
  4792  0014D0  D010               	goto	l391
  4793                           
  4794                           ; BSR set to: 5
  4795                           ;usb_device.c: 1869: CtrlTrfData[0]=0x01;
  4796  0014D2  0E01               	movlw	1
  4797  0014D4  0105               	movlb	5	; () banked
  4798  0014D6  6F20               	movwf	32,b	;volatile
  4799                           
  4800                           ; BSR set to: 5
  4801                           ;usb_device.c: 1871: }
  4802                           ;usb_device.c: 1872: }
  4803                           
  4804                           ; BSR set to: 5
  4805                           ;usb_device.c: 1870: break;
  4806  0014D8  D00C               	goto	l391
  4807  0014DA                     l2485:
  4808                           
  4809                           ; BSR set to: 5
  4810  0014DA  0105               	movlb	5	; () banked
  4811  0014DC  5100               	movf	0,w,b	;volatile
  4812  0014DE  0B1F               	andlw	31
  4813                           
  4814                           ; Switch size 1, requested type "space"
  4815                           ; Number of cases is 3, Range of values is 0 to 2
  4816                           ; switch strategies available:
  4817                           ; Name         Instructions Cycles
  4818                           ; simple_byte           10     6 (average)
  4819                           ;	Chosen strategy is simple_byte
  4820  0014E0  0A00               	xorlw	0	; case 0
  4821  0014E2  B4D8               	btfsc	status,2,c
  4822  0014E4  D7C6               	goto	l388
  4823  0014E6  0A01               	xorlw	1	; case 1
  4824  0014E8  B4D8               	btfsc	status,2,c
  4825  0014EA  D7CC               	goto	l392
  4826  0014EC  0A03               	xorlw	3	; case 2
  4827  0014EE  B4D8               	btfsc	status,2,c
  4828  0014F0  D7CB               	goto	l393
  4829  0014F2                     l391:
  4830                           
  4831                           ; BSR set to: 5
  4832                           ;usb_device.c: 1874: if(inPipes[0].info.bits.busy == 1)
  4833  0014F2  AE0C               	btfss	_inPipes+3,7,c
  4834  0014F4  0012               	return	
  4835                           
  4836                           ; BSR set to: 5
  4837                           ;usb_device.c: 1875: {
  4838                           ;usb_device.c: 1876: inPipes[0].pSrc.bRam = (BYTE*)&CtrlTrfData;
  4839  0014F6  0E20               	movlw	32
  4840  0014F8  6E09               	movwf	_inPipes,c
  4841  0014FA  0E05               	movlw	5
  4842  0014FC  6E0A               	movwf	_inPipes+1,c
  4843                           
  4844                           ; BSR set to: 5
  4845                           ;usb_device.c: 1877: inPipes[0].info.bits.ctrl_trf_mem = 0x01;
  4846  0014FE  800C               	bsf	_inPipes+3,0,c
  4847                           
  4848                           ; BSR set to: 5
  4849                           ;usb_device.c: 1878: inPipes[0].wCount.v[0] = 2;
  4850  001500  0E02               	movlw	2
  4851  001502  6E0D               	movwf	_inPipes+4,c
  4852  001504  0012               	return	
  4853  001506                     __end_of_USBStdGetStatusHandler:
  4854                           	opt stack 0
  4855                           tblptru	equ	0xFF8
  4856                           tblptrh	equ	0xFF7
  4857                           tblptrl	equ	0xFF6
  4858                           tablat	equ	0xFF5
  4859                           prodh	equ	0xFF4
  4860                           prodl	equ	0xFF3
  4861                           postinc0	equ	0xFEE
  4862                           wreg	equ	0xFE8
  4863                           indf1	equ	0xFE7
  4864                           postdec1	equ	0xFE5
  4865                           fsr1h	equ	0xFE2
  4866                           fsr1l	equ	0xFE1
  4867                           indf2	equ	0xFDF
  4868                           postinc2	equ	0xFDE
  4869                           postdec2	equ	0xFDD
  4870                           fsr2h	equ	0xFDA
  4871                           fsr2l	equ	0xFD9
  4872                           status	equ	0xFD8
  4873                           
  4874 ;; *************** function _USBStdGetDscHandler *****************
  4875 ;; Defined at:
  4876 ;;		line 1763 in file "usb_device.c"
  4877 ;; Parameters:    Size  Location     Type
  4878 ;;		None
  4879 ;; Auto vars:     Size  Location     Type
  4880 ;;		None
  4881 ;; Return value:  Size  Location     Type
  4882 ;;                  1    wreg      void 
  4883 ;; Registers used:
  4884 ;;		wreg, fsr1l, fsr1h, status,2, status,0, tblptrl, tblptrh, tblptru, prodl, prodh
  4885 ;; Tracked objects:
  4886 ;;		On entry : 0/0
  4887 ;;		On exit  : 0/0
  4888 ;;		Unchanged: 0/0
  4889 ;; Data sizes:     COMRAM   BANK0   BANK1   BANK2   BANK3  BANK4lBANK5hhhBANK5hhl BANK5hl  BANK5l   BANK6   BANK7
  4890 ;;      Params:         0       0       0       0       0       0       0       0       0       0       0       0
  4891 ;;      Locals:         0       0       0       0       0       0       0       0       0       0       0       0
  4892 ;;      Temps:          2       0       0       0       0       0       0       0       0       0       0       0
  4893 ;;      Totals:         2       0       0       0       0       0       0       0       0       0       0       0
  4894 ;;Total ram usage:        2 bytes
  4895 ;; Hardware stack levels used:    1
  4896 ;; This function calls:
  4897 ;;		Nothing
  4898 ;; This function is called by:
  4899 ;;		_USBCheckStdRequest
  4900 ;; This function uses a non-reentrant model
  4901 ;;
  4902                           
  4903                           	psect	text27
  4904  0010EC                     __ptext27:
  4905                           	opt stack 0
  4906  0010EC                     _USBStdGetDscHandler:
  4907                           	opt stack 26
  4908                           
  4909                           ;usb_device.c: 1765: if(SetupPkt.bmRequestType == 0x80)
  4910                           
  4911                           ; BSR set to: 5
  4912                           ;incstack = 0
  4913  0010EC  0E80               	movlw	128
  4914  0010EE  0105               	movlb	5	; () banked
  4915  0010F0  1900               	xorwf	0,w,b	;volatile
  4916  0010F2  A4D8               	btfss	status,2,c
  4917  0010F4  0012               	return	
  4918                           
  4919                           ; BSR set to: 5
  4920                           ;usb_device.c: 1766: {
  4921                           ;usb_device.c: 1767: inPipes[0].info.Val = 0x00 | 0x80 | 0x40;
  4922  0010F6  0EC0               	movlw	192
  4923  0010F8  6E0C               	movwf	_inPipes+3,c
  4924                           
  4925                           ;usb_device.c: 1769: switch(SetupPkt.bDescriptorType)
  4926  0010FA  D064               	goto	l2451
  4927  0010FC                     l2431:
  4928                           
  4929                           ; BSR set to: 5
  4930                           ;usb_device.c: 1775: inPipes[0].pSrc.bRom = (const BYTE*)&device_dsc;
  4931  0010FC  0EAD               	movlw	low _device_dsc
  4932  0010FE  6E09               	movwf	_inPipes,c
  4933  001100  0E08               	movlw	high _device_dsc
  4934  001102  6E0A               	movwf	_inPipes+1,c
  4935                           
  4936                           ; BSR set to: 5
  4937                           ;usb_device.c: 1777: inPipes[0].wCount.Val = sizeof(device_dsc);
  4938  001104  0E00               	movlw	0
  4939  001106  6E0E               	movwf	_inPipes+5,c
  4940  001108  0E12               	movlw	18
  4941  00110A  6E0D               	movwf	_inPipes+4,c
  4942                           
  4943                           ;usb_device.c: 1778: break;
  4944  00110C  0012               	return	
  4945  00110E                     l2435:
  4946                           
  4947                           ; BSR set to: 5
  4948                           ;usb_device.c: 1783: inPipes[0].pSrc.bRom = *(USB_CD_Ptr+SetupPkt.bDscIndex);
  4949  00110E  0105               	movlb	5	; () banked
  4950  001110  5102               	movf	2,w,b	;volatile
  4951  001112  0D02               	mullw	2
  4952  001114  0E07               	movlw	low _USB_CD_Ptr
  4953  001116  24F3               	addwf	prodl,w,c
  4954  001118  6EF6               	movwf	tblptrl,c
  4955  00111A  0E08               	movlw	high _USB_CD_Ptr
  4956  00111C  20F4               	addwfc	prodh,w,c
  4957  00111E  6EF7               	movwf	tblptrh,c
  4958  001120                     	if	0	;There are less than 3 active tblptr bytes
  4959  001120                     	endif
  4960  001120  0009               	tblrd		*+
  4961  001122  CFF5 F009          	movff	tablat,_inPipes
  4962  001126  000A               	tblrd		*-
  4963  001128  CFF5 F00A          	movff	tablat,_inPipes+1
  4964                           
  4965                           ; BSR set to: 5
  4966                           ;usb_device.c: 1785: inPipes[0].wCount.Val = *(inPipes[0].pSrc.wRom+1);
  4967  00112C  0E02               	movlw	2
  4968  00112E  2409               	addwf	_inPipes,w,c
  4969  001130  6E3A               	movwf	??_USBStdGetDscHandler& (0+255),c
  4970  001132  0E00               	movlw	0
  4971  001134  200A               	addwfc	_inPipes+1,w,c
  4972  001136  6E3B               	movwf	(??_USBStdGetDscHandler+1)& (0+255),c
  4973  001138  C03A  FFF6         	movff	??_USBStdGetDscHandler,tblptrl
  4974  00113C  C03B  FFF7         	movff	??_USBStdGetDscHandler+1,tblptrh
  4975  001140  6AF8               	clrf	tblptru,c
  4976  001142  0E07               	movlw	(high __ramtop+-1)
  4977  001144  64F7               	cpfsgt	tblptrh,c
  4978  001146  D007               	bra	u1567
  4979  001148  0009               	tblrd		*+
  4980  00114A  CFF5 F00D          	movff	tablat,_inPipes+4
  4981  00114E  0009               	tblrd		*+
  4982  001150  CFF5 F00E          	movff	tablat,_inPipes+5
  4983  001154  D008               	bra	u1560
  4984  001156                     u1567:
  4985  001156  CFF6 FFE1          	movff	tblptrl,fsr1l
  4986  00115A  CFF7 FFE2          	movff	tblptrh,fsr1h
  4987  00115E  CFE6 F00D          	movff	postinc1,_inPipes+4
  4988  001162  CFE6 F00E          	movff	postinc1,_inPipes+5
  4989  001166                     u1560:
  4990                           
  4991                           ;usb_device.c: 1786: break;
  4992  001166  0012               	return	
  4993  001168                     l2439:
  4994                           
  4995                           ;usb_device.c: 1791: if(SetupPkt.bDscIndex<3)
  4996  001168  0E03               	movlw	3
  4997  00116A  0105               	movlb	5	; () banked
  4998  00116C  6102               	cpfslt	2,b	;volatile
  4999  00116E  D024               	goto	l2445
  5000                           
  5001                           ; BSR set to: 5
  5002                           ;usb_device.c: 1792: {
  5003                           ;usb_device.c: 1794: inPipes[0].pSrc.bRom = *(USB_SD_Ptr+SetupPkt.bDscIndex);
  5004  001170  0105               	movlb	5	; () banked
  5005  001172  5102               	movf	2,w,b	;volatile
  5006  001174  0D02               	mullw	2
  5007  001176  0E01               	movlw	low _USB_SD_Ptr
  5008  001178  24F3               	addwf	prodl,w,c
  5009  00117A  6EF6               	movwf	tblptrl,c
  5010  00117C  0E08               	movlw	high _USB_SD_Ptr
  5011  00117E  20F4               	addwfc	prodh,w,c
  5012  001180  6EF7               	movwf	tblptrh,c
  5013  001182                     	if	0	;There are less than 3 active tblptr bytes
  5014  001182                     	endif
  5015  001182  0009               	tblrd		*+
  5016  001184  CFF5 F009          	movff	tablat,_inPipes
  5017  001188  000A               	tblrd		*-
  5018  00118A  CFF5 F00A          	movff	tablat,_inPipes+1
  5019                           
  5020                           ; BSR set to: 5
  5021                           ;usb_device.c: 1796: inPipes[0].wCount.Val = *inPipes[0].pSrc.bRom;
  5022  00118E  C009  FFF6         	movff	_inPipes,tblptrl
  5023  001192  C00A  FFF7         	movff	_inPipes+1,tblptrh
  5024  001196  6AF8               	clrf	tblptru,c
  5025  001198  0E07               	movlw	(high __ramtop+-1)
  5026  00119A  64F7               	cpfsgt	tblptrh,c
  5027  00119C  D003               	bra	u1587
  5028  00119E  0008               	tblrd		*
  5029  0011A0  50F5               	movf	tablat,w,c
  5030  0011A2  D005               	bra	u1580
  5031  0011A4                     u1587:
  5032  0011A4  CFF6 FFE1          	movff	tblptrl,fsr1l
  5033  0011A8  CFF7 FFE2          	movff	tblptrh,fsr1h
  5034  0011AC  50E7               	movf	indf1,w,c
  5035  0011AE                     u1580:
  5036  0011AE  6E3A               	movwf	??_USBStdGetDscHandler& (0+255),c
  5037  0011B0  503A               	movf	??_USBStdGetDscHandler,w,c
  5038  0011B2  6E0D               	movwf	_inPipes+4,c
  5039  0011B4  6A0E               	clrf	_inPipes+5,c
  5040                           
  5041                           ;usb_device.c: 1797: }
  5042  0011B6  0012               	return	
  5043  0011B8                     l2445:
  5044                           
  5045                           ;usb_device.c: 1798: else
  5046                           ;usb_device.c: 1799: {
  5047                           ;usb_device.c: 1800: inPipes[0].info.Val = 0;
  5048  0011B8  0E00               	movlw	0
  5049  0011BA  6E0C               	movwf	_inPipes+3,c
  5050                           
  5051                           ;usb_device.c: 1801: }
  5052                           ;usb_device.c: 1802: break;
  5053  0011BC  0012               	return	
  5054  0011BE                     l2447:
  5055                           
  5056                           ;usb_device.c: 1804: inPipes[0].info.Val = 0;
  5057  0011BE  0E00               	movlw	0
  5058  0011C0  6E0C               	movwf	_inPipes+3,c
  5059                           
  5060                           ;usb_device.c: 1806: }
  5061                           
  5062                           ;usb_device.c: 1805: break;
  5063  0011C2  0012               	return	
  5064  0011C4                     l2451:
  5065  0011C4  0105               	movlb	5	; () banked
  5066  0011C6  5103               	movf	3,w,b	;volatile
  5067                           
  5068                           ; Switch size 1, requested type "space"
  5069                           ; Number of cases is 3, Range of values is 1 to 3
  5070                           ; switch strategies available:
  5071                           ; Name         Instructions Cycles
  5072                           ; simple_byte           10     6 (average)
  5073                           ;	Chosen strategy is simple_byte
  5074  0011C8  0A01               	xorlw	1	; case 1
  5075  0011CA  B4D8               	btfsc	status,2,c
  5076  0011CC  D797               	goto	l2431
  5077  0011CE  0A03               	xorlw	3	; case 2
  5078  0011D0  B4D8               	btfsc	status,2,c
  5079  0011D2  D79D               	goto	l2435
  5080  0011D4  0A01               	xorlw	1	; case 3
  5081  0011D6  B4D8               	btfsc	status,2,c
  5082  0011D8  D7C7               	goto	l2439
  5083  0011DA  D7F1               	goto	l2447
  5084  0011DC                     __end_of_USBStdGetDscHandler:
  5085                           	opt stack 0
  5086                           tblptru	equ	0xFF8
  5087                           tblptrh	equ	0xFF7
  5088                           tblptrl	equ	0xFF6
  5089                           tablat	equ	0xFF5
  5090                           prodh	equ	0xFF4
  5091                           prodl	equ	0xFF3
  5092                           postinc0	equ	0xFEE
  5093                           wreg	equ	0xFE8
  5094                           indf1	equ	0xFE7
  5095                           postinc1	equ	0xFE6
  5096                           postdec1	equ	0xFE5
  5097                           fsr1h	equ	0xFE2
  5098                           fsr1l	equ	0xFE1
  5099                           indf2	equ	0xFDF
  5100                           postinc2	equ	0xFDE
  5101                           postdec2	equ	0xFDD
  5102                           fsr2h	equ	0xFDA
  5103                           fsr2l	equ	0xFD9
  5104                           status	equ	0xFD8
  5105                           
  5106 ;; *************** function _USBStdFeatureReqHandler *****************
  5107 ;; Defined at:
  5108 ;;		line 1624 in file "usb_device.c"
  5109 ;; Parameters:    Size  Location     Type
  5110 ;;		None
  5111 ;; Auto vars:     Size  Location     Type
  5112 ;;  p               2    3[COMRAM] PTR struct __BDT
  5113 ;;		 -> BDT(32), 
  5114 ;;  pUEP            2    1[COMRAM] PTR unsigned int 
  5115 ;;		 -> UEP0(1), 
  5116 ;; Return value:  Size  Location     Type
  5117 ;;                  1    wreg      void 
  5118 ;; Registers used:
  5119 ;;		wreg, fsr2l, fsr2h, status,2, status,0, prodl, prodh
  5120 ;; Tracked objects:
  5121 ;;		On entry : 0/0
  5122 ;;		On exit  : 0/0
  5123 ;;		Unchanged: 0/0
  5124 ;; Data sizes:     COMRAM   BANK0   BANK1   BANK2   BANK3  BANK4lBANK5hhhBANK5hhl BANK5hl  BANK5l   BANK6   BANK7
  5125 ;;      Params:         0       0       0       0       0       0       0       0       0       0       0       0
  5126 ;;      Locals:         4       0       0       0       0       0       0       0       0       0       0       0
  5127 ;;      Temps:          1       0       0       0       0       0       0       0       0       0       0       0
  5128 ;;      Totals:         5       0       0       0       0       0       0       0       0       0       0       0
  5129 ;;Total ram usage:        5 bytes
  5130 ;; Hardware stack levels used:    1
  5131 ;; This function calls:
  5132 ;;		Nothing
  5133 ;; This function is called by:
  5134 ;;		_USBCheckStdRequest
  5135 ;; This function uses a non-reentrant model
  5136 ;;
  5137                           
  5138                           	psect	text28
  5139  000EF0                     __ptext28:
  5140                           	opt stack 0
  5141  000EF0                     _USBStdFeatureReqHandler:
  5142                           	opt stack 26
  5143                           
  5144                           ;usb_device.c: 1626: BDT_ENTRY *p;
  5145                           ;usb_device.c: 1630: unsigned int* pUEP;
  5146                           ;usb_device.c: 1664: if((SetupPkt.bFeature == 1)&&
  5147                           ;usb_device.c: 1665: (SetupPkt.Recipient == (0x00)))
  5148                           
  5149                           ;incstack = 0
  5150  000EF0  0105               	movlb	5	; () banked
  5151  000EF2  0502               	decf	2,w,b	;volatile
  5152  000EF4  A4D8               	btfss	status,2,c
  5153  000EF6  D010               	goto	l362
  5154                           
  5155                           ; BSR set to: 5
  5156  000EF8  0105               	movlb	5	; () banked
  5157  000EFA  5100               	movf	0,w,b	;volatile
  5158  000EFC  0B1F               	andlw	31
  5159  000EFE  0900               	iorlw	0
  5160  000F00  A4D8               	btfss	status,2,c
  5161  000F02  D00A               	goto	l362
  5162                           
  5163                           ; BSR set to: 5
  5164                           ;usb_device.c: 1666: {
  5165                           ;usb_device.c: 1667: inPipes[0].info.bits.busy = 1;
  5166  000F04  8E0C               	bsf	_inPipes+3,7,c
  5167                           
  5168                           ; BSR set to: 5
  5169                           ;usb_device.c: 1668: if(SetupPkt.bRequest == 3)
  5170  000F06  0E03               	movlw	3
  5171  000F08  0105               	movlb	5	; () banked
  5172  000F0A  1901               	xorwf	1,w,b	;volatile
  5173  000F0C  A4D8               	btfss	status,2,c
  5174  000F0E  D002               	goto	l2503
  5175                           
  5176                           ; BSR set to: 5
  5177                           ;usb_device.c: 1669: RemoteWakeup = TRUE;
  5178  000F10  0E01               	movlw	1
  5179  000F12  D001               	goto	L7
  5180  000F14                     l2503:
  5181                           
  5182                           ; BSR set to: 5
  5183                           ;usb_device.c: 1670: else
  5184                           ;usb_device.c: 1671: RemoteWakeup = FALSE;
  5185  000F14  0E00               	movlw	0
  5186  000F16                     L7:
  5187  000F16  6E31               	movwf	_RemoteWakeup,c
  5188  000F18                     l362:
  5189                           
  5190                           ; BSR set to: 5
  5191                           ;usb_device.c: 1672: }
  5192                           ;usb_device.c: 1674: if((SetupPkt.bFeature == 0)&&
  5193                           ;usb_device.c: 1675: (SetupPkt.Recipient == (0x02))&&
  5194                           ;usb_device.c: 1676: (SetupPkt.EPNum != 0))
  5195  000F18  0105               	movlb	5	; () banked
  5196  000F1A  5102               	movf	2,w,b	;volatile
  5197  000F1C  A4D8               	btfss	status,2,c
  5198  000F1E  0012               	return	
  5199                           
  5200                           ; BSR set to: 5
  5201  000F20  0105               	movlb	5	; () banked
  5202  000F22  5100               	movf	0,w,b	;volatile
  5203  000F24  0B1F               	andlw	31
  5204  000F26  0A02               	xorlw	2
  5205  000F28  A4D8               	btfss	status,2,c
  5206  000F2A  0012               	return	
  5207                           
  5208                           ; BSR set to: 5
  5209  000F2C  0105               	movlb	5	; () banked
  5210  000F2E  5104               	movf	4,w,b	;volatile
  5211  000F30  0B0F               	andlw	15
  5212  000F32  0900               	iorlw	0
  5213  000F34  B4D8               	btfsc	status,2,c
  5214  000F36  0012               	return	
  5215                           
  5216                           ; BSR set to: 5
  5217                           ;usb_device.c: 1677: {
  5218                           ;usb_device.c: 1678: inPipes[0].info.bits.busy = 1;
  5219  000F38  8E0C               	bsf	_inPipes+3,7,c
  5220                           
  5221                           ;usb_device.c: 1681: if(SetupPkt.EPDir == 0)
  5222  000F3A  0105               	movlb	5	; () banked
  5223  000F3C  BF04               	btfsc	4,7,b	;volatile
  5224  000F3E  D00B               	goto	l2513
  5225                           
  5226                           ; BSR set to: 5
  5227                           ;usb_device.c: 1682: {
  5228                           ;usb_device.c: 1683: p = (BDT_ENTRY*)pBDTEntryOut[SetupPkt.EPNum];
  5229  000F40  0105               	movlb	5	; () banked
  5230  000F42  5104               	movf	4,w,b	;volatile
  5231  000F44  0B0F               	andlw	15
  5232  000F46  6E3A               	movwf	??_USBStdFeatureReqHandler& (0+255),c
  5233  000F48  503A               	movf	??_USBStdFeatureReqHandler,w,c
  5234  000F4A  0D02               	mullw	2
  5235  000F4C  0E13               	movlw	low _pBDTEntryOut
  5236  000F4E  24F3               	addwf	prodl,w,c
  5237  000F50  6ED9               	movwf	fsr2l,c
  5238  000F52  0E00               	movlw	high _pBDTEntryOut
  5239  000F54  D00A               	goto	L8
  5240  000F56                     l2513:
  5241                           
  5242                           ; BSR set to: 5
  5243                           ;usb_device.c: 1685: else
  5244                           ;usb_device.c: 1686: {
  5245                           ;usb_device.c: 1687: p = (BDT_ENTRY*)pBDTEntryIn[SetupPkt.EPNum];
  5246  000F56  0105               	movlb	5	; () banked
  5247  000F58  5104               	movf	4,w,b	;volatile
  5248  000F5A  0B0F               	andlw	15
  5249  000F5C  6E3A               	movwf	??_USBStdFeatureReqHandler& (0+255),c
  5250  000F5E  503A               	movf	??_USBStdFeatureReqHandler,w,c
  5251  000F60  0D02               	mullw	2
  5252  000F62  0E0F               	movlw	low _pBDTEntryIn
  5253  000F64  24F3               	addwf	prodl,w,c
  5254  000F66  6ED9               	movwf	fsr2l,c
  5255  000F68  0E00               	movlw	high _pBDTEntryIn
  5256  000F6A                     L8:
  5257  000F6A  20F4               	addwfc	prodh,w,c
  5258  000F6C  6EDA               	movwf	fsr2h,c
  5259  000F6E  CFDE F03D          	movff	postinc2,USBStdFeatureReqHandler@p
  5260  000F72  CFDD F03E          	movff	postdec2,USBStdFeatureReqHandler@p+1
  5261                           
  5262                           ; BSR set to: 5
  5263                           ;usb_device.c: 1688: }
  5264                           ;usb_device.c: 1691: if(SetupPkt.bRequest == 3)
  5265                           
  5266                           ; BSR set to: 5
  5267  000F76  0E03               	movlw	3
  5268  000F78  0105               	movlb	5	; () banked
  5269  000F7A  1901               	xorwf	1,w,b	;volatile
  5270  000F7C  A4D8               	btfss	status,2,c
  5271  000F7E  D007               	goto	l2519
  5272                           
  5273                           ; BSR set to: 5
  5274                           ;usb_device.c: 1692: {
  5275                           ;usb_device.c: 1694: p->STAT.Val = 0x80|0x04;
  5276  000F80  C03D  FFD9         	movff	USBStdFeatureReqHandler@p,fsr2l
  5277  000F84  C03E  FFDA         	movff	USBStdFeatureReqHandler@p+1,fsr2h
  5278  000F88  0E84               	movlw	132
  5279  000F8A  6EDF               	movwf	indf2,c
  5280                           
  5281                           ;usb_device.c: 1695: }
  5282  000F8C  0012               	return	
  5283  000F8E                     l2519:
  5284                           
  5285                           ; BSR set to: 5
  5286                           ;usb_device.c: 1696: else
  5287                           ;usb_device.c: 1697: {
  5288                           ;usb_device.c: 1704: pUEP = (unsigned int*)(&UEP0+SetupPkt.EPNum);
  5289  000F8E  0105               	movlb	5	; () banked
  5290  000F90  5104               	movf	4,w,b	;volatile
  5291  000F92  0B0F               	andlw	15
  5292  000F94  6E3A               	movwf	??_USBStdFeatureReqHandler& (0+255),c
  5293  000F96  503A               	movf	??_USBStdFeatureReqHandler,w,c
  5294  000F98  0D01               	mullw	1
  5295  000F9A  0E70               	movlw	112
  5296  000F9C  24F3               	addwf	prodl,w,c
  5297  000F9E  6E3B               	movwf	USBStdFeatureReqHandler@pUEP,c
  5298  000FA0  0E0F               	movlw	15
  5299  000FA2  20F4               	addwfc	prodh,w,c
  5300  000FA4  6E3C               	movwf	USBStdFeatureReqHandler@pUEP+1,c
  5301                           
  5302                           ; BSR set to: 5
  5303                           ;usb_device.c: 1708: *pUEP &= ~0x0001;
  5304  000FA6  C03B  FFD9         	movff	USBStdFeatureReqHandler@pUEP,fsr2l
  5305  000FAA  C03C  FFDA         	movff	USBStdFeatureReqHandler@pUEP+1,fsr2h
  5306  000FAE  0EFE               	movlw	254
  5307  000FB0  16DE               	andwf	postinc2,f,c
  5308  000FB2  0EFF               	movlw	255
  5309  000FB4  16DD               	andwf	postdec2,f,c
  5310                           
  5311                           ; BSR set to: 5
  5312                           ;usb_device.c: 1710: if(SetupPkt.EPDir == 1)
  5313  000FB6  0105               	movlb	5	; () banked
  5314  000FB8  AF04               	btfss	4,7,b	;volatile
  5315  000FBA  D00F               	goto	l2531
  5316                           
  5317                           ; BSR set to: 5
  5318                           ;usb_device.c: 1711: {
  5319                           ;usb_device.c: 1716: p->STAT.Val = 0x00|0x00;
  5320  000FBC  C03D  FFD9         	movff	USBStdFeatureReqHandler@p,fsr2l
  5321  000FC0  C03E  FFDA         	movff	USBStdFeatureReqHandler@p+1,fsr2h
  5322  000FC4  0E00               	movlw	0
  5323  000FC6  6EDF               	movwf	indf2,c
  5324                           
  5325                           ; BSR set to: 5
  5326                           ;usb_device.c: 1718: ((BYTE_VAL*)&p)->Val ^= 0x0004;
  5327  000FC8  0E04               	movlw	4
  5328  000FCA  1A3D               	xorwf	USBStdFeatureReqHandler@p,f,c
  5329                           
  5330                           ; BSR set to: 5
  5331                           ;usb_device.c: 1719: p->STAT.Val = 0x00|0x40;
  5332  000FCC  C03D  FFD9         	movff	USBStdFeatureReqHandler@p,fsr2l
  5333  000FD0  C03E  FFDA         	movff	USBStdFeatureReqHandler@p+1,fsr2h
  5334  000FD4  0E40               	movlw	64
  5335  000FD6  6EDF               	movwf	indf2,c
  5336                           
  5337                           ;usb_device.c: 1723: }
  5338  000FD8  0012               	return	
  5339  000FDA                     l2531:
  5340                           
  5341                           ; BSR set to: 5
  5342                           ;usb_device.c: 1724: else
  5343                           ;usb_device.c: 1725: {
  5344                           ;usb_device.c: 1733: p->STAT.Val = 0x80|0x00|0x08;
  5345  000FDA  C03D  FFD9         	movff	USBStdFeatureReqHandler@p,fsr2l
  5346  000FDE  C03E  FFDA         	movff	USBStdFeatureReqHandler@p+1,fsr2h
  5347  000FE2  0E88               	movlw	136
  5348  000FE4  6EDF               	movwf	indf2,c
  5349                           
  5350                           ; BSR set to: 5
  5351                           ;usb_device.c: 1735: ((BYTE_VAL*)&p)->Val ^= 0x0004;
  5352  000FE6  0E04               	movlw	4
  5353  000FE8  1A3D               	xorwf	USBStdFeatureReqHandler@p,f,c
  5354                           
  5355                           ; BSR set to: 5
  5356                           ;usb_device.c: 1736: p->STAT.Val = 0x80|0x40|0x08;
  5357  000FEA  C03D  FFD9         	movff	USBStdFeatureReqHandler@p,fsr2l
  5358  000FEE  C03E  FFDA         	movff	USBStdFeatureReqHandler@p+1,fsr2h
  5359  000FF2  0EC8               	movlw	200
  5360  000FF4  6EDF               	movwf	indf2,c
  5361                           
  5362                           ; BSR set to: 5
  5363                           
  5364                           ; BSR set to: 5
  5365  000FF6  0012               	return	
  5366  000FF8                     __end_of_USBStdFeatureReqHandler:
  5367                           	opt stack 0
  5368                           tblptru	equ	0xFF8
  5369                           tblptrh	equ	0xFF7
  5370                           tblptrl	equ	0xFF6
  5371                           tablat	equ	0xFF5
  5372                           prodh	equ	0xFF4
  5373                           prodl	equ	0xFF3
  5374                           postinc0	equ	0xFEE
  5375                           wreg	equ	0xFE8
  5376                           indf1	equ	0xFE7
  5377                           postinc1	equ	0xFE6
  5378                           postdec1	equ	0xFE5
  5379                           fsr1h	equ	0xFE2
  5380                           fsr1l	equ	0xFE1
  5381                           indf2	equ	0xFDF
  5382                           postinc2	equ	0xFDE
  5383                           postdec2	equ	0xFDD
  5384                           fsr2h	equ	0xFDA
  5385                           fsr2l	equ	0xFD9
  5386                           status	equ	0xFD8
  5387                           
  5388 ;; *************** function _USBCtrlTrfOutHandler *****************
  5389 ;; Defined at:
  5390 ;;		line 1391 in file "usb_device.c"
  5391 ;; Parameters:    Size  Location     Type
  5392 ;;		None
  5393 ;; Auto vars:     Size  Location     Type
  5394 ;;		None
  5395 ;; Return value:  Size  Location     Type
  5396 ;;                  1    wreg      void 
  5397 ;; Registers used:
  5398 ;;		wreg, fsr1l, fsr1h, fsr2l, fsr2h, status,2, status,0, prodl, prodh, cstack
  5399 ;; Tracked objects:
  5400 ;;		On entry : 0/0
  5401 ;;		On exit  : 0/0
  5402 ;;		Unchanged: 0/0
  5403 ;; Data sizes:     COMRAM   BANK0   BANK1   BANK2   BANK3  BANK4lBANK5hhhBANK5hhl BANK5hl  BANK5l   BANK6   BANK7
  5404 ;;      Params:         0       0       0       0       0       0       0       0       0       0       0       0
  5405 ;;      Locals:         0       0       0       0       0       0       0       0       0       0       0       0
  5406 ;;      Temps:          0       0       0       0       0       0       0       0       0       0       0       0
  5407 ;;      Totals:         0       0       0       0       0       0       0       0       0       0       0       0
  5408 ;;Total ram usage:        0 bytes
  5409 ;; Hardware stack levels used:    1
  5410 ;; Hardware stack levels required when called:    1
  5411 ;; This function calls:
  5412 ;;		_USBCtrlTrfRxService
  5413 ;;		_USBPrepareForNextSetupTrf
  5414 ;; This function is called by:
  5415 ;;		_USBCtrlEPService
  5416 ;; This function uses a non-reentrant model
  5417 ;;
  5418                           
  5419                           	psect	text29
  5420  0019CC                     __ptext29:
  5421                           	opt stack 0
  5422  0019CC                     _USBCtrlTrfOutHandler:
  5423                           	opt stack 27
  5424                           
  5425                           ;usb_device.c: 1393: if(controlTransferState == 2)
  5426                           
  5427                           ; BSR set to: 5
  5428                           ;incstack = 0
  5429  0019CC  0E02               	movlw	2
  5430  0019CE  1833               	xorwf	_controlTransferState,w,c
  5431  0019D0  A4D8               	btfss	status,2,c
  5432  0019D2  D003               	goto	l2707
  5433                           
  5434                           ;usb_device.c: 1394: {
  5435                           ;usb_device.c: 1395: USBCtrlTrfRxService();
  5436  0019D4  ECFC  F007         	call	_USBCtrlTrfRxService	;wreg free
  5437                           
  5438                           ;usb_device.c: 1396: }
  5439  0019D8  0012               	return	
  5440  0019DA                     l2707:
  5441                           
  5442                           ;usb_device.c: 1397: else
  5443                           ;usb_device.c: 1398: {
  5444                           ;usb_device.c: 1404: USBPrepareForNextSetupTrf();
  5445  0019DA  EC47  F00D         	call	_USBPrepareForNextSetupTrf	;wreg free
  5446                           
  5447                           ;usb_device.c: 1405: if(BothEP0OutUOWNsSet == FALSE)
  5448  0019DE  5030               	movf	_BothEP0OutUOWNsSet,w,c
  5449  0019E0  A4D8               	btfss	status,2,c
  5450  0019E2  D019               	goto	l2715
  5451                           
  5452                           ;usb_device.c: 1406: {
  5453                           ;usb_device.c: 1407: pBDTEntryEP0OutNext->CNT = 8;
  5454  0019E4  EE20 F001          	lfsr	2,1
  5455  0019E8  502A               	movf	_pBDTEntryEP0OutNext,w,c
  5456  0019EA  26D9               	addwf	fsr2l,f,c
  5457  0019EC  502B               	movf	_pBDTEntryEP0OutNext+1,w,c
  5458  0019EE  22DA               	addwfc	fsr2h,f,c
  5459  0019F0  0E08               	movlw	8
  5460  0019F2  6EDF               	movwf	indf2,c
  5461                           
  5462                           ;usb_device.c: 1408: pBDTEntryEP0OutNext->ADR = (BYTE*)&SetupPkt;
  5463  0019F4  EE20 F002          	lfsr	2,2
  5464  0019F8  502A               	movf	_pBDTEntryEP0OutNext,w,c
  5465  0019FA  26D9               	addwf	fsr2l,f,c
  5466  0019FC  502B               	movf	_pBDTEntryEP0OutNext+1,w,c
  5467  0019FE  22DA               	addwfc	fsr2h,f,c
  5468  001A00  0E00               	movlw	0
  5469  001A02  6EDE               	movwf	postinc2,c
  5470  001A04  0E05               	movlw	5
  5471  001A06  6EDD               	movwf	postdec2,c
  5472                           
  5473                           ;usb_device.c: 1409: pBDTEntryEP0OutNext->STAT.Val = 0x80|0x00|0x08|0x04;
  5474  001A08  C02A  FFD9         	movff	_pBDTEntryEP0OutNext,fsr2l
  5475  001A0C  C02B  FFDA         	movff	_pBDTEntryEP0OutNext+1,fsr2h
  5476  001A10  0E8C               	movlw	140
  5477  001A12  6EDF               	movwf	indf2,c
  5478                           
  5479                           ;usb_device.c: 1410: }
  5480  001A14  0012               	return	
  5481  001A16                     l2715:
  5482                           
  5483                           ;usb_device.c: 1411: else
  5484                           ;usb_device.c: 1412: {
  5485                           ;usb_device.c: 1413: BothEP0OutUOWNsSet = FALSE;
  5486  001A16  0E00               	movlw	0
  5487  001A18  6E30               	movwf	_BothEP0OutUOWNsSet,c
  5488  001A1A  0012               	return	
  5489  001A1C                     __end_of_USBCtrlTrfOutHandler:
  5490                           	opt stack 0
  5491                           tblptru	equ	0xFF8
  5492                           tblptrh	equ	0xFF7
  5493                           tblptrl	equ	0xFF6
  5494                           tablat	equ	0xFF5
  5495                           prodh	equ	0xFF4
  5496                           prodl	equ	0xFF3
  5497                           postinc0	equ	0xFEE
  5498                           wreg	equ	0xFE8
  5499                           indf1	equ	0xFE7
  5500                           postinc1	equ	0xFE6
  5501                           postdec1	equ	0xFE5
  5502                           fsr1h	equ	0xFE2
  5503                           fsr1l	equ	0xFE1
  5504                           indf2	equ	0xFDF
  5505                           postinc2	equ	0xFDE
  5506                           postdec2	equ	0xFDD
  5507                           fsr2h	equ	0xFDA
  5508                           fsr2l	equ	0xFD9
  5509                           status	equ	0xFD8
  5510                           
  5511 ;; *************** function _USBCtrlTrfRxService *****************
  5512 ;; Defined at:
  5513 ;;		line 2152 in file "usb_device.c"
  5514 ;; Parameters:    Size  Location     Type
  5515 ;;		None
  5516 ;; Auto vars:     Size  Location     Type
  5517 ;;  byteToRead      1    3[COMRAM] unsigned char 
  5518 ;;  i               1    2[COMRAM] unsigned char 
  5519 ;; Return value:  Size  Location     Type
  5520 ;;                  1    wreg      void 
  5521 ;; Registers used:
  5522 ;;		wreg, fsr1l, fsr1h, fsr2l, fsr2h, status,2, status,0, prodl, prodh
  5523 ;; Tracked objects:
  5524 ;;		On entry : 0/0
  5525 ;;		On exit  : 0/0
  5526 ;;		Unchanged: 0/0
  5527 ;; Data sizes:     COMRAM   BANK0   BANK1   BANK2   BANK3  BANK4lBANK5hhhBANK5hhl BANK5hl  BANK5l   BANK6   BANK7
  5528 ;;      Params:         0       0       0       0       0       0       0       0       0       0       0       0
  5529 ;;      Locals:         2       0       0       0       0       0       0       0       0       0       0       0
  5530 ;;      Temps:          2       0       0       0       0       0       0       0       0       0       0       0
  5531 ;;      Totals:         4       0       0       0       0       0       0       0       0       0       0       0
  5532 ;;Total ram usage:        4 bytes
  5533 ;; Hardware stack levels used:    1
  5534 ;; This function calls:
  5535 ;;		Nothing
  5536 ;; This function is called by:
  5537 ;;		_USBCtrlTrfOutHandler
  5538 ;; This function uses a non-reentrant model
  5539 ;;
  5540                           
  5541                           	psect	text30
  5542  000FF8                     __ptext30:
  5543                           	opt stack 0
  5544  000FF8                     _USBCtrlTrfRxService:
  5545                           	opt stack 27
  5546                           
  5547                           ;usb_device.c: 2154: BYTE byteToRead;
  5548                           ;usb_device.c: 2155: BYTE i;
  5549                           ;usb_device.c: 2157: byteToRead = pBDTEntryEP0OutCurrent->CNT;
  5550                           
  5551                           ;incstack = 0
  5552  000FF8  EE20 F001          	lfsr	2,1
  5553  000FFC  5028               	movf	_pBDTEntryEP0OutCurrent,w,c
  5554  000FFE  26D9               	addwf	fsr2l,f,c
  5555  001000  5029               	movf	_pBDTEntryEP0OutCurrent+1,w,c
  5556  001002  22DA               	addwfc	fsr2h,f,c
  5557  001004  50DF               	movf	indf2,w,c
  5558  001006  6E3D               	movwf	USBCtrlTrfRxService@byteToRead,c
  5559                           
  5560                           ;usb_device.c: 2162: if(byteToRead > outPipes[0].wCount.Val)
  5561  001008  503D               	movf	USBCtrlTrfRxService@byteToRead,w,c
  5562  00100A  5C05               	subwf	_outPipes+4,w,c
  5563  00100C  0E00               	movlw	0
  5564  00100E  5806               	subwfb	_outPipes+5,w,c
  5565  001010  B0D8               	btfsc	status,0,c
  5566  001012  D003               	goto	l2645
  5567                           
  5568                           ;usb_device.c: 2163: {
  5569                           ;usb_device.c: 2164: byteToRead = outPipes[0].wCount.Val;
  5570  001014  C005  F03D         	movff	_outPipes+4,USBCtrlTrfRxService@byteToRead
  5571                           
  5572                           ;usb_device.c: 2165: }
  5573  001018  D00D               	goto	l2647
  5574  00101A                     l2645:
  5575                           
  5576                           ;usb_device.c: 2166: else
  5577                           ;usb_device.c: 2167: {
  5578                           ;usb_device.c: 2168: outPipes[0].wCount.Val = outPipes[0].wCount.Val - byteToRead;
  5579  00101A  503D               	movf	USBCtrlTrfRxService@byteToRead,w,c
  5580  00101C  6E3A               	movwf	??_USBCtrlTrfRxService& (0+255),c
  5581  00101E  6A3B               	clrf	(??_USBCtrlTrfRxService+1)& (0+255),c
  5582  001020  1E3A               	comf	??_USBCtrlTrfRxService,f,c
  5583  001022  1E3B               	comf	??_USBCtrlTrfRxService+1,f,c
  5584  001024  4A3A               	infsnz	??_USBCtrlTrfRxService,f,c
  5585  001026  2A3B               	incf	??_USBCtrlTrfRxService+1,f,c
  5586  001028  5005               	movf	_outPipes+4,w,c
  5587  00102A  243A               	addwf	??_USBCtrlTrfRxService,w,c
  5588  00102C  6E05               	movwf	_outPipes+4,c
  5589  00102E  5006               	movf	_outPipes+5,w,c
  5590  001030  203B               	addwfc	??_USBCtrlTrfRxService+1,w,c
  5591  001032  6E06               	movwf	_outPipes+5,c
  5592  001034                     l2647:
  5593                           
  5594                           ;usb_device.c: 2169: }
  5595                           ;usb_device.c: 2171: for(i=0;i<byteToRead;i++)
  5596  001034  0E00               	movlw	0
  5597  001036  6E3C               	movwf	USBCtrlTrfRxService@i,c
  5598  001038  D011               	goto	l2655
  5599  00103A                     l2649:
  5600                           
  5601                           ;usb_device.c: 2172: {
  5602                           ;usb_device.c: 2173: *outPipes[0].pDst.bRam++ = CtrlTrfData[i];
  5603  00103A  503C               	movf	USBCtrlTrfRxService@i,w,c
  5604  00103C  0D01               	mullw	1
  5605  00103E  0E20               	movlw	32
  5606  001040  24F3               	addwf	prodl,w,c
  5607  001042  6ED9               	movwf	fsr2l,c
  5608  001044  0E05               	movlw	5
  5609  001046  20F4               	addwfc	prodh,w,c
  5610  001048  6EDA               	movwf	fsr2h,c
  5611  00104A  C001  FFE1         	movff	_outPipes,fsr1l
  5612  00104E  C002  FFE2         	movff	_outPipes+1,fsr1h
  5613  001052  CFDF FFE7          	movff	indf2,indf1
  5614  001056  4A01               	infsnz	_outPipes,f,c
  5615  001058  2A02               	incf	_outPipes+1,f,c
  5616  00105A  2A3C               	incf	USBCtrlTrfRxService@i,f,c
  5617  00105C                     l2655:
  5618  00105C  503D               	movf	USBCtrlTrfRxService@byteToRead,w,c
  5619  00105E  5C3C               	subwf	USBCtrlTrfRxService@i,w,c
  5620  001060  A0D8               	btfss	status,0,c
  5621  001062  D7EB               	goto	l2649
  5622                           
  5623                           ;usb_device.c: 2174: }
  5624                           ;usb_device.c: 2177: if(outPipes[0].wCount.Val > 0)
  5625  001064  5005               	movf	_outPipes+4,w,c
  5626  001066  1006               	iorwf	_outPipes+5,w,c
  5627  001068  B4D8               	btfsc	status,2,c
  5628  00106A  D026               	goto	l2667
  5629                           
  5630                           ;usb_device.c: 2178: {
  5631                           ;usb_device.c: 2184: pBDTEntryEP0OutNext->CNT = 8;
  5632  00106C  EE20 F001          	lfsr	2,1
  5633  001070  502A               	movf	_pBDTEntryEP0OutNext,w,c
  5634  001072  26D9               	addwf	fsr2l,f,c
  5635  001074  502B               	movf	_pBDTEntryEP0OutNext+1,w,c
  5636  001076  22DA               	addwfc	fsr2h,f,c
  5637  001078  0E08               	movlw	8
  5638  00107A  6EDF               	movwf	indf2,c
  5639                           
  5640                           ;usb_device.c: 2185: pBDTEntryEP0OutNext->ADR = (BYTE*)&CtrlTrfData;
  5641  00107C  EE20 F002          	lfsr	2,2
  5642  001080  502A               	movf	_pBDTEntryEP0OutNext,w,c
  5643  001082  26D9               	addwf	fsr2l,f,c
  5644  001084  502B               	movf	_pBDTEntryEP0OutNext+1,w,c
  5645  001086  22DA               	addwfc	fsr2h,f,c
  5646  001088  0E20               	movlw	32
  5647  00108A  6EDE               	movwf	postinc2,c
  5648  00108C  0E05               	movlw	5
  5649  00108E  6EDD               	movwf	postdec2,c
  5650                           
  5651                           ;usb_device.c: 2186: if(pBDTEntryEP0OutCurrent->STAT.DTS == 0)
  5652  001090  C028  FFD9         	movff	_pBDTEntryEP0OutCurrent,fsr2l
  5653  001094  C029  FFDA         	movff	_pBDTEntryEP0OutCurrent+1,fsr2h
  5654  001098  BCDF               	btfsc	indf2,6,c
  5655  00109A  D007               	goto	l2665
  5656                           
  5657                           ;usb_device.c: 2187: {
  5658                           ;usb_device.c: 2188: pBDTEntryEP0OutNext->STAT.Val = 0x80|0x40|0x08;
  5659  00109C  C02A  FFD9         	movff	_pBDTEntryEP0OutNext,fsr2l
  5660  0010A0  C02B  FFDA         	movff	_pBDTEntryEP0OutNext+1,fsr2h
  5661  0010A4  0EC8               	movlw	200
  5662  0010A6  6EDF               	movwf	indf2,c
  5663                           
  5664                           ;usb_device.c: 2189: }
  5665  0010A8  0012               	return	
  5666  0010AA                     l2665:
  5667                           
  5668                           ;usb_device.c: 2190: else
  5669                           ;usb_device.c: 2191: {
  5670                           ;usb_device.c: 2192: pBDTEntryEP0OutNext->STAT.Val = 0x80|0x00|0x08;
  5671  0010AA  C02A  FFD9         	movff	_pBDTEntryEP0OutNext,fsr2l
  5672  0010AE  C02B  FFDA         	movff	_pBDTEntryEP0OutNext+1,fsr2h
  5673  0010B2  0E88               	movlw	136
  5674  0010B4  6EDF               	movwf	indf2,c
  5675                           
  5676                           ;usb_device.c: 2193: }
  5677                           ;usb_device.c: 2194: }
  5678  0010B6  0012               	return	
  5679  0010B8                     l2667:
  5680                           
  5681                           ;usb_device.c: 2195: else
  5682                           ;usb_device.c: 2196: {
  5683                           ;usb_device.c: 2197: pBDTEntryEP0OutNext->CNT = 8;
  5684  0010B8  EE20 F001          	lfsr	2,1
  5685  0010BC  502A               	movf	_pBDTEntryEP0OutNext,w,c
  5686  0010BE  26D9               	addwf	fsr2l,f,c
  5687  0010C0  502B               	movf	_pBDTEntryEP0OutNext+1,w,c
  5688  0010C2  22DA               	addwfc	fsr2h,f,c
  5689  0010C4  0E08               	movlw	8
  5690  0010C6  6EDF               	movwf	indf2,c
  5691                           
  5692                           ;usb_device.c: 2198: pBDTEntryEP0OutNext->ADR = (BYTE*)&SetupPkt;
  5693  0010C8  EE20 F002          	lfsr	2,2
  5694  0010CC  502A               	movf	_pBDTEntryEP0OutNext,w,c
  5695  0010CE  26D9               	addwf	fsr2l,f,c
  5696  0010D0  502B               	movf	_pBDTEntryEP0OutNext+1,w,c
  5697  0010D2  22DA               	addwfc	fsr2h,f,c
  5698  0010D4  0E00               	movlw	0
  5699  0010D6  6EDE               	movwf	postinc2,c
  5700  0010D8  0E05               	movlw	5
  5701  0010DA  6EDD               	movwf	postdec2,c
  5702                           
  5703                           ;usb_device.c: 2202: pBDTEntryEP0OutNext->STAT.Val = 0x80|0x04;
  5704  0010DC  C02A  FFD9         	movff	_pBDTEntryEP0OutNext,fsr2l
  5705  0010E0  C02B  FFDA         	movff	_pBDTEntryEP0OutNext+1,fsr2h
  5706  0010E4  0E84               	movlw	132
  5707  0010E6  6EDF               	movwf	indf2,c
  5708                           
  5709                           ;usb_device.c: 2207: }
  5710                           ;usb_device.c: 2208: outPipes[0].info.bits.busy = 0;
  5711  0010E8  9E04               	bcf	_outPipes+3,7,c
  5712  0010EA  0012               	return	
  5713  0010EC                     __end_of_USBCtrlTrfRxService:
  5714                           	opt stack 0
  5715                           tblptru	equ	0xFF8
  5716                           tblptrh	equ	0xFF7
  5717                           tblptrl	equ	0xFF6
  5718                           tablat	equ	0xFF5
  5719                           prodh	equ	0xFF4
  5720                           prodl	equ	0xFF3
  5721                           postinc0	equ	0xFEE
  5722                           wreg	equ	0xFE8
  5723                           indf1	equ	0xFE7
  5724                           postinc1	equ	0xFE6
  5725                           postdec1	equ	0xFE5
  5726                           fsr1h	equ	0xFE2
  5727                           fsr1l	equ	0xFE1
  5728                           indf2	equ	0xFDF
  5729                           postinc2	equ	0xFDE
  5730                           postdec2	equ	0xFDD
  5731                           fsr2h	equ	0xFDA
  5732                           fsr2l	equ	0xFD9
  5733                           status	equ	0xFD8
  5734                           
  5735 ;; *************** function _USBCtrlTrfInHandler *****************
  5736 ;; Defined at:
  5737 ;;		line 1441 in file "usb_device.c"
  5738 ;; Parameters:    Size  Location     Type
  5739 ;;		None
  5740 ;; Auto vars:     Size  Location     Type
  5741 ;;  lastDTS         1    4[COMRAM] unsigned char 
  5742 ;; Return value:  Size  Location     Type
  5743 ;;                  1    wreg      void 
  5744 ;; Registers used:
  5745 ;;		wreg, fsr1l, fsr1h, fsr2l, fsr2h, status,2, status,0, tblptrl, tblptrh, tblptru, cstack
  5746 ;; Tracked objects:
  5747 ;;		On entry : 0/0
  5748 ;;		On exit  : 0/0
  5749 ;;		Unchanged: 0/0
  5750 ;; Data sizes:     COMRAM   BANK0   BANK1   BANK2   BANK3  BANK4lBANK5hhhBANK5hhl BANK5hl  BANK5l   BANK6   BANK7
  5751 ;;      Params:         0       0       0       0       0       0       0       0       0       0       0       0
  5752 ;;      Locals:         1       0       0       0       0       0       0       0       0       0       0       0
  5753 ;;      Temps:          0       0       0       0       0       0       0       0       0       0       0       0
  5754 ;;      Totals:         1       0       0       0       0       0       0       0       0       0       0       0
  5755 ;;Total ram usage:        1 bytes
  5756 ;; Hardware stack levels used:    1
  5757 ;; Hardware stack levels required when called:    1
  5758 ;; This function calls:
  5759 ;;		_USBCtrlTrfTxService
  5760 ;;		_USBPrepareForNextSetupTrf
  5761 ;; This function is called by:
  5762 ;;		_USBCtrlEPService
  5763 ;; This function uses a non-reentrant model
  5764 ;;
  5765                           
  5766                           	psect	text31
  5767  0016BC                     __ptext31:
  5768                           	opt stack 0
  5769  0016BC                     _USBCtrlTrfInHandler:
  5770                           	opt stack 27
  5771                           
  5772                           ;usb_device.c: 1443: BYTE lastDTS;
  5773                           ;usb_device.c: 1445: lastDTS = pBDTEntryIn[0]->STAT.DTS;
  5774                           
  5775                           ;incstack = 0
  5776  0016BC  C00F  FFD9         	movff	_pBDTEntryIn,fsr2l
  5777  0016C0  C010  FFDA         	movff	_pBDTEntryIn+1,fsr2h
  5778  0016C4  0E00               	movlw	0
  5779  0016C6  BCDF               	btfsc	indf2,6,c
  5780  0016C8  0E01               	movlw	1
  5781  0016CA  6E3E               	movwf	USBCtrlTrfInHandler@lastDTS,c
  5782                           
  5783                           ;usb_device.c: 1448: ((BYTE_VAL*)&pBDTEntryIn[0])->Val ^= 0x0004;
  5784  0016CC  0E04               	movlw	4
  5785  0016CE  1A0F               	xorwf	_pBDTEntryIn,f,c
  5786                           
  5787                           ;usb_device.c: 1451: if(USBDeviceState == ADR_PENDING_STATE)
  5788  0016D0  0E08               	movlw	8
  5789  0016D2  1832               	xorwf	_USBDeviceState,w,c
  5790  0016D4  A4D8               	btfss	status,2,c
  5791  0016D6  D009               	goto	l2731
  5792                           
  5793                           ;usb_device.c: 1452: {
  5794                           ;usb_device.c: 1453: UADDR = SetupPkt.bDevADR.Val;
  5795  0016D8  C502 FF6E          	movff	1282,3950	;volatile
  5796                           
  5797                           ;usb_device.c: 1454: if(UADDR > 0)
  5798  0016DC  506E               	movf	3950,w,c	;volatile
  5799  0016DE  B4D8               	btfsc	status,2,c
  5800  0016E0  D002               	goto	l2729
  5801                           
  5802                           ;usb_device.c: 1455: {
  5803                           ;usb_device.c: 1456: USBDeviceState=ADDRESS_STATE;
  5804  0016E2  0E10               	movlw	16
  5805  0016E4  D001               	goto	L9
  5806  0016E6                     l2729:
  5807                           
  5808                           ;usb_device.c: 1458: else
  5809                           ;usb_device.c: 1459: {
  5810                           ;usb_device.c: 1460: USBDeviceState=DEFAULT_STATE;
  5811  0016E6  0E04               	movlw	4
  5812  0016E8                     L9:
  5813  0016E8  6E32               	movwf	_USBDeviceState,c
  5814  0016EA                     l2731:
  5815                           
  5816                           ;usb_device.c: 1461: }
  5817                           ;usb_device.c: 1462: }
  5818                           ;usb_device.c: 1465: if(controlTransferState == 1)
  5819  0016EA  0433               	decf	_controlTransferState,w,c
  5820  0016EC  A4D8               	btfss	status,2,c
  5821  0016EE  D028               	goto	l2747
  5822                           
  5823                           ;usb_device.c: 1466: {
  5824                           ;usb_device.c: 1467: pBDTEntryIn[0]->ADR = (BYTE *)CtrlTrfData;
  5825  0016F0  EE20 F002          	lfsr	2,2
  5826  0016F4  500F               	movf	_pBDTEntryIn,w,c
  5827  0016F6  26D9               	addwf	fsr2l,f,c
  5828  0016F8  5010               	movf	_pBDTEntryIn+1,w,c
  5829  0016FA  22DA               	addwfc	fsr2h,f,c
  5830  0016FC  0E20               	movlw	32
  5831  0016FE  6EDE               	movwf	postinc2,c
  5832  001700  0E05               	movlw	5
  5833  001702  6EDD               	movwf	postdec2,c
  5834                           
  5835                           ;usb_device.c: 1468: USBCtrlTrfTxService();
  5836  001704  ECF0  F006         	call	_USBCtrlTrfTxService	;wreg free
  5837                           
  5838                           ;usb_device.c: 1471: if(shortPacketStatus == 2)
  5839  001708  0E02               	movlw	2
  5840  00170A  1834               	xorwf	_shortPacketStatus,w,c
  5841  00170C  A4D8               	btfss	status,2,c
  5842  00170E  D007               	goto	l2741
  5843                           
  5844                           ;usb_device.c: 1472: {
  5845                           ;usb_device.c: 1475: pBDTEntryIn[0]->STAT.Val = 0x80|0x04;
  5846  001710  C00F  FFD9         	movff	_pBDTEntryIn,fsr2l
  5847  001714  C010  FFDA         	movff	_pBDTEntryIn+1,fsr2h
  5848  001718  0E84               	movlw	132
  5849  00171A  6EDF               	movwf	indf2,c
  5850                           
  5851                           ;usb_device.c: 1476: }
  5852  00171C  0012               	return	
  5853  00171E                     l2741:
  5854                           
  5855                           ;usb_device.c: 1477: else
  5856                           ;usb_device.c: 1478: {
  5857                           ;usb_device.c: 1479: if(lastDTS == 0)
  5858  00171E  503E               	movf	USBCtrlTrfInHandler@lastDTS,w,c
  5859  001720  A4D8               	btfss	status,2,c
  5860  001722  D007               	goto	l2745
  5861                           
  5862                           ;usb_device.c: 1480: {
  5863                           ;usb_device.c: 1481: pBDTEntryIn[0]->STAT.Val = 0x80|0x40|0x08;
  5864  001724  C00F  FFD9         	movff	_pBDTEntryIn,fsr2l
  5865  001728  C010  FFDA         	movff	_pBDTEntryIn+1,fsr2h
  5866  00172C  0EC8               	movlw	200
  5867  00172E  6EDF               	movwf	indf2,c
  5868                           
  5869                           ;usb_device.c: 1482: }
  5870  001730  0012               	return	
  5871  001732                     l2745:
  5872                           
  5873                           ;usb_device.c: 1483: else
  5874                           ;usb_device.c: 1484: {
  5875                           ;usb_device.c: 1485: pBDTEntryIn[0]->STAT.Val = 0x80|0x00|0x08;
  5876  001732  C00F  FFD9         	movff	_pBDTEntryIn,fsr2l
  5877  001736  C010  FFDA         	movff	_pBDTEntryIn+1,fsr2h
  5878  00173A  0E88               	movlw	136
  5879  00173C  6EDF               	movwf	indf2,c
  5880                           
  5881                           ;usb_device.c: 1486: }
  5882                           ;usb_device.c: 1487: }
  5883                           ;usb_device.c: 1488: }
  5884  00173E  0012               	return	
  5885  001740                     l2747:
  5886                           
  5887                           ;usb_device.c: 1489: else
  5888                           ;usb_device.c: 1490: {
  5889                           ;usb_device.c: 1491: USBPrepareForNextSetupTrf();
  5890  001740  EC47  F00D         	call	_USBPrepareForNextSetupTrf	;wreg free
  5891  001744  0012               	return	
  5892  001746                     __end_of_USBCtrlTrfInHandler:
  5893                           	opt stack 0
  5894                           tblptru	equ	0xFF8
  5895                           tblptrh	equ	0xFF7
  5896                           tblptrl	equ	0xFF6
  5897                           tablat	equ	0xFF5
  5898                           prodh	equ	0xFF4
  5899                           prodl	equ	0xFF3
  5900                           postinc0	equ	0xFEE
  5901                           wreg	equ	0xFE8
  5902                           indf1	equ	0xFE7
  5903                           postinc1	equ	0xFE6
  5904                           postdec1	equ	0xFE5
  5905                           fsr1h	equ	0xFE2
  5906                           fsr1l	equ	0xFE1
  5907                           indf2	equ	0xFDF
  5908                           postinc2	equ	0xFDE
  5909                           postdec2	equ	0xFDD
  5910                           fsr2h	equ	0xFDA
  5911                           fsr2l	equ	0xFD9
  5912                           status	equ	0xFD8
  5913                           
  5914 ;; *************** function _USBPrepareForNextSetupTrf *****************
  5915 ;; Defined at:
  5916 ;;		line 1513 in file "usb_device.c"
  5917 ;; Parameters:    Size  Location     Type
  5918 ;;		None
  5919 ;; Auto vars:     Size  Location     Type
  5920 ;;  p               2    0[COMRAM] PTR struct __BDT
  5921 ;;		 -> RAM(2047), 
  5922 ;; Return value:  Size  Location     Type
  5923 ;;                  1    wreg      void 
  5924 ;; Registers used:
  5925 ;;		wreg, fsr2l, fsr2h, status,2, status,0
  5926 ;; Tracked objects:
  5927 ;;		On entry : 0/0
  5928 ;;		On exit  : 0/0
  5929 ;;		Unchanged: 0/0
  5930 ;; Data sizes:     COMRAM   BANK0   BANK1   BANK2   BANK3  BANK4lBANK5hhhBANK5hhl BANK5hl  BANK5l   BANK6   BANK7
  5931 ;;      Params:         0       0       0       0       0       0       0       0       0       0       0       0
  5932 ;;      Locals:         2       0       0       0       0       0       0       0       0       0       0       0
  5933 ;;      Temps:          0       0       0       0       0       0       0       0       0       0       0       0
  5934 ;;      Totals:         2       0       0       0       0       0       0       0       0       0       0       0
  5935 ;;Total ram usage:        2 bytes
  5936 ;; Hardware stack levels used:    1
  5937 ;; This function calls:
  5938 ;;		Nothing
  5939 ;; This function is called by:
  5940 ;;		_USBCtrlTrfOutHandler
  5941 ;;		_USBCtrlTrfInHandler
  5942 ;; This function uses a non-reentrant model
  5943 ;;
  5944                           
  5945                           	psect	text32
  5946  001A8E                     __ptext32:
  5947                           	opt stack 0
  5948  001A8E                     _USBPrepareForNextSetupTrf:
  5949                           	opt stack 27
  5950                           
  5951                           ;usb_device.c: 1515: controlTransferState = 0;
  5952                           
  5953                           ;incstack = 0
  5954  001A8E  0E00               	movlw	0
  5955  001A90  6E33               	movwf	_controlTransferState,c
  5956                           
  5957                           ;usb_device.c: 1522: pBDTEntryIn[0]->STAT.Val = 0x00;
  5958  001A92  C00F  FFD9         	movff	_pBDTEntryIn,fsr2l
  5959  001A96  C010  FFDA         	movff	_pBDTEntryIn+1,fsr2h
  5960  001A9A  0E00               	movlw	0
  5961  001A9C  6EDF               	movwf	indf2,c
  5962                           
  5963                           ;usb_device.c: 1523: {
  5964                           ;usb_device.c: 1524: BDT_ENTRY* p;
  5965                           ;usb_device.c: 1526: p = (BDT_ENTRY*)(((unsigned int)pBDTEntryIn[0])^0x0004);
  5966  001A9E  0E04               	movlw	4
  5967  001AA0  180F               	xorwf	_pBDTEntryIn,w,c
  5968  001AA2  6E3A               	movwf	USBPrepareForNextSetupTrf@p,c
  5969  001AA4  5010               	movf	_pBDTEntryIn+1,w,c
  5970  001AA6  6E3B               	movwf	USBPrepareForNextSetupTrf@p+1,c
  5971                           
  5972                           ;usb_device.c: 1527: p->STAT.Val = 0x00;
  5973  001AA8  C03A  FFD9         	movff	USBPrepareForNextSetupTrf@p,fsr2l
  5974  001AAC  C03B  FFDA         	movff	USBPrepareForNextSetupTrf@p+1,fsr2h
  5975  001AB0  0E00               	movlw	0
  5976  001AB2  6EDF               	movwf	indf2,c
  5977                           
  5978                           ;usb_device.c: 1528: }
  5979                           ;usb_device.c: 1533: if(outPipes[0].info.bits.busy == 1)
  5980  001AB4  AE04               	btfss	_outPipes+3,7,c
  5981  001AB6  0012               	return	
  5982                           
  5983                           ;usb_device.c: 1538: }
  5984                           ;usb_device.c: 1539: outPipes[0].info.bits.busy = 0;
  5985  001AB8  9E04               	bcf	_outPipes+3,7,c
  5986  001ABA  0012               	return	
  5987  001ABC                     __end_of_USBPrepareForNextSetupTrf:
  5988                           	opt stack 0
  5989                           tblptru	equ	0xFF8
  5990                           tblptrh	equ	0xFF7
  5991                           tblptrl	equ	0xFF6
  5992                           tablat	equ	0xFF5
  5993                           prodh	equ	0xFF4
  5994                           prodl	equ	0xFF3
  5995                           postinc0	equ	0xFEE
  5996                           wreg	equ	0xFE8
  5997                           indf1	equ	0xFE7
  5998                           postinc1	equ	0xFE6
  5999                           postdec1	equ	0xFE5
  6000                           fsr1h	equ	0xFE2
  6001                           fsr1l	equ	0xFE1
  6002                           indf2	equ	0xFDF
  6003                           postinc2	equ	0xFDE
  6004                           postdec2	equ	0xFDD
  6005                           fsr2h	equ	0xFDA
  6006                           fsr2l	equ	0xFD9
  6007                           status	equ	0xFD8
  6008                           
  6009 ;; *************** function _USBCtrlTrfTxService *****************
  6010 ;; Defined at:
  6011 ;;		line 2057 in file "usb_device.c"
  6012 ;; Parameters:    Size  Location     Type
  6013 ;;		None
  6014 ;; Auto vars:     Size  Location     Type
  6015 ;;  byteToSend      2    2[COMRAM] struct .
  6016 ;; Return value:  Size  Location     Type
  6017 ;;                  1    wreg      void 
  6018 ;; Registers used:
  6019 ;;		wreg, fsr1l, fsr1h, fsr2l, fsr2h, status,2, status,0, tblptrl, tblptrh, tblptru
  6020 ;; Tracked objects:
  6021 ;;		On entry : 0/0
  6022 ;;		On exit  : 0/0
  6023 ;;		Unchanged: 0/0
  6024 ;; Data sizes:     COMRAM   BANK0   BANK1   BANK2   BANK3  BANK4lBANK5hhhBANK5hhl BANK5hl  BANK5l   BANK6   BANK7
  6025 ;;      Params:         0       0       0       0       0       0       0       0       0       0       0       0
  6026 ;;      Locals:         2       0       0       0       0       0       0       0       0       0       0       0
  6027 ;;      Temps:          2       0       0       0       0       0       0       0       0       0       0       0
  6028 ;;      Totals:         4       0       0       0       0       0       0       0       0       0       0       0
  6029 ;;Total ram usage:        4 bytes
  6030 ;; Hardware stack levels used:    1
  6031 ;; This function calls:
  6032 ;;		Nothing
  6033 ;; This function is called by:
  6034 ;;		_USBCtrlTrfInHandler
  6035 ;;		_USBCtrlEPServiceComplete
  6036 ;; This function uses a non-reentrant model
  6037 ;;
  6038                           
  6039                           	psect	text33
  6040  000DE0                     __ptext33:
  6041                           	opt stack 0
  6042  000DE0                     _USBCtrlTrfTxService:
  6043                           	opt stack 26
  6044                           
  6045                           ;usb_device.c: 2059: WORD_VAL byteToSend;
  6046                           ;usb_device.c: 2064: if(inPipes[0].wCount.Val < 8)
  6047                           
  6048                           ;incstack = 0
  6049  000DE0  500E               	movf	_inPipes+5,w,c
  6050  000DE2  E113               	bnz	l2389
  6051  000DE4  0E08               	movlw	8
  6052  000DE6  5C0D               	subwf	_inPipes+4,w,c
  6053  000DE8  B0D8               	btfsc	status,0,c
  6054  000DEA  D00F               	goto	l2389
  6055                           
  6056                           ;usb_device.c: 2065: {
  6057                           ;usb_device.c: 2066: byteToSend.Val = inPipes[0].wCount.Val;
  6058  000DEC  C00D  F03C         	movff	_inPipes+4,USBCtrlTrfTxService@byteToSend
  6059  000DF0  C00E  F03D         	movff	_inPipes+5,USBCtrlTrfTxService@byteToSend+1
  6060                           
  6061                           ;usb_device.c: 2069: if(shortPacketStatus == 0)
  6062  000DF4  5034               	movf	_shortPacketStatus,w,c
  6063  000DF6  A4D8               	btfss	status,2,c
  6064  000DF8  D002               	goto	l2385
  6065                           
  6066                           ;usb_device.c: 2070: {
  6067                           ;usb_device.c: 2071: shortPacketStatus = 1;
  6068  000DFA  0E01               	movlw	1
  6069  000DFC  D004               	goto	L10
  6070  000DFE                     l2385:
  6071                           
  6072                           ;usb_device.c: 2073: else if(shortPacketStatus == 1)
  6073  000DFE  0434               	decf	_shortPacketStatus,w,c
  6074  000E00  A4D8               	btfss	status,2,c
  6075  000E02  D007               	goto	l2391
  6076                           
  6077                           ;usb_device.c: 2074: {
  6078                           ;usb_device.c: 2075: shortPacketStatus = 2;
  6079  000E04  0E02               	movlw	2
  6080  000E06                     L10:
  6081  000E06  6E34               	movwf	_shortPacketStatus,c
  6082                           
  6083                           ;usb_device.c: 2076: }
  6084                           ;usb_device.c: 2078: }
  6085  000E08  D004               	goto	l2391
  6086  000E0A                     l2389:
  6087                           
  6088                           ;usb_device.c: 2079: else
  6089                           ;usb_device.c: 2080: {
  6090                           ;usb_device.c: 2081: byteToSend.Val = 8;
  6091  000E0A  0E00               	movlw	0
  6092  000E0C  6E3D               	movwf	USBCtrlTrfTxService@byteToSend+1,c
  6093  000E0E  0E08               	movlw	8
  6094  000E10  6E3C               	movwf	USBCtrlTrfTxService@byteToSend,c
  6095  000E12                     l2391:
  6096                           
  6097                           ;usb_device.c: 2082: }
  6098                           ;usb_device.c: 2088: pBDTEntryIn[0]->STAT.BC9 = 0;
  6099  000E12  C00F  FFD9         	movff	_pBDTEntryIn,fsr2l
  6100  000E16  C010  FFDA         	movff	_pBDTEntryIn+1,fsr2h
  6101  000E1A  92DF               	bcf	indf2,1,c
  6102                           
  6103                           ;usb_device.c: 2089: pBDTEntryIn[0]->STAT.BC8 = 0;
  6104  000E1C  C00F  FFD9         	movff	_pBDTEntryIn,fsr2l
  6105  000E20  C010  FFDA         	movff	_pBDTEntryIn+1,fsr2h
  6106  000E24  90DF               	bcf	indf2,0,c
  6107                           
  6108                           ;usb_device.c: 2093: pBDTEntryIn[0]->STAT.Val |= byteToSend.byte.HB;
  6109  000E26  C00F  FFD9         	movff	_pBDTEntryIn,fsr2l
  6110  000E2A  C010  FFDA         	movff	_pBDTEntryIn+1,fsr2h
  6111  000E2E  503D               	movf	USBCtrlTrfTxService@byteToSend+1,w,c
  6112  000E30  12DF               	iorwf	indf2,f,c
  6113                           
  6114                           ;usb_device.c: 2094: pBDTEntryIn[0]->CNT = byteToSend.byte.LB;
  6115  000E32  EE20 F001          	lfsr	2,1
  6116  000E36  500F               	movf	_pBDTEntryIn,w,c
  6117  000E38  26D9               	addwf	fsr2l,f,c
  6118  000E3A  5010               	movf	_pBDTEntryIn+1,w,c
  6119  000E3C  22DA               	addwfc	fsr2h,f,c
  6120  000E3E  C03C  FFDF         	movff	USBCtrlTrfTxService@byteToSend,indf2
  6121                           
  6122                           ;usb_device.c: 2104: inPipes[0].wCount.Val = inPipes[0].wCount.Val - byteToSend.Val;
  6123  000E42  C03C  F03A         	movff	USBCtrlTrfTxService@byteToSend,??_USBCtrlTrfTxService
  6124  000E46  C03D  F03B         	movff	USBCtrlTrfTxService@byteToSend+1,??_USBCtrlTrfTxService+1
  6125  000E4A  1E3A               	comf	??_USBCtrlTrfTxService,f,c
  6126  000E4C  1E3B               	comf	??_USBCtrlTrfTxService+1,f,c
  6127  000E4E  4A3A               	infsnz	??_USBCtrlTrfTxService,f,c
  6128  000E50  2A3B               	incf	??_USBCtrlTrfTxService+1,f,c
  6129  000E52  500D               	movf	_inPipes+4,w,c
  6130  000E54  243A               	addwf	??_USBCtrlTrfTxService,w,c
  6131  000E56  6E0D               	movwf	_inPipes+4,c
  6132  000E58  500E               	movf	_inPipes+5,w,c
  6133  000E5A  203B               	addwfc	??_USBCtrlTrfTxService+1,w,c
  6134  000E5C  6E0E               	movwf	_inPipes+5,c
  6135                           
  6136                           ;usb_device.c: 2106: pDst = ( BYTE*)CtrlTrfData;
  6137  000E5E  0E20               	movlw	32
  6138  000E60  6E2C               	movwf	_pDst,c
  6139  000E62  0E05               	movlw	5
  6140  000E64  6E2D               	movwf	_pDst+1,c
  6141                           
  6142                           ;usb_device.c: 2108: if(inPipes[0].info.bits.ctrl_trf_mem == 0x00)
  6143  000E66  A00C               	btfss	_inPipes+3,0,c
  6144  000E68  D01D               	goto	l2415
  6145  000E6A  D03D               	goto	l2425
  6146  000E6C                     l2407:
  6147                           
  6148                           ;usb_device.c: 2111: {
  6149                           ;usb_device.c: 2112: *pDst++ = *inPipes[0].pSrc.bRom++;
  6150  000E6C  C009  FFF6         	movff	_inPipes,tblptrl
  6151  000E70  C00A  FFF7         	movff	_inPipes+1,tblptrh
  6152  000E74  6AF8               	clrf	tblptru,c
  6153  000E76  C02C  FFD9         	movff	_pDst,fsr2l
  6154  000E7A  C02D  FFDA         	movff	_pDst+1,fsr2h
  6155  000E7E  0E07               	movlw	(high __ramtop+-1)
  6156  000E80  64F7               	cpfsgt	tblptrh,c
  6157  000E82  D003               	bra	u1517
  6158  000E84  0008               	tblrd		*
  6159  000E86  50F5               	movf	tablat,w,c
  6160  000E88  D005               	bra	u1510
  6161  000E8A                     u1517:
  6162  000E8A  CFF6 FFE1          	movff	tblptrl,fsr1l
  6163  000E8E  CFF7 FFE2          	movff	tblptrh,fsr1h
  6164  000E92  50E7               	movf	indf1,w,c
  6165  000E94                     u1510:
  6166  000E94  6EDF               	movwf	indf2,c
  6167  000E96  4A09               	infsnz	_inPipes,f,c
  6168  000E98  2A0A               	incf	_inPipes+1,f,c
  6169  000E9A  4A2C               	infsnz	_pDst,f,c
  6170  000E9C  2A2D               	incf	_pDst+1,f,c
  6171                           
  6172                           ;usb_device.c: 2113: byteToSend.Val--;
  6173  000E9E  063C               	decf	USBCtrlTrfTxService@byteToSend,f,c
  6174  000EA0  A0D8               	btfss	status,0,c
  6175  000EA2  063D               	decf	USBCtrlTrfTxService@byteToSend+1,f,c
  6176  000EA4                     l2415:
  6177  000EA4  503C               	movf	USBCtrlTrfTxService@byteToSend,w,c
  6178  000EA6  103D               	iorwf	USBCtrlTrfTxService@byteToSend+1,w,c
  6179  000EA8  B4D8               	btfsc	status,2,c
  6180  000EAA  0012               	return	
  6181  000EAC  D7DF               	goto	l2407
  6182  000EAE                     l2417:
  6183                           
  6184                           ;usb_device.c: 2119: {
  6185                           ;usb_device.c: 2120: *pDst++ = *inPipes[0].pSrc.bRam++;
  6186  000EAE  C009  FFF6         	movff	_inPipes,tblptrl
  6187  000EB2  C00A  FFF7         	movff	_inPipes+1,tblptrh
  6188  000EB6  6AF8               	clrf	tblptru,c
  6189  000EB8  C02C  FFD9         	movff	_pDst,fsr2l
  6190  000EBC  C02D  FFDA         	movff	_pDst+1,fsr2h
  6191  000EC0  0E07               	movlw	(high __ramtop+-1)
  6192  000EC2  64F7               	cpfsgt	tblptrh,c
  6193  000EC4  D003               	bra	u1537
  6194  000EC6  0008               	tblrd		*
  6195  000EC8  50F5               	movf	tablat,w,c
  6196  000ECA  D005               	bra	u1530
  6197  000ECC                     u1537:
  6198  000ECC  CFF6 FFE1          	movff	tblptrl,fsr1l
  6199  000ED0  CFF7 FFE2          	movff	tblptrh,fsr1h
  6200  000ED4  50E7               	movf	indf1,w,c
  6201  000ED6                     u1530:
  6202  000ED6  6EDF               	movwf	indf2,c
  6203  000ED8  4A09               	infsnz	_inPipes,f,c
  6204  000EDA  2A0A               	incf	_inPipes+1,f,c
  6205  000EDC  4A2C               	infsnz	_pDst,f,c
  6206  000EDE  2A2D               	incf	_pDst+1,f,c
  6207                           
  6208                           ;usb_device.c: 2121: byteToSend.Val--;
  6209  000EE0  063C               	decf	USBCtrlTrfTxService@byteToSend,f,c
  6210  000EE2  A0D8               	btfss	status,0,c
  6211  000EE4  063D               	decf	USBCtrlTrfTxService@byteToSend+1,f,c
  6212  000EE6                     l2425:
  6213  000EE6  503C               	movf	USBCtrlTrfTxService@byteToSend,w,c
  6214  000EE8  103D               	iorwf	USBCtrlTrfTxService@byteToSend+1,w,c
  6215  000EEA  B4D8               	btfsc	status,2,c
  6216  000EEC  0012               	return	
  6217  000EEE  D7DF               	goto	l2417
  6218  000EF0                     __end_of_USBCtrlTrfTxService:
  6219                           	opt stack 0
  6220                           tblptru	equ	0xFF8
  6221                           tblptrh	equ	0xFF7
  6222                           tblptrl	equ	0xFF6
  6223                           tablat	equ	0xFF5
  6224                           prodh	equ	0xFF4
  6225                           prodl	equ	0xFF3
  6226                           postinc0	equ	0xFEE
  6227                           wreg	equ	0xFE8
  6228                           indf1	equ	0xFE7
  6229                           postinc1	equ	0xFE6
  6230                           postdec1	equ	0xFE5
  6231                           fsr1h	equ	0xFE2
  6232                           fsr1l	equ	0xFE1
  6233                           indf2	equ	0xFDF
  6234                           postinc2	equ	0xFDE
  6235                           postdec2	equ	0xFDD
  6236                           fsr2h	equ	0xFDA
  6237                           fsr2l	equ	0xFD9
  6238                           status	equ	0xFD8
  6239                           tblptru	equ	0xFF8
  6240                           tblptrh	equ	0xFF7
  6241                           tblptrl	equ	0xFF6
  6242                           tablat	equ	0xFF5
  6243                           prodh	equ	0xFF4
  6244                           prodl	equ	0xFF3
  6245                           postinc0	equ	0xFEE
  6246                           wreg	equ	0xFE8
  6247                           indf1	equ	0xFE7
  6248                           postinc1	equ	0xFE6
  6249                           postdec1	equ	0xFE5
  6250                           fsr1h	equ	0xFE2
  6251                           fsr1l	equ	0xFE1
  6252                           indf2	equ	0xFDF
  6253                           postinc2	equ	0xFDE
  6254                           postdec2	equ	0xFDD
  6255                           fsr2h	equ	0xFDA
  6256                           fsr2l	equ	0xFD9
  6257                           status	equ	0xFD8
  6258                           
  6259                           	psect	rparam
  6260  0000                     tblptru	equ	0xFF8
  6261                           tblptrh	equ	0xFF7
  6262                           tblptrl	equ	0xFF6
  6263                           tablat	equ	0xFF5
  6264                           prodh	equ	0xFF4
  6265                           prodl	equ	0xFF3
  6266                           postinc0	equ	0xFEE
  6267                           wreg	equ	0xFE8
  6268                           indf1	equ	0xFE7
  6269                           postinc1	equ	0xFE6
  6270                           postdec1	equ	0xFE5
  6271                           fsr1h	equ	0xFE2
  6272                           fsr1l	equ	0xFE1
  6273                           indf2	equ	0xFDF
  6274                           postinc2	equ	0xFDE
  6275                           postdec2	equ	0xFDD
  6276                           fsr2h	equ	0xFDA
  6277                           fsr2l	equ	0xFD9
  6278                           status	equ	0xFD8


Data Sizes:
    Strings     0
    Constant    194
    Data        10
    BSS         65
    Persistent  0
    Stack       0

Auto Spaces:
    Space          Size  Autos    Used
    COMRAM           95     34      92
    BANK0           160      0      17
    BANK1           256      0       0
    BANK2           256      0       0
    BANK3           239      0       0
    BANK4l           88      0       0
    BANK5hhh        141      0       0
    BANK5hhl         61      0       0
    BANK5hl           8      0       0
    BANK5l           24      0       0
    BANK6           256      0       0
    BANK7           256      0       0

Pointer List with Targets:

    USER_USB_CALLBACK_EVENT_HANDLER@pdata	PTR void  size(2) Largest target is 1
		 -> USTATcopy(COMRAM[1]), USBActiveConfiguration(COMRAM[1]), NULL(NULL[0]), 

    memset@p1	PTR void  size(2) Largest target is 1
		 -> USBAlternateInterface(COMRAM[1]), UEP1(SFR[1]), 

    memset@p	PTR unsigned char  size(2) Largest target is 1
		 -> USBAlternateInterface(COMRAM[1]), UEP1(SFR[1]), 

    USBTransferOnePacket@handle.ADR	PTR unsigned char  size(2) Largest target is 64
		 -> CtrlTrfData(BIGRAM_1hl[8]), SetupPkt(BIGRAM_1hl[8]), ToSendDataBuffer(BIGRAM_1hl[64]), ReceivedDataBuffer(BIGRAM_1l[64]), 

    USBTransferOnePacket@data	PTR unsigned char  size(2) Largest target is 64
		 -> ToSendDataBuffer(BIGRAM_1hl[64]), ReceivedDataBuffer(BIGRAM_1l[64]), 

    USBTransferOnePacket@handle	PTR volatile struct __BDT size(2) Largest target is 40
		 -> BDT(BIGRAM_1l[32]), 

    USBEnableEndpoint@p	PTR unsigned char  size(2) Largest target is 1
		 -> UEP0(SFR[1]), 

    USBConfigureEndpoint@handle	PTR volatile struct __BDT size(2) Largest target is 40
		 -> BDT(BIGRAM_1l[32]), 

    pDst	PTR unsigned char  size(2) Largest target is 8
		 -> CtrlTrfData(BIGRAM_1hl[8]), NULL(NULL[0]), 

    USBStdGetStatusHandler@p	PTR struct __BDT size(2) Largest target is 40
		 -> BDT(BIGRAM_1l[32]), 

    USBStdFeatureReqHandler@pUEP	PTR unsigned int  size(2) Largest target is 1
		 -> UEP0(SFR[1]), 

    pBDTEntryOut	PTR volatile struct __BDT[2] size(2) Largest target is 40
		 -> BDT(BIGRAM_1l[32]), 

    USBStdFeatureReqHandler@p	PTR struct __BDT size(2) Largest target is 40
		 -> BDT(BIGRAM_1l[32]), 

    USBPrepareForNextSetupTrf@p	PTR struct __BDT size(2) Largest target is 2047
		 -> RAM(DATA[2047]), 

    pBDTEntryIn.ADR	PTR unsigned char  size(2) Largest target is 64
		 -> CtrlTrfData(BIGRAM_1hl[8]), SetupPkt(BIGRAM_1hl[8]), ToSendDataBuffer(BIGRAM_1hl[64]), ReceivedDataBuffer(BIGRAM_1l[64]), 

    pBDTEntryEP0OutNext.ADR	PTR unsigned char  size(2) Largest target is 64
		 -> CtrlTrfData(BIGRAM_1hl[8]), SetupPkt(BIGRAM_1hl[8]), ToSendDataBuffer(BIGRAM_1hl[64]), ReceivedDataBuffer(BIGRAM_1l[64]), 

    pBDTEntryEP0OutCurrent.ADR	PTR unsigned char  size(2) Largest target is 64
		 -> CtrlTrfData(BIGRAM_1hl[8]), SetupPkt(BIGRAM_1hl[8]), ToSendDataBuffer(BIGRAM_1hl[64]), ReceivedDataBuffer(BIGRAM_1l[64]), 

    pBDTEntryEP0OutNext	PTR volatile struct __BDT size(2) Largest target is 40
		 -> BDT(BIGRAM_1l[32]), NULL(NULL[0]), 

    pBDTEntryEP0OutCurrent	PTR volatile struct __BDT size(2) Largest target is 40
		 -> BDT(BIGRAM_1l[32]), NULL(NULL[0]), 

    S99$ADR	PTR unsigned char  size(2) Largest target is 64
		 -> CtrlTrfData(BIGRAM_1hl[8]), SetupPkt(BIGRAM_1hl[8]), ToSendDataBuffer(BIGRAM_1hl[64]), ReceivedDataBuffer(BIGRAM_1l[64]), 

    BDT.ADR	PTR unsigned char  size(2) Largest target is 64
		 -> CtrlTrfData(BIGRAM_1hl[8]), SetupPkt(BIGRAM_1hl[8]), ToSendDataBuffer(BIGRAM_1hl[64]), ReceivedDataBuffer(BIGRAM_1l[64]), 

    pBDTEntryIn	PTR volatile struct __BDT[2] size(2) Largest target is 40
		 -> BDT(BIGRAM_1l[32]), 

    S375$pFunc	PTR FTN()void  size(2) Largest target is 0

    outPipes.pFunc	PTR FTN()void  size(2) Largest target is 0

    S365$wRam	PTR unsigned short  size(2) Largest target is 0

    outPipes.pDst.wRam	PTR unsigned short  size(2) Largest target is 0

    S365$bRam	PTR unsigned char  size(2) Largest target is 0

    outPipes.pDst.bRam	PTR unsigned char  size(2) Largest target is 0

    S323$wRom	PTR const unsigned short  size(2) Largest target is 0

    inPipes.pSrc.wRom	PTR const unsigned short  size(2) Largest target is 0

    S323$wRam	PTR unsigned short  size(2) Largest target is 0

    inPipes.pSrc.wRam	PTR unsigned short  size(2) Largest target is 0

    S323$bRom	PTR const unsigned char  size(2) Largest target is 0

    inPipes.pSrc.bRom	PTR const unsigned char  size(2) Largest target is 0

    S323$bRam	PTR unsigned char  size(2) Largest target is 0

    inPipes.pSrc.bRam	PTR unsigned char  size(2) Largest target is 0

    sp__memset	PTR void  size(2) Largest target is 1
		 -> USBAlternateInterface(COMRAM[1]), UEP1(SFR[1]), 

    USB_SD_Ptr	const PTR const unsigned char [3] size(2) Largest target is 52
		 -> sd002(CODE[42]), sd001(CODE[52]), sd000(CODE[4]), 

    USB_CD_Ptr	const PTR const unsigned char [1] size(2) Largest target is 41
		 -> configDescriptor1(CODE[41]), 

    sp__USBTransferOnePacket	PTR void  size(2) Largest target is 40
		 -> BDT(BIGRAM_1l[32]), 

    USBInHandle	PTR void  size(2) Largest target is 40
		 -> BDT(BIGRAM_1l[32]), NULL(NULL[0]), 

    USBOutHandle	PTR void  size(2) Largest target is 40
		 -> BDT(BIGRAM_1l[32]), NULL(NULL[0]), 


Critical Paths under _main in COMRAM

    _main->_USBDeviceTasks
    ___awdiv->___awmod
    _USBDeviceTasks->_USBCtrlEPService
    _USBWakeFromSuspend->_USER_USB_CALLBACK_EVENT_HANDLER
    _USBSuspend->_USER_USB_CALLBACK_EVENT_HANDLER
    _USBDeviceInit->_memset
    _USBCtrlTrfSetupHandler->_USER_USB_CALLBACK_EVENT_HANDLER
    _USBCtrlEPServiceComplete->_USBCtrlTrfTxService
    _USBCheckStdRequest->_USER_USB_CALLBACK_EVENT_HANDLER
    _USBStdSetCfgHandler->_USER_USB_CALLBACK_EVENT_HANDLER
    _USBCBInitEP->_USBEnableEndpoint
    _USBEnableEndpoint->_USBConfigureEndpoint
    _USBCtrlTrfOutHandler->_USBCtrlTrfRxService
    _USBCtrlTrfInHandler->_USBCtrlTrfTxService

Critical Paths under _main in BANK0

    None.

Critical Paths under _main in BANK1

    None.

Critical Paths under _main in BANK2

    None.

Critical Paths under _main in BANK3

    None.

Critical Paths under _main in BANK4l

    None.

Critical Paths under _main in BANK5hhh

    None.

Critical Paths under _main in BANK5hhl

    None.

Critical Paths under _main in BANK5hl

    None.

Critical Paths under _main in BANK5l

    None.

Critical Paths under _main in BANK6

    None.

Critical Paths under _main in BANK7

    None.

Call Graph Tables:

 ---------------------------------------------------------------------------------
 (Depth) Function   	        Calls       Base Space   Used Autos Params    Refs
 ---------------------------------------------------------------------------------
 (0) _main                                                10    10      0   29853
                                             24 COMRAM    10    10      0
                      _USBDeviceInit
                     _USBDeviceTasks
               _USBTransferOnePacket
                            ___awdiv
                            ___awmod
 ---------------------------------------------------------------------------------
 (1) ___awmod                                              6     2      4     652
                                              0 COMRAM     6     2      4
 ---------------------------------------------------------------------------------
 (1) ___awdiv                                              8     4      4     834
                                              6 COMRAM     8     4      4
                            ___awmod (ARG)
 ---------------------------------------------------------------------------------
 (1) _USBDeviceTasks                                       2     2      0   26194
                                             22 COMRAM     2     2      0
                   _USBCtrlEPService
                      _USBDeviceInit
                    _USBStallHandler
                         _USBSuspend
                 _USBWakeFromSuspend
    _USER_USB_CALLBACK_EVENT_HANDLER
 ---------------------------------------------------------------------------------
 (2) _USBWakeFromSuspend                                   0     0      0    3937
    _USER_USB_CALLBACK_EVENT_HANDLER
 ---------------------------------------------------------------------------------
 (2) _USBSuspend                                           0     0      0    3937
    _USER_USB_CALLBACK_EVENT_HANDLER
 ---------------------------------------------------------------------------------
 (2) _USBStallHandler                                      1     1      0       0
                                              0 COMRAM     1     1      0
 ---------------------------------------------------------------------------------
 (2) _USBDeviceInit                                        1     1      0     965
                                              8 COMRAM     1     1      0
                             _memset
 ---------------------------------------------------------------------------------
 (2) _USBCtrlEPService                                     3     3      0   13372
                                             19 COMRAM     3     3      0
                _USBCtrlTrfInHandler
               _USBCtrlTrfOutHandler
             _USBCtrlTrfSetupHandler
 ---------------------------------------------------------------------------------
 (3) _USBCtrlTrfSetupHandler                               0     0      0   12984
                 _USBCheckStdRequest
           _USBCtrlEPServiceComplete
    _USER_USB_CALLBACK_EVENT_HANDLER
 ---------------------------------------------------------------------------------
 (4) _USBCtrlEPServiceComplete                             0     0      0     115
                _USBCtrlTrfTxService
 ---------------------------------------------------------------------------------
 (4) _USBCheckStdRequest                                   0     0      0    8932
            _USBStdFeatureReqHandler
                _USBStdGetDscHandler
             _USBStdGetStatusHandler
                _USBStdSetCfgHandler
    _USER_USB_CALLBACK_EVENT_HANDLER
 ---------------------------------------------------------------------------------
 (5) _USBStdSetCfgHandler                                  0     0      0    4834
    _USER_USB_CALLBACK_EVENT_HANDLER
                             _memset
 ---------------------------------------------------------------------------------
 (3) _memset                                               8     2      6     897
                                              0 COMRAM     8     2      6
 ---------------------------------------------------------------------------------
 (2) _USER_USB_CALLBACK_EVENT_HANDLER                      8     2      6    3937
                                             11 COMRAM     8     2      6
                 _USBCBCheckOtherReq
                  _USBCBErrorHandler
                        _USBCBInitEP
              _USBCBStdSetDscHandler
                       _USBCBSuspend
               _USBCBWakeFromSuspend
                  _USBCB_SOF_Handler
 ---------------------------------------------------------------------------------
 (3) _USBCB_SOF_Handler                                    0     0      0       0
 ---------------------------------------------------------------------------------
 (3) _USBCBWakeFromSuspend                                 0     0      0       0
 ---------------------------------------------------------------------------------
 (3) _USBCBSuspend                                         0     0      0       0
 ---------------------------------------------------------------------------------
 (3) _USBCBStdSetDscHandler                                0     0      0       0
 ---------------------------------------------------------------------------------
 (3) _USBCBInitEP                                          0     0      0    1779
                  _USBEnableEndpoint
               _USBTransferOnePacket
 ---------------------------------------------------------------------------------
 (1) _USBTransferOnePacket                                 7     3      4    1089
                                              0 COMRAM     7     3      4
 ---------------------------------------------------------------------------------
 (4) _USBEnableEndpoint                                    4     3      1     690
                                              7 COMRAM     4     3      1
               _USBConfigureEndpoint
 ---------------------------------------------------------------------------------
 (5) _USBConfigureEndpoint                                 7     6      1     446
                                              0 COMRAM     7     6      1
 ---------------------------------------------------------------------------------
 (3) _USBCBErrorHandler                                    0     0      0       0
 ---------------------------------------------------------------------------------
 (3) _USBCBCheckOtherReq                                   0     0      0       0
                 _USBCheckHIDRequest
 ---------------------------------------------------------------------------------
 (4) _USBCheckHIDRequest                                   0     0      0       0
 ---------------------------------------------------------------------------------
 (5) _USBStdGetStatusHandler                               3     3      0      24
                                              0 COMRAM     3     3      0
 ---------------------------------------------------------------------------------
 (5) _USBStdGetDscHandler                                  2     2      0       0
                                              0 COMRAM     2     2      0
 ---------------------------------------------------------------------------------
 (5) _USBStdFeatureReqHandler                              5     5      0     137
                                              0 COMRAM     5     5      0
 ---------------------------------------------------------------------------------
 (3) _USBCtrlTrfOutHandler                                 0     0      0     137
                _USBCtrlTrfRxService
          _USBPrepareForNextSetupTrf
 ---------------------------------------------------------------------------------
 (4) _USBCtrlTrfRxService                                  4     4      0     114
                                              0 COMRAM     4     4      0
 ---------------------------------------------------------------------------------
 (3) _USBCtrlTrfInHandler                                  1     1      0     161
                                              4 COMRAM     1     1      0
                _USBCtrlTrfTxService
          _USBPrepareForNextSetupTrf
 ---------------------------------------------------------------------------------
 (4) _USBPrepareForNextSetupTrf                            2     2      0      23
                                              0 COMRAM     2     2      0
 ---------------------------------------------------------------------------------
 (5) _USBCtrlTrfTxService                                  4     4      0     115
                                              0 COMRAM     4     4      0
 ---------------------------------------------------------------------------------
 Estimated maximum stack depth 5
 ---------------------------------------------------------------------------------

 Call Graph Graphs:

 _main (ROOT)
   _USBDeviceInit
     _memset
   _USBDeviceTasks
     _USBCtrlEPService
       _USBCtrlTrfInHandler
         _USBCtrlTrfTxService
         _USBPrepareForNextSetupTrf
       _USBCtrlTrfOutHandler
         _USBCtrlTrfRxService
         _USBPrepareForNextSetupTrf
       _USBCtrlTrfSetupHandler
         _USBCheckStdRequest
           _USBStdFeatureReqHandler
           _USBStdGetDscHandler
           _USBStdGetStatusHandler
           _USBStdSetCfgHandler
             _USER_USB_CALLBACK_EVENT_HANDLER
               _USBCBCheckOtherReq
                 _USBCheckHIDRequest
               _USBCBErrorHandler
               _USBCBInitEP
                 _USBEnableEndpoint
                   _USBConfigureEndpoint
                 _USBTransferOnePacket
               _USBCBStdSetDscHandler
               _USBCBSuspend
               _USBCBWakeFromSuspend
               _USBCB_SOF_Handler
             _memset
           _USER_USB_CALLBACK_EVENT_HANDLER
             _USBCBCheckOtherReq
               _USBCheckHIDRequest
             _USBCBErrorHandler
             _USBCBInitEP
               _USBEnableEndpoint
                 _USBConfigureEndpoint
               _USBTransferOnePacket
             _USBCBStdSetDscHandler
             _USBCBSuspend
             _USBCBWakeFromSuspend
             _USBCB_SOF_Handler
         _USBCtrlEPServiceComplete
           _USBCtrlTrfTxService
         _USER_USB_CALLBACK_EVENT_HANDLER
           _USBCBCheckOtherReq
             _USBCheckHIDRequest
           _USBCBErrorHandler
           _USBCBInitEP
             _USBEnableEndpoint
               _USBConfigureEndpoint
             _USBTransferOnePacket
           _USBCBStdSetDscHandler
           _USBCBSuspend
           _USBCBWakeFromSuspend
           _USBCB_SOF_Handler
     _USBDeviceInit
       _memset
     _USBStallHandler
     _USBSuspend
       _USER_USB_CALLBACK_EVENT_HANDLER
         _USBCBCheckOtherReq
           _USBCheckHIDRequest
         _USBCBErrorHandler
         _USBCBInitEP
           _USBEnableEndpoint
             _USBConfigureEndpoint
           _USBTransferOnePacket
         _USBCBStdSetDscHandler
         _USBCBSuspend
         _USBCBWakeFromSuspend
         _USBCB_SOF_Handler
     _USBWakeFromSuspend
       _USER_USB_CALLBACK_EVENT_HANDLER
         _USBCBCheckOtherReq
           _USBCheckHIDRequest
         _USBCBErrorHandler
         _USBCBInitEP
           _USBEnableEndpoint
             _USBConfigureEndpoint
           _USBTransferOnePacket
         _USBCBStdSetDscHandler
         _USBCBSuspend
         _USBCBWakeFromSuspend
         _USBCB_SOF_Handler
     _USER_USB_CALLBACK_EVENT_HANDLER
       _USBCBCheckOtherReq
         _USBCheckHIDRequest
       _USBCBErrorHandler
       _USBCBInitEP
         _USBEnableEndpoint
           _USBConfigureEndpoint
         _USBTransferOnePacket
       _USBCBStdSetDscHandler
       _USBCBSuspend
       _USBCBWakeFromSuspend
       _USBCB_SOF_Handler
   _USBTransferOnePacket
   ___awdiv
     ___awmod (ARG)
   ___awmod

 Address spaces:
Name               Size   Autos  Total    Cost      Usage
BIGRAM             3EE      0       0      32        0.0%
BIGRAM_1hhhh       28D      0       0      27        0.0%
EEDATA             100      0       0       0        0.0%
BITBANK7           100      0       0      25        0.0%
BANK7              100      0       0      26        0.0%
BITBANK6           100      0       0      23        0.0%
BANK6              100      0       0      24        0.0%
BITBANK2           100      0       0       8        0.0%
BANK2              100      0       0       9        0.0%
BITBANK1           100      0       0       6        0.0%
BANK1              100      0       0       7        0.0%
BITBANK3            EF      0       0      10        0.0%
BANK3               EF      0       0      11        0.0%
BITBANK0            A0      0       0       4        0.0%
BANK0               A0      0      11       5       10.6%
BANK5hhh            8D      0       0      18        0.0%
BITBANK5hhh         8D      0       0      14        0.0%
BITCOMRAM           5F      0       0       0        0.0%
COMRAM              5F     22      5C       1       96.8%
BITBANK4l           58      0       0      12        0.0%
BANK4l              58      0       0      13        0.0%
BIGRAM_1l           58      0       0      31        0.0%
BIGRAM_1hhhl        3D      0       0      28        0.0%
BANK5hhl            3D      0       0      19        0.0%
BITBANK5hhl         3D      0       0      15        0.0%
BIGRAM_1hl          18      0       0      30        0.0%
BITBANK5l           18      0       0      17        0.0%
BANK5l              18      0       0      21        0.0%
BIGRAM_1hhl          8      0       0      29        0.0%
BANK5hl              8      0       0      20        0.0%
BITBANK5hl           8      0       0      16        0.0%
BITSFR_5             0      0       0      40        0.0%
SFR_5                0      0       0      40        0.0%
BITSFR_4             0      0       0      40        0.0%
SFR_4                0      0       0      40        0.0%
BITSFR_3             0      0       0      40        0.0%
SFR_3                0      0       0      40        0.0%
BITSFR_2             0      0       0      40        0.0%
SFR_2                0      0       0      40        0.0%
BITSFR_1             0      0       0      40        0.0%
SFR_1                0      0       0      40        0.0%
BITSFR               0      0       0      40        0.0%
SFR                  0      0       0      40        0.0%
STACK                0      0       0       2        0.0%
NULL                 0      0       0       0        0.0%
ABS                  0      0      6D      22        0.0%
DATA                 0      0      6D       3        0.0%
CODE                 0      0       0       0        0.0%


Microchip Technology PIC18 Macro Assembler V1.37 build -260352376 
Symbol Table                                                                                   Sun Mar 15 11:23:37 2020

                              _USB_SD_Ptr 0801                                         _a 0022  
                                      l83 0906                              ___awdiv@sign 0045  
                           _USBDeviceInit 15A2                               __CFG_BORV$3 000000  
                      __CFG_FOSC$XTPLL_XT 000000                        _USBCheckHIDRequest 11DC  
    USER_USB_CALLBACK_EVENT_HANDLER@event 0045      USER_USB_CALLBACK_EVENT_HANDLER@pdata 0047  
                                     l105 0A22                                       l107 0AE8  
                                     l108 0A4C                                       l401 0BA2  
             __end_of_USBStdGetDscHandler 11DC                                       l270 0CC4  
                                     l281 0D90                                       l362 0F18  
                                     l282 0DDC                                       l347 12D4  
                                     l283 0DA0                                       l275 0CFA  
                                     l356 1322                                       l269 0CC6  
                                     l391 14F2                                       l392 1484  
                                     l393 1488                                       l563 17F6  
                                     l388 1472                                       _BDT 000400  
                                     _RC0 007C10                                       _RB2 007C0A  
                                     _RC1 007C11                                       _RC2 007C12  
                                     _SE0 007B6D                                       _UIE 000F69  
                                     _UIR 000F68                                _USBSuspend 1B3C  
                            ___awmod@sign 003F                                       prod 000FF3  
                                     wreg 000FE8                            _USBDeviceTasks 0CA8  
                     ?_USBCheckHIDRequest 003A                            _USBDeviceState 0032  
                  ??_USBCBWakeFromSuspend 003A                     ??_USBCtrlTrfRxService 003A  
                USBEnableEndpoint@options 0041                              __CFG_WDT$OFF 000000  
                                    l3011 186A                                      l2303 1230  
                                    l3031 18B0                                      l3023 1898  
                                    l3015 1878                                      l3007 185E  
                                    l2313 125A                                      l2233 168A  
                                    l3017 1880                                      l3113 0A10  
                                    l3105 09E6                                      l2323 127A  
                                    l2307 1234                                      l2243 151C  
                                    l3211 1840                                      l3019 1884  
                                    l3027 18A2                                      l2309 124A  
                                    l3141 0ABA                                      l3109 09FC  
                                    l2407 0E6C                                      l2415 0EA4  
                                    l2503 0F14                                      l2431 10FC  
                                    l2319 1270                                      l2335 129A  
                                    l2271 1A48                                      l2351 17CC  
                                    l2343 1AC6                                      l3143 0AC2  
                                    l3119 0A24                                      l2417 0EAE  
                                    l2425 0EE6                                      l2513 0F56  
                                    l2329 1290                                      l2257 1584  
                                    l3209 1812                                      l2361 17EA  
                                    l2353 17D2                                      l2531 0FDA  
                                    l2435 110E                                      l2451 11C4  
                                    l2363 17F0                                      l2355 17D8  
                                    l2347 1AD6                                      l2603 0BC4  
              USBConfigureEndpoint@handle 003F                                      l2445 11B8  
                                    l2293 1212                                      l2357 17DE  
                                    l3085 0986                                      l2391 0E12  
                                    l2519 0F8E                                      l2447 11BE  
                                    l2439 1168                                      l2295 1218  
                                    l2287 11FC                                      l2359 17E4  
                                    l2367 17FA                                      l2463 1904  
                                    l2543 12DC                                      l3087 098E  
                                    l2385 0DFE                                      l2545 12E2  
                                    l3097 09C0                                      l2731 16EA  
                                    l2715 1A16                                      l2707 19DA  
                                    l2555 12FA                                      l2547 12E8  
                                    l2627 0C56                                      l2811 1A88  
                                    l3099 09C8                                      l2389 0E0A  
                                    l2741 171E                                      l2645 101A  
                                    l2477 14A6                                      l2485 14DA  
                                    l2557 1300                                      l2573 135A  
                                    l2813 1A8A                                      l2901 0D28  
                                    l2655 105C                                      l2647 1034  
                                    l2559 1306                                      l2591 0B64  
                                    l2831 1418                                      l2745 1732  
                                    l2729 16E6                                      l2665 10AA  
                                    l2649 103A                                      l2569 133C  
                                    l2841 1448                                      l2747 1740  
                                    l2667 10B8                                      l2835 1420  
                                    l2843 144E                                      l2771 1608  
                                    l2763 15E6                                      l2931 0D86  
                                    l2923 0D62                                      l2845 1454  
                                    l2773 160A                                      l2917 0D58  
                                    l2909 0D34                                      l2759 15DE  
                                    l2791 1B0A                                      l2951 0DD8  
                                    l2863 0CCE                                      l2689 1992  
                                    l2769 1602                                      l2793 1B0C  
                                    l2937 0D98                                      l2881 0CF2  
                                    l2873 0CE6                                      l2963 175A  
                                    l2949 0DBC                                      l2975 1780  
                                    l2991 17B2                                      l2977 1788  
                                    l2969 176A                                      l2995 17C0  
                                    l2987 17A8                                      l2979 178C  
                                    _ADFM 007E07                                      _ADON 007E10  
                                    _CHS0 007E12                                      _CHS1 007E13  
                                    _CHS2 007E14                                      u1510 0E94  
                                    u1530 0ED6                                      u1517 0E8A  
                                    u2510 09F8                                      u1560 1166  
                                    u1537 0ECC                                      u2610 0AB0  
                                    u2450 09B6                                      u1580 11AE  
                                    u2540 0A0E                                      u1567 1156  
                                    u2480 09E2                                      u2618 0AB2  
                                    u2458 09B8                                      u1587 11A4  
                                    u2667 08CA                                      u2677 08FA  
                                    u2687 0A40                     ??_USBCtrlTrfTxService 003A  
                                    _UCFG 000F6F                                      _UEP0 000F70  
                                    _UEP1 000F71                                      _UEIE 000F6B  
                                    _UEIR 000F6A                                      _UCON 000F6D  
      __size_of_USBPrepareForNextSetupTrf 002E                                      _pDst 002C  
                                    _main 08C4                                      _sayi 002E  
                                    fsr1h 000FE2                                      fsr2h 000FDA  
                                    indf1 000FE7                                      fsr1l 000FE1  
                                    indf2 000FDF                                      fsr2l 000FD9  
                                    _uyan 0060                                      prodh 000FF4  
                                    prodl 000FF3                                      start 0002  
                      _USBCBCheckOtherReq 1B6A                      ??_USBCheckHIDRequest 003A  
              __end_of_USBCheckStdRequest 139E                    ??_USBCtrlTrfOutHandler 003E  
                           __CFG_MCLRE$ON 000000                              ___param_bank 000010  
               ??_USBStdFeatureReqHandler 003A                              _USBOutHandle 0020  
                ??_USBStdGetStatusHandler 003A                            ?_USBDeviceInit 003A  
                     ?_USBCBCheckOtherReq 003A                             __CFG_PLLDIV$1 000000  
                                   _ADCS0 007E00                                     _ADCS1 007E01  
                                   _ADCS2 007E02                                     ?_main 003A  
                         __end_of___awdiv 17CA                           __end_of___awmod 18BA  
       __size_of_USBCtrlEPServiceComplete 01A0                           ___awdiv@divisor 0042  
                  __end_of_USBDeviceTasks 0DE0                 ?_USBCtrlEPServiceComplete 003A  
                                   _PCFG0 007E08                                     _PCFG1 007E09  
                                   _PCFG2 007E0A                                     _PCFG3 007E0B  
                                   _UADDR 000F6E                           ___awdiv@counter 0044  
                                   _PORTB 000F81                                     _PORTC 000F82  
                           __CFG_USBDIV$2 000000                                     _TRISB 000F93  
                                   _TRISC 000F94                                     _USTAT 000F6C  
                           __CFG_PWRT$OFF 000000                            __CFG_FCMEN$OFF 000000  
                                   _sd000 08BF                                     _sd001 0809  
                                   _sd002 083D                                     _bolum 0024  
                                   _index 0026                      ??_USBCBCheckOtherReq 003A  
                                   tablat 000FF5                                     status 000FD8  
            __size_of_USBStdSetCfgHandler 006C                           __initialization 1926  
                            __end_of_main 0B08                 __size_of_USBCtrlEPService 00C6  
                                  ??_main 0052                             __activetblptr 000002  
                         ?_USBDeviceTasks 003A                               ?_USBSuspend 003A  
                                  _ADRESH 000FC4                                    _ADRESL 000FC3  
                        ___awdiv@dividend 0040                                    _PKTDIS 007B6C  
                                  _RESUME 007B6A                                    _SUSPND 007B69  
                          __CFG_VREGEN$ON 000000                         _shortPacketStatus 0034  
          USBConfigureEndpoint@workaround 003D                           USBDeviceTasks@i 0051  
             USBStdFeatureReqHandler@pUEP 003B                  USBTransferOnePacket@data 003B  
              USBCtrlTrfInHandler@lastDTS 003E                           ??_USBDeviceInit 0042  
                               ??___awdiv 0044                                 ??___awmod 003E  
                            ?_USBCBInitEP 003A                         _USBEnableEndpoint 1A1C  
         __size_of_USBStdGetStatusHandler 00A2                                    _memset 1ABC  
                                  clear_0 192C                                    clear_1 1938  
                        ___awdiv@quotient 0046                           ___awmod@divisor 003C  
                         ___awmod@counter 003E                        ?_USBEnableEndpoint 0041  
                   _USBCBStdSetDscHandler 1B76                             main@tempature 005A  
           __size_of_USBTransferOnePacket 009C                              __pdataCOMRAM 005C  
                            __mediumconst 0000                                    tblptrh 000FF7  
                                  tblptrl 000FF6                                    tblptru 000FF8  
                     ??_USBEnableEndpoint 0042                        _USBInMaxPacketSize 001E  
                             _CtrlTrfData 000520                      _controlTransferState 0033  
                              __accesstop 0060                   __end_of__initialization 1970  
                         __CFG_PBADEN$OFF 000000                             ___rparam_used 000001  
                __size_of_USBStallHandler 0036                       __size_of_USBSuspend 0024  
                          __pcstackCOMRAM 003A                 __end_of_USBEnableEndpoint 1A58  
                           __end_of_sd000 08C3                             __end_of_sd001 083D  
                           __end_of_sd002 0867                              __pidataBANK0 1B60  
                       _USBCB_SOF_Handler 1B70                           _active_protocol 0038  
           __size_of_USBConfigureEndpoint 008A               __end_of_USBCtrlTrfInHandler 1746  
                      ?_USBCB_SOF_Handler 003A                       ??_USBCB_SOF_Handler 003A  
                ??_USBCtrlTrfSetupHandler 004D                    _USBStdGetStatusHandler 1464  
                              __pbssBANK0 0069               __size_of_USBWakeFromSuspend 002A  
                             _pBDTEntryIn 000F          __end_of_USBCtrlEPServiceComplete 0CA8  
               __end_of_USBCB_SOF_Handler 1B72                      USBCtrlTrfRxService@i 003C  
                                 ?_memset 003A                    ?_USBCBStdSetDscHandler 003A  
                              _device_dsc 08AD                          _USBCtrlEPService 139E  
                              _gelen_veri 0069               __end_of_USBCtrlTrfRxService 10EC  
                      _USBCheckStdRequest 12C4                         _configDescriptor1 0867  
                                 _GO_DONE 007E11               __end_of_USBCtrlTrfTxService 0EF0  
                     _USBStdSetCfgHandler 18BA                       ?_USBCheckStdRequest 003A  
            __size_of_USBStdGetDscHandler 00F0                                   _UIEbits 000F69  
           __size_of_USBCBWakeFromSuspend 0002                                   _UIRbits 000F68  
                                 __Hparam 0000                      ?_USBStdSetCfgHandler 003A  
             __size_of_USBCheckHIDRequest 00E8                                   __Lparam 0000  
                       __end_of_hid_rpt01 08AD                __size_of_USBEnableEndpoint 003C  
                    ??_USBCheckStdRequest 004D             __size_of_USBCtrlTrfOutHandler 0050  
                                 ___awdiv 1746                          _ToSendDataBuffer 0004C0  
                                 ___awmod 184A                          ??_USBDeviceTasks 0050  
                       ??_USBStallHandler 003A                              __psmallconst 0800  
                                 __pcinit 1926                           __size_of_memset 002C  
               __end_of_configDescriptor1 0890                                   __ramtop 0800  
                    __size_of_USBCBInitEP 002A                                   __ptext0 08C4  
                                 __ptext1 184A                                   __ptext2 1746  
                                 __ptext3 0CA8                                   __ptext4 1AE8  
                                 __ptext5 1B3C                                   __ptext6 1A58  
                                 __ptext7 15A2                                   __ptext8 139E  
                                 __ptext9 197A                                   _inPipes 0009  
                            ??_USBSuspend 004D                         _USBCBErrorHandler 1B78  
                        ___awmod@dividend 003A                        ?_USBCBErrorHandler 003A  
                           ?_USBCBSuspend 003A                        __end_of_USB_CD_Ptr 0809  
         __size_of_USBCtrlTrfSetupHandler 0052                                   main@say 0054  
                    end_of_initialization 1970               __size_of_USBCBCheckOtherReq 0006  
                      __end_of_USB_SD_Ptr 0807                       _pBDTEntryEP0OutNext 002A  
                     ??_USBCBErrorHandler 003A                                   memset@c 003C  
                                 memset@n 003E                                   memset@p 0040  
                           __Lmediumconst 0000                  ?_USBStdFeatureReqHandler 003A  
              ?_USBPrepareForNextSetupTrf 003A                     ??_USBStdSetCfgHandler 004D  
              __size_of_USBCB_SOF_Handler 0002                        __end_of_USBSuspend 1B60  
                                 postdec1 000FE5                                   postdec2 000FDD  
                                 postinc0 000FEE                                   postinc1 000FE6  
                                 postinc2 000FDE                  _USBCtrlEPServiceComplete 0B08  
                      USBEnableEndpoint@p 0042                 __end_of_USBCBErrorHandler 1B7A  
                               _USBInData 0017                            ??_USBCBSuspend 003A  
                      _ReceivedDataBuffer 000480                        _BothEP0OutUOWNsSet 0030  
               USBConfigureEndpoint@EPNum 003E       USER_USB_CALLBACK_EVENT_HANDLER@size 0049  
                               _USTATcopy 0037              __end_of_USBTransferOnePacket 15A2  
       __end_of_USBPrepareForNextSetupTrf 1ABC                    _USBCtrlTrfSetupHandler 197A  
                   __end_of_USBDeviceInit 1632                             __pidataCOMRAM 1B7A  
                          __end_of_memset 1AE8                       start_initialization 1926  
                 ?_USBStdGetStatusHandler 003A             USBCtrlTrfRxService@byteToRead 003D  
            __end_of_USBConfigureEndpoint 16BC           __end_of_USBStdFeatureReqHandler 0FF8  
                __end_of_USBCtrlEPService 1464                            USBDeviceInit@i 0042  
                  _pBDTEntryEP0OutCurrent 0028                   USBTransferOnePacket@dir 003A  
                 USBTransferOnePacket@len 003D                   ??_USBCBStdSetDscHandler 003A  
                     _USBStdGetDscHandler 10EC                               __pdataBANK0 0060  
                                ??_memset 0040                __size_of_USBCBErrorHandler 0002  
              USBPrepareForNextSetupTrf@p 003A                    _USBActiveConfiguration 0035  
          __end_of_USBStdGetStatusHandler 1506                               __pbssCOMRAM 0001  
            __size_of_USBCtrlTrfInHandler 008A                      ?_USBStdGetDscHandler 003A  
              __end_of_USBWakeFromSuspend 1B12                           _USBStallHandler 1A58  
                            _pBDTEntryOut 0013                      __end_of_USBCBSuspend 1B76  
            __end_of_USBCBWakeFromSuspend 1B74                                  ?___awdiv 0040  
                                ?___awmod 003A                                 _hid_rpt01 0890  
                               _idle_rate 0039                USBCBSendResume@delay_count 001A  
                    _USBTransferOnePacket 1506                               __smallconst 0800  
            __end_of_USBCtrlTrfOutHandler 1A1C                     ??_USBStdGetDscHandler 003A  
            __size_of_USBCtrlTrfRxService 00F4             USBConfigureEndpoint@direction 003A  
            __size_of_USBCtrlTrfTxService 0110                __end_of_USBCheckHIDRequest 12C4  
              ??_USBCtrlEPServiceComplete 003E               ??_USBPrepareForNextSetupTrf 003A  
                                _PIR2bits 000FA1                 USBCtrlEPService@setup_cnt 004F  
                        __CFG_WDTPS$32768 000000                                  _UEP0bits 000F70  
                           ??_USBCBInitEP 0045               __size_of_USBCheckStdRequest 00DA  
                                _UCONbits 000F6D                      _USBConfigureEndpoint 1632  
        __size_of_USBStdFeatureReqHandler 0108                     ?_USBTransferOnePacket 003A  
                            _RemoteWakeup 0031                __end_of_USBCBCheckOtherReq 1B70  
                 __end_of_USBStallHandler 1A8E                                 copy_data0 1952  
             __end_of_USBStdSetCfgHandler 1926                            _hid_report_out 000530  
                      __end_of_device_dsc 08BF                   ?_USBCtrlTrfSetupHandler 003A  
                 USBStdGetStatusHandler@p 003B                                  __Hrparam 0000  
                                __Lrparam 0000                    USBTransferOnePacket@ep 003E  
                                _SetupPkt 000500                     ?_USBConfigureEndpoint 003A  
                        __size_of___awdiv 0084                          __size_of___awmod 0070  
                        _blinkStatusValid 005C                 _USBPrepareForNextSetupTrf 1A8E  
                     __end_of_USBCBInitEP 1B3C                                  _main$206 0058  
                                _main$170 0056                   __size_of_USBDeviceTasks 0138  
                                __ptext10 0B08                                  __ptext11 12C4  
                                __ptext20 1506                                  __ptext12 18BA  
                                __ptext21 1A1C                                  __ptext13 1ABC  
                                __ptext30 0FF8                                  __ptext22 1632  
                                __ptext14 17CA                                  __ptext31 16BC  
                                __ptext23 1B78                                  __ptext15 1B70  
                                __ptext32 1A8E                                  __ptext24 1B6A  
                                __ptext16 1B72                                  __ptext33 0DE0  
                                __ptext25 11DC                                  __ptext17 1B74  
                                __ptext26 1464                                  __ptext18 1B76  
                                __ptext27 10EC                                  __ptext19 1B12  
                                __ptext28 0EF0                                  __ptext29 19CC  
                    _USBCBWakeFromSuspend 1B72            __end_of_USBCtrlTrfSetupHandler 19CC  
                           __size_of_main 0244                         ?_USBCtrlEPService 003A  
                   __size_of_USBCBSuspend 0002                        ??_USBCtrlEPService 004D  
                     _USBCtrlTrfInHandler 16BC                                  _outPipes 0001  
                    _USBCtrlTrfOutHandler 19CC            __size_of_USBCBStdSetDscHandler 0002  
           __end_of_USBCBStdSetDscHandler 1B78                    ??_USBTransferOnePacket 003E  
                   __CFG_CPUDIV$OSC4_PLL6 000000                             _hid_report_in 000570  
                    ?_USBCtrlTrfInHandler 003A             USBCtrlTrfTxService@byteToSend 003C  
                                memset@p1 003A                              _USBCBSuspend 1B74  
                        ?_USBStallHandler 003A                  USBStdFeatureReqHandler@p 003D  
                   ?_USBCBWakeFromSuspend 003A                    __size_of_USBDeviceInit 0090  
 __end_of_USER_USB_CALLBACK_EVENT_HANDLER 184A  __size_of_USER_USB_CALLBACK_EVENT_HANDLER 0080  
       ??_USER_USB_CALLBACK_EVENT_HANDLER 004B          ?_USER_USB_CALLBACK_EVENT_HANDLER 0045  
         _USER_USB_CALLBACK_EVENT_HANDLER 17CA                    ??_USBConfigureEndpoint 003B  
                   ?_USBCtrlTrfOutHandler 003A                       _USBCtrlTrfRxService 0FF8  
                             _USBCBInitEP 1B12                        _USBWakeFromSuspend 1AE8  
                 _USBStdFeatureReqHandler 0EF0                       _USBCtrlTrfTxService 0DE0  
                     ?_USBWakeFromSuspend 003A                     ??_USBCtrlTrfInHandler 003E  
                   _USBAlternateInterface 0036                       USBEnableEndpoint@ep 0044  
                    ?_USBCtrlTrfRxService 003A                      ?_USBCtrlTrfTxService 003A  
                    ??_USBWakeFromSuspend 004D                USBTransferOnePacket@handle 003F  
                              _USB_CD_Ptr 0807                               _USBInHandle 001C  
