

Microchip Technology PIC18 LITE Macro Assembler V1.37 build -260352376 
                                                                                               Sat Mar 14 21:41:26 2020

Microchip Technology Omniscient Code Generator v1.37 (Free mode) build 201603110536
     1                           	processor	18F4450
     2                           	fnconf	rparam,??,?,0
     3                           	opt	pw 120
     4                           	opt	lm
     5                           	psect	idataCOMRAM,global,class=CODE,delta=1
     6                           	psect	idataBANK0,global,class=CODE,delta=1
     7                           	psect	smallconst,global,reloc=2,class=SMALLCONST,delta=1
     8                           	psect	cinit,global,reloc=2,class=CODE,delta=1
     9                           	psect	bssCOMRAM,global,class=COMRAM,space=1,delta=1
    10                           	psect	dataCOMRAM,global,class=COMRAM,space=1,delta=1
    11                           	psect	bssBANK0,global,class=BANK0,space=1,delta=1
    12                           	psect	dataBANK0,global,class=BANK0,space=1,delta=1
    13                           	psect	cstackCOMRAM,global,class=COMRAM,space=1,delta=1
    14                           	psect	text0,global,reloc=2,class=CODE,delta=1
    15                           	psect	text1,global,reloc=2,class=CODE,delta=1
    16                           	psect	text2,global,reloc=2,class=CODE,delta=1
    17                           	psect	text3,global,reloc=2,class=CODE,delta=1
    18                           	psect	text4,global,reloc=2,class=CODE,delta=1
    19                           	psect	text5,global,reloc=2,class=CODE,delta=1
    20                           	psect	text6,global,reloc=2,class=CODE,delta=1
    21                           	psect	text7,global,reloc=2,class=CODE,delta=1
    22                           	psect	text8,global,reloc=2,class=CODE,delta=1
    23                           	psect	text9,global,reloc=2,class=CODE,delta=1
    24                           	psect	text10,global,reloc=2,class=CODE,delta=1
    25                           	psect	text11,global,reloc=2,class=CODE,delta=1
    26                           	psect	text12,global,reloc=2,class=CODE,delta=1
    27                           	psect	text13,global,reloc=2,class=CODE,delta=1
    28                           	psect	text14,global,reloc=2,class=CODE,delta=1
    29                           	psect	text15,global,reloc=2,class=CODE,delta=1
    30                           	psect	text16,global,reloc=2,class=CODE,delta=1
    31                           	psect	text17,global,reloc=2,class=CODE,delta=1
    32                           	psect	text18,global,reloc=2,class=CODE,delta=1
    33                           	psect	text19,global,reloc=2,class=CODE,delta=1
    34                           	psect	text20,global,reloc=2,class=CODE,delta=1
    35                           	psect	text21,global,reloc=2,class=CODE,delta=1
    36                           	psect	text22,global,reloc=2,class=CODE,delta=1
    37                           	psect	text23,global,reloc=2,class=CODE,delta=1
    38                           	psect	text24,global,reloc=2,class=CODE,delta=1
    39                           	psect	text25,global,reloc=2,class=CODE,delta=1
    40                           	psect	text26,global,reloc=2,class=CODE,delta=1
    41                           	psect	text27,global,reloc=2,class=CODE,delta=1
    42                           	psect	text28,global,reloc=2,class=CODE,delta=1
    43                           	psect	text29,global,reloc=2,class=CODE,delta=1
    44                           	psect	text30,global,reloc=2,class=CODE,delta=1
    45                           	psect	text31,global,reloc=2,class=CODE,delta=1
    46                           	psect	text32,global,reloc=2,class=CODE,delta=1
    47                           	psect	text33,global,reloc=2,class=CODE,delta=1
    48                           	psect	text34,global,reloc=2,class=CODE,delta=1
    49                           	psect	text35,global,reloc=2,class=CODE,delta=1
    50                           	psect	text36,global,reloc=2,class=CODE,delta=1
    51                           	psect	intsave_regs,global,class=BIGRAM,space=1,delta=1
    52                           	psect	rparam,global,class=COMRAM,space=1,delta=1
    53                           	dabs	1,0x4C0,64,_ToSendDataBuffer
    54                           	dabs	1,0x480,64,_ReceivedDataBuffer
    55                           	dabs	1,0x400,32,_BDT
    56  0000                     
    57                           	psect	idataCOMRAM
    58  001B1A                     __pidataCOMRAM:
    59                           	opt stack 0
    60                           
    61                           ;initializer for _blinkStatusValid
    62  001B1A  01                 	db	1
    63                           
    64                           	psect	idataBANK0
    65  001AEE                     __pidataBANK0:
    66                           	opt stack 0
    67                           
    68                           ;initializer for _senk
    69  001AEE  30                 	db	48
    70  001AEF  30                 	db	48
    71  001AF0  30                 	db	48
    72  001AF1  30                 	db	48
    73  001AF2  30                 	db	48
    74  001AF3  30                 	db	48
    75  001AF4  30                 	db	48
    76  001AF5  30                 	db	48
    77  001AF6  00                 	db	0
    78                           
    79                           ;initializer for _senk1
    80  001AF7  31                 	db	49
    81  001AF8  31                 	db	49
    82  001AF9  31                 	db	49
    83  001AFA  31                 	db	49
    84  001AFB  31                 	db	49
    85  001AFC  31                 	db	49
    86  001AFD  31                 	db	49
    87  001AFE  31                 	db	49
    88  001AFF  00                 	db	0
    89                           
    90                           ;initializer for _uyan
    91  001B00  30                 	db	48
    92  001B01  31                 	db	49
    93  001B02  30                 	db	48
    94  001B03  31                 	db	49
    95  001B04  30                 	db	48
    96  001B05  31                 	db	49
    97  001B06  30                 	db	48
    98  001B07  31                 	db	49
    99  001B08  00                 	db	0
   100                           
   101                           	psect	smallconst
   102  000500                     __psmallconst:
   103                           	opt stack 0
   104  000500  00                 	db	0
   105  000501                     _USB_SD_Ptr:
   106                           	opt stack 0
   107  000501  BF                 	db	low _sd000
   108  000502  05                 	db	high _sd000
   109  000503  09                 	db	low _sd001
   110  000504  05                 	db	high _sd001
   111  000505  3D                 	db	low _sd002
   112  000506  05                 	db	high _sd002
   113  000507                     __end_of_USB_SD_Ptr:
   114                           	opt stack 0
   115  000507                     _USB_CD_Ptr:
   116                           	opt stack 0
   117  000507  67                 	db	low _configDescriptor1
   118  000508  05                 	db	high _configDescriptor1
   119  000509                     __end_of_USB_CD_Ptr:
   120                           	opt stack 0
   121  000509                     _sd001:
   122                           	opt stack 0
   123  000509  34                 	db	52
   124  00050A  03                 	db	3
   125  00050B  004D               	dw	77
   126  00050D  0069               	dw	105
   127  00050F  0063               	dw	99
   128  000511  0072               	dw	114
   129  000513  006F               	dw	111
   130  000515  0063               	dw	99
   131  000517  0068               	dw	104
   132  000519  0069               	dw	105
   133  00051B  0070               	dw	112
   134  00051D  0020               	dw	32
   135  00051F  0054               	dw	84
   136  000521  0065               	dw	101
   137  000523  0063               	dw	99
   138  000525  0068               	dw	104
   139  000527  006E               	dw	110
   140  000529  006F               	dw	111
   141  00052B  006C               	dw	108
   142  00052D  006F               	dw	111
   143  00052F  0067               	dw	103
   144  000531  0079               	dw	121
   145  000533  0020               	dw	32
   146  000535  0049               	dw	73
   147  000537  006E               	dw	110
   148  000539  0063               	dw	99
   149  00053B  002E               	dw	46
   150  00053D                     __end_of_sd001:
   151                           	opt stack 0
   152  00053D                     _sd002:
   153                           	opt stack 0
   154  00053D  2A                 	db	42
   155  00053E  03                 	db	3
   156  00053F  004D               	dw	77
   157  000541  0049               	dw	73
   158  000543  0043               	dw	67
   159  000545  0052               	dw	82
   160  000547  004F               	dw	79
   161  000549  0045               	dw	69
   162  00054B  004D               	dw	77
   163  00054D  0042               	dw	66
   164  00054F  0045               	dw	69
   165  000551  0044               	dw	68
   166  000553  0045               	dw	69
   167  000555  0044               	dw	68
   168  000557  0020               	dw	32
   169  000559  0055               	dw	85
   170  00055B  0053               	dw	83
   171  00055D  0042               	dw	66
   172  00055F  0020               	dw	32
   173  000561  0049               	dw	73
   174  000563  004F               	dw	79
   175  000565  0020               	dw	32
   176  000567                     __end_of_sd002:
   177                           	opt stack 0
   178  000567                     _configDescriptor1:
   179                           	opt stack 0
   180  000567  09                 	db	9
   181  000568  02                 	db	2
   182  000569  29                 	db	41
   183  00056A  00                 	db	0
   184  00056B  01                 	db	1
   185  00056C  01                 	db	1
   186  00056D  00                 	db	0
   187  00056E  C0                 	db	192
   188  00056F  32                 	db	50
   189  000570  09                 	db	9
   190  000571  04                 	db	4
   191  000572  00                 	db	0
   192  000573  00                 	db	0
   193  000574  02                 	db	2
   194  000575  03                 	db	3
   195  000576  00                 	db	0
   196  000577  00                 	db	0
   197  000578  00                 	db	0
   198  000579  09                 	db	9
   199  00057A  21                 	db	33
   200  00057B  11                 	db	17
   201  00057C  01                 	db	1
   202  00057D  00                 	db	0
   203  00057E  01                 	db	1
   204  00057F  22                 	db	34
   205  000580  1D                 	db	29
   206  000581  00                 	db	0
   207  000582  07                 	db	7
   208  000583  05                 	db	5
   209  000584  81                 	db	129
   210  000585  03                 	db	3
   211  000586  40                 	db	64
   212  000587  00                 	db	0
   213  000588  01                 	db	1
   214  000589  07                 	db	7
   215  00058A  05                 	db	5
   216  00058B  01                 	db	1
   217  00058C  03                 	db	3
   218  00058D  40                 	db	64
   219  00058E  00                 	db	0
   220  00058F  01                 	db	1
   221  000590                     __end_of_configDescriptor1:
   222                           	opt stack 0
   223  000590                     _hid_rpt01:
   224                           	opt stack 0
   225  000590  06                 	db	6
   226  000591  00                 	db	0
   227  000592  FF                 	db	255
   228  000593  09                 	db	9
   229  000594  01                 	db	1
   230  000595  A1                 	db	161
   231  000596  01                 	db	1
   232  000597  19                 	db	25
   233  000598  01                 	db	1
   234  000599  29                 	db	41
   235  00059A  40                 	db	64
   236  00059B  15                 	db	21
   237  00059C  00                 	db	0
   238  00059D  26                 	db	38
   239  00059E  FF                 	db	255
   240  00059F  00                 	db	0
   241  0005A0  75                 	db	117
   242  0005A1  08                 	db	8
   243  0005A2  95                 	db	149
   244  0005A3  40                 	db	64
   245  0005A4  81                 	db	129
   246  0005A5  00                 	db	0
   247  0005A6  19                 	db	25
   248  0005A7  01                 	db	1
   249  0005A8  29                 	db	41
   250  0005A9  40                 	db	64
   251  0005AA  91                 	db	145
   252  0005AB  00                 	db	0
   253  0005AC  C0                 	db	192
   254  0005AD                     __end_of_hid_rpt01:
   255                           	opt stack 0
   256  0005AD                     _device_dsc:
   257                           	opt stack 0
   258  0005AD  12                 	db	18
   259  0005AE  01                 	db	1
   260  0005AF  0200               	dw	512
   261  0005B1  00                 	db	0
   262  0005B2  00                 	db	0
   263  0005B3  00                 	db	0
   264  0005B4  08                 	db	8
   265  0005B5  04D8               	dw	1240
   266  0005B7  0042               	dw	66
   267  0005B9  0002               	dw	2
   268  0005BB  01                 	db	1
   269  0005BC  02                 	db	2
   270  0005BD  00                 	db	0
   271  0005BE  01                 	db	1
   272  0005BF                     __end_of_device_dsc:
   273                           	opt stack 0
   274  0005BF                     _sd000:
   275                           	opt stack 0
   276  0005BF  04                 	db	4
   277  0005C0  03                 	db	3
   278  0005C1  0409               	dw	1033
   279  0005C3                     __end_of_sd000:
   280                           	opt stack 0
   281  0000                     _PORTB	set	3969
   282  0000                     _PORTC	set	3970
   283  0000                     _PORTD	set	3971
   284  0000                     _PORTE	set	3972
   285  0000                     _TRISB	set	3987
   286  0000                     _TRISC	set	3988
   287  0000                     _TRISD	set	3989
   288  0000                     _TRISE	set	3990
   289  0000                     _UADDR	set	3950
   290  0000                     _UCFG	set	3951
   291  0000                     _UCON	set	3949
   292  0000                     _UCONbits	set	3949
   293  0000                     _UEIE	set	3947
   294  0000                     _UEIR	set	3946
   295  0000                     _UEP0bits	set	3952
   296  0000                     _UIE	set	3945
   297  0000                     _UIEbits	set	3945
   298  0000                     _UIR	set	3944
   299  0000                     _UIRbits	set	3944
   300  0000                     _USTAT	set	3948
   301  0000                     _UEP0	set	3952
   302  0000                     _UEP1	set	3953
   303  0000                     _PKTDIS	set	31596
   304  0000                     _RB2	set	31754
   305  0000                     _RC0	set	31760
   306  0000                     _RC1	set	31761
   307  0000                     _RC2	set	31762
   308  0000                     _RD0	set	31768
   309  0000                     _RESUME	set	31594
   310  0000                     _SE0	set	31597
   311  0000                     _SUSPND	set	31593
   312  0000                     _ADRESH	set	4036
   313  0000                     _ADRESL	set	4035
   314  0000                     _PIR2bits	set	4001
   315  0000                     _ADCS0	set	32256
   316  0000                     _ADCS1	set	32257
   317  0000                     _ADCS2	set	32258
   318  0000                     _ADFM	set	32263
   319  0000                     _ADON	set	32272
   320  0000                     _CHS0	set	32274
   321  0000                     _CHS1	set	32275
   322  0000                     _CHS2	set	32276
   323  0000                     _GO_DONE	set	32273
   324  0000                     _PCFG0	set	32264
   325  0000                     _PCFG1	set	32265
   326  0000                     _PCFG2	set	32266
   327  0000                     _PCFG3	set	32267
   328                           
   329                           ; #config settings
   330  0005C3  00                 	db	0	; dummy byte at the end
   331  0000                     
   332                           	psect	cinit
   333  0018B4                     __pcinit:
   334                           	opt stack 0
   335  0018B4                     start_initialization:
   336                           	opt stack 0
   337  0018B4                     __initialization:
   338                           	opt stack 0
   339                           
   340                           ; Clear objects allocated to BANK0 (8 bytes)
   341  0018B4  EE00  F07B         	lfsr	0,__pbssBANK0
   342  0018B8  0E08               	movlw	8
   343  0018BA                     clear_0:
   344  0018BA  6AEE               	clrf	postinc0,c
   345  0018BC  06E8               	decf	wreg,f,c
   346  0018BE  E1FD               	bnz	clear_0
   347                           
   348                           ; Clear objects allocated to COMRAM (57 bytes)
   349  0018C0  EE00  F001         	lfsr	0,__pbssCOMRAM
   350  0018C4  0E39               	movlw	57
   351  0018C6                     clear_1:
   352  0018C6  6AEE               	clrf	postinc0,c
   353  0018C8  06E8               	decf	wreg,f,c
   354  0018CA  E1FD               	bnz	clear_1
   355                           
   356                           ; Initialize objects allocated to BANK0 (27 bytes)
   357                           ; load TBLPTR registers with __pidataBANK0
   358  0018CC  0EEE               	movlw	low __pidataBANK0
   359  0018CE  6EF6               	movwf	tblptrl,c
   360  0018D0  0E1A               	movlw	high __pidataBANK0
   361  0018D2  6EF7               	movwf	tblptrh,c
   362  0018D4  0E00               	movlw	low (__pidataBANK0 shr (0+16))
   363  0018D6  6EF8               	movwf	tblptru,c
   364  0018D8  EE00  F060         	lfsr	0,__pdataBANK0
   365  0018DC  EE10 F01B          	lfsr	1,27
   366  0018E0                     copy_data0:
   367  0018E0  0009               	tblrd		*+
   368  0018E2  CFF5 FFEE          	movff	tablat,postinc0
   369  0018E6  50E5               	movf	postdec1,w,c
   370  0018E8  50E1               	movf	fsr1l,w,c
   371  0018EA  E1FA               	bnz	copy_data0
   372                           
   373                           ; Initialize objects allocated to COMRAM (1 bytes)
   374                           ; load TBLPTR registers with __pidataCOMRAM
   375  0018EC  0E1A               	movlw	low __pidataCOMRAM
   376  0018EE  6EF6               	movwf	tblptrl,c
   377  0018F0  0E1B               	movlw	high __pidataCOMRAM
   378  0018F2  6EF7               	movwf	tblptrh,c
   379  0018F4  0E00               	movlw	low (__pidataCOMRAM shr (0+16))
   380  0018F6  6EF8               	movwf	tblptru,c
   381  0018F8  0009               	tblrd		*+	;fetch initializer
   382  0018FA  CFF5 F05C          	movff	tablat,__pdataCOMRAM
   383  0018FE                     end_of_initialization:
   384                           	opt stack 0
   385  0018FE                     __end_of__initialization:
   386                           	opt stack 0
   387  0018FE  0E00               	movlw	low (__Lmediumconst shr (0+16))
   388  001900  6EF8               	movwf	tblptru,c
   389  001902  0100               	movlb	0
   390  001904  EFE2  F002         	goto	_main	;jump to C main() function
   391                           tblptru	equ	0xFF8
   392                           tblptrh	equ	0xFF7
   393                           tblptrl	equ	0xFF6
   394                           tablat	equ	0xFF5
   395                           postinc0	equ	0xFEE
   396                           wreg	equ	0xFE8
   397                           postdec1	equ	0xFE5
   398                           fsr1l	equ	0xFE1
   399                           
   400                           	psect	bssCOMRAM
   401  000001                     __pbssCOMRAM:
   402                           	opt stack 0
   403  000001                     _outPipes:
   404                           	opt stack 0
   405  000001                     	ds	8
   406  000009                     _inPipes:
   407                           	opt stack 0
   408  000009                     	ds	6
   409  00000F                     _pBDTEntryIn:
   410                           	opt stack 0
   411  00000F                     	ds	4
   412  000013                     _pBDTEntryOut:
   413                           	opt stack 0
   414  000013                     	ds	4
   415  000017                     _USBInData:
   416                           	opt stack 0
   417  000017                     	ds	3
   418  00001A                     USBCBSendResume@delay_count:
   419                           	opt stack 0
   420  00001A                     	ds	2
   421  00001C                     _USBInHandle:
   422                           	opt stack 0
   423  00001C                     	ds	2
   424  00001E                     _USBInMaxPacketSize:
   425                           	opt stack 0
   426  00001E                     	ds	2
   427  000020                     _USBOutHandle:
   428                           	opt stack 0
   429  000020                     	ds	2
   430  000022                     _a:
   431                           	opt stack 0
   432  000022                     	ds	2
   433  000024                     _bolum:
   434                           	opt stack 0
   435  000024                     	ds	2
   436  000026                     _index:
   437                           	opt stack 0
   438  000026                     	ds	2
   439  000028                     _pBDTEntryEP0OutCurrent:
   440                           	opt stack 0
   441  000028                     	ds	2
   442  00002A                     _pBDTEntryEP0OutNext:
   443                           	opt stack 0
   444  00002A                     	ds	2
   445  00002C                     _pDst:
   446                           	opt stack 0
   447  00002C                     	ds	2
   448  00002E                     _sayi:
   449                           	opt stack 0
   450  00002E                     	ds	2
   451  000030                     _BothEP0OutUOWNsSet:
   452                           	opt stack 0
   453  000030                     	ds	1
   454  000031                     _RemoteWakeup:
   455                           	opt stack 0
   456  000031                     	ds	1
   457  000032                     _USBDeviceState:
   458                           	opt stack 0
   459  000032                     	ds	1
   460  000033                     _controlTransferState:
   461                           	opt stack 0
   462  000033                     	ds	1
   463  000034                     _shortPacketStatus:
   464                           	opt stack 0
   465  000034                     	ds	1
   466  000035                     _USBActiveConfiguration:
   467                           	opt stack 0
   468  000035                     	ds	1
   469  000036                     _USBAlternateInterface:
   470                           	opt stack 0
   471  000036                     	ds	1
   472  000037                     _USTATcopy:
   473                           	opt stack 0
   474  000037                     	ds	1
   475  000038                     _active_protocol:
   476                           	opt stack 0
   477  000038                     	ds	1
   478  000039                     _idle_rate:
   479                           	opt stack 0
   480  000039                     	ds	1
   481                           tblptru	equ	0xFF8
   482                           tblptrh	equ	0xFF7
   483                           tblptrl	equ	0xFF6
   484                           tablat	equ	0xFF5
   485                           postinc0	equ	0xFEE
   486                           wreg	equ	0xFE8
   487                           postdec1	equ	0xFE5
   488                           fsr1l	equ	0xFE1
   489                           
   490                           	psect	dataCOMRAM
   491  00005C                     __pdataCOMRAM:
   492                           	opt stack 0
   493  00005C                     _blinkStatusValid:
   494                           	opt stack 0
   495  00005C                     	ds	1
   496                           tblptru	equ	0xFF8
   497                           tblptrh	equ	0xFF7
   498                           tblptrl	equ	0xFF6
   499                           tablat	equ	0xFF5
   500                           postinc0	equ	0xFEE
   501                           wreg	equ	0xFE8
   502                           postdec1	equ	0xFE5
   503                           fsr1l	equ	0xFE1
   504                           
   505                           	psect	bssBANK0
   506  00007B                     __pbssBANK0:
   507                           	opt stack 0
   508  00007B                     _gelen_veri:
   509                           	opt stack 0
   510  00007B                     	ds	8
   511                           tblptru	equ	0xFF8
   512                           tblptrh	equ	0xFF7
   513                           tblptrl	equ	0xFF6
   514                           tablat	equ	0xFF5
   515                           postinc0	equ	0xFEE
   516                           wreg	equ	0xFE8
   517                           postdec1	equ	0xFE5
   518                           fsr1l	equ	0xFE1
   519                           
   520                           	psect	dataBANK0
   521  000060                     __pdataBANK0:
   522                           	opt stack 0
   523  000060                     _senk:
   524                           	opt stack 0
   525  000060                     	ds	9
   526  000069                     _senk1:
   527                           	opt stack 0
   528  000069                     	ds	9
   529  000072                     _uyan:
   530                           	opt stack 0
   531  000072                     	ds	9
   532                           tblptru	equ	0xFF8
   533                           tblptrh	equ	0xFF7
   534                           tblptrl	equ	0xFF6
   535                           tablat	equ	0xFF5
   536                           postinc0	equ	0xFEE
   537                           wreg	equ	0xFE8
   538                           postdec1	equ	0xFE5
   539                           fsr1l	equ	0xFE1
   540                           
   541                           	psect	cstackCOMRAM
   542  00003A                     __pcstackCOMRAM:
   543                           	opt stack 0
   544  00003A                     ??_USBCtrlTrfRxService:
   545  00003A                     ??_USBCtrlTrfTxService:
   546  00003A                     ??_USBStdGetDscHandler:
   547  00003A                     ??_USBStdGetStatusHandler:
   548  00003A                     ??_USBStdFeatureReqHandler:
   549  00003A                     ??_uyandir:
   550  00003A                     ??_senkron:
   551  00003A                     ?_USBTransferOnePacket:
   552                           	opt stack 0
   553  00003A                     ?___awmod:
   554                           	opt stack 0
   555  00003A                     USBConfigureEndpoint@direction:
   556                           	opt stack 0
   557  00003A                     USBTransferOnePacket@dir:
   558                           	opt stack 0
   559  00003A                     USBPrepareForNextSetupTrf@p:
   560                           	opt stack 0
   561  00003A                     ___awmod@dividend:
   562                           	opt stack 0
   563  00003A                     memset@p1:
   564                           	opt stack 0
   565                           
   566                           ; 2 bytes @ 0x0
   567  00003A                     	ds	1
   568  00003B                     ??_USBConfigureEndpoint:
   569  00003B                     USBStdFeatureReqHandler@pUEP:
   570                           	opt stack 0
   571  00003B                     USBStdGetStatusHandler@p:
   572                           	opt stack 0
   573  00003B                     USBTransferOnePacket@data:
   574                           	opt stack 0
   575  00003B                     uyandir@a:
   576                           	opt stack 0
   577  00003B                     senkron@a:
   578                           	opt stack 0
   579                           
   580                           ; 2 bytes @ 0x1
   581  00003B                     	ds	1
   582  00003C                     USBCtrlTrfRxService@i:
   583                           	opt stack 0
   584  00003C                     USBCtrlTrfTxService@byteToSend:
   585                           	opt stack 0
   586  00003C                     ___awmod@divisor:
   587                           	opt stack 0
   588  00003C                     memset@c:
   589                           	opt stack 0
   590                           
   591                           ; 2 bytes @ 0x2
   592  00003C                     	ds	1
   593  00003D                     USBCtrlTrfRxService@byteToRead:
   594                           	opt stack 0
   595  00003D                     USBConfigureEndpoint@workaround:
   596                           	opt stack 0
   597  00003D                     USBTransferOnePacket@len:
   598                           	opt stack 0
   599  00003D                     USBStdFeatureReqHandler@p:
   600                           	opt stack 0
   601  00003D                     senkron@a_1762:
   602                           	opt stack 0
   603                           
   604                           ; 2 bytes @ 0x3
   605  00003D                     	ds	1
   606  00003E                     USBCtrlTrfInHandler@lastDTS:
   607                           	opt stack 0
   608  00003E                     USBConfigureEndpoint@EPNum:
   609                           	opt stack 0
   610  00003E                     USBTransferOnePacket@ep:
   611                           	opt stack 0
   612  00003E                     ___awmod@counter:
   613                           	opt stack 0
   614  00003E                     memset@n:
   615                           	opt stack 0
   616                           
   617                           ; 2 bytes @ 0x4
   618  00003E                     	ds	1
   619  00003F                     ___awmod@sign:
   620                           	opt stack 0
   621  00003F                     USBConfigureEndpoint@handle:
   622                           	opt stack 0
   623  00003F                     USBTransferOnePacket@handle:
   624                           	opt stack 0
   625                           
   626                           ; 2 bytes @ 0x5
   627  00003F                     	ds	1
   628  000040                     ?___awdiv:
   629                           	opt stack 0
   630  000040                     ___awdiv@dividend:
   631                           	opt stack 0
   632  000040                     memset@p:
   633                           	opt stack 0
   634                           
   635                           ; 2 bytes @ 0x6
   636  000040                     	ds	1
   637  000041                     USBEnableEndpoint@options:
   638                           	opt stack 0
   639                           
   640                           ; 1 bytes @ 0x7
   641  000041                     	ds	1
   642  000042                     USBDeviceInit@i:
   643                           	opt stack 0
   644  000042                     USBEnableEndpoint@p:
   645                           	opt stack 0
   646  000042                     ___awdiv@divisor:
   647                           	opt stack 0
   648                           
   649                           ; 2 bytes @ 0x8
   650  000042                     	ds	2
   651  000044                     USBEnableEndpoint@ep:
   652                           	opt stack 0
   653  000044                     ___awdiv@counter:
   654                           	opt stack 0
   655                           
   656                           ; 1 bytes @ 0xA
   657  000044                     	ds	1
   658  000045                     ___awdiv@sign:
   659                           	opt stack 0
   660  000045                     USER_USB_CALLBACK_EVENT_HANDLER@event:
   661                           	opt stack 0
   662                           
   663                           ; 2 bytes @ 0xB
   664  000045                     	ds	1
   665  000046                     ___awdiv@quotient:
   666                           	opt stack 0
   667                           
   668                           ; 2 bytes @ 0xC
   669  000046                     	ds	1
   670  000047                     USER_USB_CALLBACK_EVENT_HANDLER@pdata:
   671                           	opt stack 0
   672                           
   673                           ; 2 bytes @ 0xD
   674  000047                     	ds	1
   675  000048                     kodla_gonder@sayi:
   676                           	opt stack 0
   677                           
   678                           ; 2 bytes @ 0xE
   679  000048                     	ds	1
   680  000049                     USER_USB_CALLBACK_EVENT_HANDLER@size:
   681                           	opt stack 0
   682                           
   683                           ; 2 bytes @ 0xF
   684  000049                     	ds	1
   685  00004A                     ??_kodla_gonder:
   686                           
   687                           ; 1 bytes @ 0x10
   688  00004A                     	ds	1
   689  00004B                     ??_USER_USB_CALLBACK_EVENT_HANDLER:
   690                           
   691                           ; 1 bytes @ 0x11
   692  00004B                     	ds	1
   693  00004C                     kodla_gonder@a:
   694                           	opt stack 0
   695                           
   696                           ; 2 bytes @ 0x12
   697  00004C                     	ds	1
   698  00004D                     ??_USBCtrlEPService:
   699  00004D                     
   700                           ; 1 bytes @ 0x13
   701  00004D                     	ds	2
   702  00004F                     USBCtrlEPService@setup_cnt:
   703                           	opt stack 0
   704                           
   705                           ; 1 bytes @ 0x15
   706  00004F                     	ds	1
   707  000050                     ??_USBDeviceTasks:
   708                           
   709                           ; 1 bytes @ 0x16
   710  000050                     	ds	1
   711  000051                     USBDeviceTasks@i:
   712                           	opt stack 0
   713                           
   714                           ; 1 bytes @ 0x17
   715  000051                     	ds	1
   716  000052                     ??_main:
   717                           
   718                           ; 1 bytes @ 0x18
   719  000052                     	ds	2
   720  000054                     main@say:
   721                           	opt stack 0
   722                           
   723                           ; 2 bytes @ 0x1A
   724  000054                     	ds	2
   725  000056                     _main$1809:
   726                           	opt stack 0
   727                           
   728                           ; 2 bytes @ 0x1C
   729  000056                     	ds	2
   730  000058                     _main$1845:
   731                           	opt stack 0
   732                           
   733                           ; 2 bytes @ 0x1E
   734  000058                     	ds	2
   735  00005A                     main@tempature:
   736                           	opt stack 0
   737                           
   738                           ; 2 bytes @ 0x20
   739  00005A                     	ds	2
   740                           tblptru	equ	0xFF8
   741                           tblptrh	equ	0xFF7
   742                           tblptrl	equ	0xFF6
   743                           tablat	equ	0xFF5
   744                           postinc0	equ	0xFEE
   745                           wreg	equ	0xFE8
   746                           postdec1	equ	0xFE5
   747                           fsr1l	equ	0xFE1
   748                           
   749 ;;
   750 ;;Main: autosize = 0, tempsize = 2, incstack = 0, save=0
   751 ;;
   752 ;; *************** function _main *****************
   753 ;; Defined at:
   754 ;;		line 107 in file "Kumanda.c"
   755 ;; Parameters:    Size  Location     Type
   756 ;;		None
   757 ;; Auto vars:     Size  Location     Type
   758 ;;  tempature       2   32[COMRAM] int 
   759 ;;  say             2   26[COMRAM] int 
   760 ;; Return value:  Size  Location     Type
   761 ;;                  1    wreg      void 
   762 ;; Registers used:
   763 ;;		wreg, fsr1l, fsr1h, fsr2l, fsr2h, status,2, status,0, tblptrl, tblptrh, tblptru, prodl, prodh, cstack
   764 ;; Tracked objects:
   765 ;;		On entry : 0/0
   766 ;;		On exit  : 0/0
   767 ;;		Unchanged: 0/0
   768 ;; Data sizes:     COMRAM   BANK0   BANK1  BANK4l
   769 ;;      Params:         0       0       0       0
   770 ;;      Locals:         8       0       0       0
   771 ;;      Temps:          2       0       0       0
   772 ;;      Totals:        10       0       0       0
   773 ;;Total ram usage:       10 bytes
   774 ;; Hardware stack levels required when called:    9
   775 ;; This function calls:
   776 ;;		_USBDeviceInit
   777 ;;		_USBDeviceTasks
   778 ;;		_USBTransferOnePacket
   779 ;;		___awdiv
   780 ;;		___awmod
   781 ;;		_kodla_gonder
   782 ;;		_senkron
   783 ;;		_uyandir
   784 ;; This function is called by:
   785 ;;		Startup code after reset
   786 ;; This function uses a non-reentrant model
   787 ;;
   788                           
   789                           	psect	text0
   790  0005C4                     __ptext0:
   791                           	opt stack 0
   792  0005C4                     _main:
   793                           	opt stack 22
   794                           
   795                           ;incstack = 0
   796  0005C4  0E9C               	movlw	156
   797  0005C6  6E52               	movwf	??_main& (0+255),c
   798  0005C8  0ED7               	movlw	215
   799  0005CA                     u3007:
   800  0005CA  2EE8               	decfsz	wreg,f,c
   801  0005CC  D7FE               	goto	u3007
   802  0005CE  2E52               	decfsz	??_main& (0+255),f,c
   803  0005D0  D7FC               	goto	u3007
   804  0005D2  F000               	nop	
   805                           
   806                           ;Kumanda.c: 111: TRISB = 0b00000000;
   807  0005D4  0E00               	movlw	0
   808  0005D6  6E93               	movwf	3987,c	;volatile
   809                           
   810                           ;Kumanda.c: 112: TRISC = 0b00000000;
   811  0005D8  0E00               	movlw	0
   812  0005DA  6E94               	movwf	3988,c	;volatile
   813                           
   814                           ;Kumanda.c: 113: TRISD = 0b00000000;
   815  0005DC  0E00               	movlw	0
   816  0005DE  6E95               	movwf	3989,c	;volatile
   817                           
   818                           ;Kumanda.c: 114: TRISE = 0b00000001;
   819  0005E0  0E01               	movlw	1
   820  0005E2  6E96               	movwf	3990,c	;volatile
   821                           
   822                           ;Kumanda.c: 115: ADCS2=1;
   823  0005E4  84C0               	bsf	4032,2,c	;volatile
   824                           
   825                           ;Kumanda.c: 116: ADCS1=0;
   826  0005E6  92C0               	bcf	4032,1,c	;volatile
   827                           
   828                           ;Kumanda.c: 117: ADCS0=1;
   829  0005E8  80C0               	bsf	4032,0,c	;volatile
   830                           
   831                           ;Kumanda.c: 120: PCFG3=1;
   832  0005EA  86C1               	bsf	4033,3,c	;volatile
   833                           
   834                           ;Kumanda.c: 121: PCFG2=1;
   835  0005EC  84C1               	bsf	4033,2,c	;volatile
   836                           
   837                           ;Kumanda.c: 122: PCFG1=1;
   838  0005EE  82C1               	bsf	4033,1,c	;volatile
   839                           
   840                           ;Kumanda.c: 123: PCFG0=0;
   841  0005F0  90C1               	bcf	4033,0,c	;volatile
   842                           
   843                           ;Kumanda.c: 124: ADFM=1;
   844  0005F2  8EC0               	bsf	4032,7,c	;volatile
   845                           
   846                           ;Kumanda.c: 125: ADON=1;
   847  0005F4  80C2               	bsf	4034,0,c	;volatile
   848                           
   849                           ;Kumanda.c: 128: int tempature;
   850                           ;Kumanda.c: 130: CHS2=0;
   851  0005F6  98C2               	bcf	4034,4,c	;volatile
   852                           
   853                           ;Kumanda.c: 131: CHS1=0;
   854  0005F8  96C2               	bcf	4034,3,c	;volatile
   855                           
   856                           ;Kumanda.c: 132: CHS0=0;
   857  0005FA  94C2               	bcf	4034,2,c	;volatile
   858                           
   859                           ;Kumanda.c: 133: _delay((unsigned long)((15)*(48000000/4000.0)));
   860  0005FC  0EEA               	movlw	234
   861  0005FE  6E52               	movwf	??_main& (0+255),c
   862  000600  0EC3               	movlw	195
   863  000602                     u3017:
   864  000602  2EE8               	decfsz	wreg,f,c
   865  000604  D7FE               	goto	u3017
   866  000606  2E52               	decfsz	??_main& (0+255),f,c
   867  000608  D7FC               	goto	u3017
   868  00060A  F000               	nop	
   869                           
   870                           ;Kumanda.c: 134: GO_DONE=1;
   871  00060C  82C2               	bsf	4034,1,c	;volatile
   872  00060E                     l549:
   873  00060E  A2C2               	btfss	4034,1,c	;volatile
   874  000610  D7FE               	goto	l549
   875                           
   876                           ;Kumanda.c: 136: tempature=(int)((ADRESH*256+ADRESL)/2);
   877  000612  50C4               	movf	4036,w,c	;volatile
   878  000614  6E53               	movwf	(??_main+1)& (0+255),c
   879  000616  6A52               	clrf	??_main& (0+255),c
   880  000618  50C3               	movf	4035,w,c	;volatile
   881  00061A  2452               	addwf	??_main,w,c
   882  00061C  6E40               	movwf	___awdiv@dividend,c
   883  00061E  0E00               	movlw	0
   884  000620  2053               	addwfc	??_main+1,w,c
   885  000622  6E41               	movwf	___awdiv@dividend+1,c
   886  000624  0E00               	movlw	0
   887  000626  6E43               	movwf	___awdiv@divisor+1,c
   888  000628  0E02               	movlw	2
   889  00062A  6E42               	movwf	___awdiv@divisor,c
   890  00062C  EC37  F00B         	call	___awdiv	;wreg free
   891  000630  C040  F05A         	movff	?___awdiv,main@tempature
   892  000634  C041  F05B         	movff	?___awdiv+1,main@tempature+1
   893                           
   894                           ;Kumanda.c: 137: tempature=(tempature%100)/10;
   895  000638  0E00               	movlw	0
   896  00063A  6E3D               	movwf	___awmod@divisor+1,c
   897  00063C  0E64               	movlw	100
   898  00063E  6E3C               	movwf	___awmod@divisor,c
   899  000640  C05A  F03A         	movff	main@tempature,___awmod@dividend
   900  000644  C05B  F03B         	movff	main@tempature+1,___awmod@dividend+1
   901  000648  ECB9  F00B         	call	___awmod	;wreg free
   902  00064C  C03A  F040         	movff	?___awmod,___awdiv@dividend
   903  000650  C03B  F041         	movff	?___awmod+1,___awdiv@dividend+1
   904  000654  0E00               	movlw	0
   905  000656  6E43               	movwf	___awdiv@divisor+1,c
   906  000658  0E0A               	movlw	10
   907  00065A  6E42               	movwf	___awdiv@divisor,c
   908  00065C  EC37  F00B         	call	___awdiv	;wreg free
   909  000660  C040  F05A         	movff	?___awdiv,main@tempature
   910  000664  C041  F05B         	movff	?___awdiv+1,main@tempature+1
   911                           
   912                           ;Kumanda.c: 140: PORTB = 0b00000000;
   913  000668  0E00               	movlw	0
   914  00066A  6E81               	movwf	3969,c	;volatile
   915                           
   916                           ;Kumanda.c: 141: PORTC = 0b00000000;
   917  00066C  0E00               	movlw	0
   918  00066E  6E82               	movwf	3970,c	;volatile
   919                           
   920                           ;Kumanda.c: 142: PORTD = 0b00000000;
   921  000670  0E00               	movlw	0
   922  000672  6E83               	movwf	3971,c	;volatile
   923                           
   924                           ;Kumanda.c: 143: PORTE = 0b00000000;
   925  000674  0E00               	movlw	0
   926  000676  6E84               	movwf	3972,c	;volatile
   927                           
   928                           ;Kumanda.c: 144: uyandir();
   929  000678  EC27  F00C         	call	_uyandir	;wreg free
   930                           
   931                           ;Kumanda.c: 145: uyandir();
   932  00067C  EC27  F00C         	call	_uyandir	;wreg free
   933                           
   934                           ;Kumanda.c: 146: senkron();
   935  000680  EC6E  F009         	call	_senkron	;wreg free
   936                           
   937                           ;Kumanda.c: 147: kodla_gonder(33);
   938  000684  0E00               	movlw	0
   939  000686  6E49               	movwf	kodla_gonder@sayi+1,c
   940  000688  0E21               	movlw	33
   941  00068A  6E48               	movwf	kodla_gonder@sayi,c
   942  00068C  ECB5  F007         	call	_kodla_gonder	;wreg free
   943                           
   944                           ;Kumanda.c: 157: USBOutHandle = 0;
   945  000690  0E00               	movlw	0
   946  000692  6E20               	movwf	_USBOutHandle,c
   947  000694  0E00               	movlw	0
   948  000696  6E21               	movwf	_USBOutHandle+1,c
   949                           
   950                           ;Kumanda.c: 158: USBInHandle = 0;
   951  000698  0E00               	movlw	0
   952  00069A  6E1C               	movwf	_USBInHandle,c
   953  00069C  0E00               	movlw	0
   954  00069E  6E1D               	movwf	_USBInHandle+1,c
   955                           
   956                           ;Kumanda.c: 162: USBDeviceInit();
   957  0006A0  EC65  F00A         	call	_USBDeviceInit	;wreg free
   958                           
   959                           ;Kumanda.c: 164: USBDeviceTasks();
   960  0006A4  EC1B  F005         	call	_USBDeviceTasks	;wreg free
   961                           
   962                           ;Kumanda.c: 167: if((USBDeviceState < CONFIGURED_STATE)||(SUSPND==1));
   963  0006A8  0E1F               	movlw	31
   964  0006AA  6432               	cpfsgt	_USBDeviceState,c
   965  0006AC  D000               	goto	l3311
   966  0006AE                     l3311:
   967                           
   968                           ;Kumanda.c: 172: int say=0;
   969  0006AE  0E00               	movlw	0
   970  0006B0  6E55               	movwf	main@say+1,c
   971  0006B2  0E00               	movlw	0
   972  0006B4  6E54               	movwf	main@say,c
   973  0006B6                     l3313:
   974                           
   975                           ;Kumanda.c: 175: {
   976                           ;Kumanda.c: 179: USBDeviceTasks();
   977  0006B6  EC1B  F005         	call	_USBDeviceTasks	;wreg free
   978                           
   979                           ;Kumanda.c: 182: if((USBDeviceState < CONFIGURED_STATE)||(SUSPND==1))continue;
   980  0006BA  0E1F               	movlw	31
   981  0006BC  6432               	cpfsgt	_USBDeviceState,c
   982  0006BE  D7FB               	goto	l3313
   983  0006C0  B26D               	btfsc	3949,1,c	;volatile
   984  0006C2  D7F9               	goto	l3313
   985                           
   986                           ;Kumanda.c: 183: if(!(USBOutHandle==0?0:((volatile BDT_ENTRY*)USBOutHandle)->STAT.UOWN))
   987  0006C4  5020               	movf	_USBOutHandle,w,c
   988  0006C6  1021               	iorwf	_USBOutHandle+1,w,c
   989  0006C8  B4D8               	btfsc	status,2,c
   990  0006CA  D00E               	goto	l3323
   991  0006CC  C020  FFD9         	movff	_USBOutHandle,fsr2l
   992  0006D0  C021  FFDA         	movff	_USBOutHandle+1,fsr2h
   993  0006D4  AEDF               	btfss	indf2,7,c
   994  0006D6  D003               	goto	u2790
   995  0006D8  6A52               	clrf	??_main& (0+255),c
   996  0006DA  2A52               	incf	??_main& (0+255),f,c
   997  0006DC  D001               	goto	u2798
   998  0006DE                     u2790:
   999  0006DE  6A52               	clrf	??_main& (0+255),c
  1000  0006E0                     u2798:
  1001  0006E0  5052               	movf	??_main,w,c
  1002  0006E2  6E56               	movwf	_main$1809,c
  1003  0006E4  6A57               	clrf	_main$1809+1,c
  1004  0006E6  D004               	goto	l3325
  1005  0006E8                     l3323:
  1006  0006E8  0E00               	movlw	0
  1007  0006EA  6E57               	movwf	_main$1809+1,c
  1008  0006EC  0E00               	movlw	0
  1009  0006EE  6E56               	movwf	_main$1809,c
  1010  0006F0                     l3325:
  1011  0006F0  5056               	movf	_main$1809,w,c
  1012  0006F2  1057               	iorwf	_main$1809+1,w,c
  1013  0006F4  A4D8               	btfss	status,2,c
  1014  0006F6  D7DF               	goto	l3313
  1015                           
  1016                           ;Kumanda.c: 184: {
  1017                           ;Kumanda.c: 186: if(ReceivedDataBuffer[0]=='0')
  1018  0006F8  0E30               	movlw	48
  1019  0006FA  0104               	movlb	4	; () banked
  1020  0006FC  1980               	xorwf	128,w,b
  1021  0006FE  A4D8               	btfss	status,2,c
  1022  000700  D006               	goto	l3331
  1023                           
  1024                           ; BSR set to: 4
  1025                           ;Kumanda.c: 187: {
  1026                           ;Kumanda.c: 190: RC0 = ~RC0;
  1027  000702  B082               	btfsc	3970,0,c	;volatile
  1028  000704  D002               	goto	u2820
  1029  000706  8082               	bsf	3970,0,c	;volatile
  1030  000708  D017               	goto	l3339
  1031  00070A                     u2820:
  1032  00070A  9082               	bcf	3970,0,c	;volatile
  1033                           
  1034                           ;Kumanda.c: 192: }else
  1035  00070C  D015               	goto	l3339
  1036  00070E                     l3331:
  1037                           
  1038                           ;Kumanda.c: 193: if(ReceivedDataBuffer[0]=='1')
  1039  00070E  0E31               	movlw	49
  1040  000710  0104               	movlb	4	; () banked
  1041  000712  1980               	xorwf	128,w,b
  1042  000714  A4D8               	btfss	status,2,c
  1043  000716  D006               	goto	l3335
  1044                           
  1045                           ; BSR set to: 4
  1046                           ;Kumanda.c: 194: {
  1047                           ;Kumanda.c: 197: RC1 = ~RC1;
  1048  000718  B282               	btfsc	3970,1,c	;volatile
  1049  00071A  D002               	goto	u2850
  1050  00071C  8282               	bsf	3970,1,c	;volatile
  1051  00071E  D00C               	goto	l3339
  1052  000720                     u2850:
  1053  000720  9282               	bcf	3970,1,c	;volatile
  1054                           
  1055                           ;Kumanda.c: 199: } else
  1056  000722  D00A               	goto	l3339
  1057  000724                     l3335:
  1058                           
  1059                           ;Kumanda.c: 200: if(ReceivedDataBuffer[0]=='2')
  1060  000724  0E32               	movlw	50
  1061  000726  0104               	movlb	4	; () banked
  1062  000728  1980               	xorwf	128,w,b
  1063  00072A  A4D8               	btfss	status,2,c
  1064  00072C  D005               	goto	l3339
  1065                           
  1066                           ; BSR set to: 4
  1067                           ;Kumanda.c: 201: {
  1068                           ;Kumanda.c: 203: RC2 = ~RC2;
  1069  00072E  B482               	btfsc	3970,2,c	;volatile
  1070  000730  D002               	goto	u2880
  1071  000732  8482               	bsf	3970,2,c	;volatile
  1072  000734  D001               	goto	l3339
  1073  000736                     u2880:
  1074  000736  9482               	bcf	3970,2,c	;volatile
  1075  000738                     l3339:
  1076                           
  1077                           ;Kumanda.c: 206: }
  1078                           ;Kumanda.c: 207: if(ReceivedDataBuffer[0]=='3')
  1079  000738  0E33               	movlw	51
  1080  00073A  0104               	movlb	4	; () banked
  1081  00073C  1980               	xorwf	128,w,b
  1082  00073E  A4D8               	btfss	status,2,c
  1083  000740  D005               	goto	l3345
  1084                           
  1085                           ; BSR set to: 4
  1086                           ;Kumanda.c: 208: {
  1087                           ;Kumanda.c: 209: if(RB2)RB2=0;
  1088  000742  A481               	btfss	3969,2,c	;volatile
  1089  000744  D002               	goto	l571
  1090                           
  1091                           ; BSR set to: 4
  1092  000746  9481               	bcf	3969,2,c	;volatile
  1093  000748  D001               	goto	l3345
  1094  00074A                     l571:
  1095                           
  1096                           ; BSR set to: 4
  1097                           ;Kumanda.c: 210: else RB2=1;
  1098  00074A  8481               	bsf	3969,2,c	;volatile
  1099  00074C                     l3345:
  1100                           
  1101                           ; BSR set to: 4
  1102                           ;Kumanda.c: 211: }
  1103                           ;Kumanda.c: 214: if(ReceivedDataBuffer[0]=='t')
  1104  00074C  0E74               	movlw	116
  1105  00074E  0104               	movlb	4	; () banked
  1106  000750  1980               	xorwf	128,w,b
  1107  000752  A4D8               	btfss	status,2,c
  1108  000754  D090               	goto	l573
  1109                           
  1110                           ; BSR set to: 4
  1111                           ;Kumanda.c: 215: {
  1112                           ;Kumanda.c: 217: ToSendDataBuffer[0]=' ';
  1113  000756  0E20               	movlw	32
  1114  000758  0104               	movlb	4	; () banked
  1115  00075A  6FC0               	movwf	192,b
  1116                           
  1117                           ;Kumanda.c: 219: ToSendDataBuffer[1]='S';
  1118  00075C  0E53               	movlw	83
  1119  00075E  0104               	movlb	4	; () banked
  1120  000760  6FC1               	movwf	193,b
  1121                           
  1122                           ;Kumanda.c: 220: ToSendDataBuffer[2]='a';
  1123  000762  0E61               	movlw	97
  1124  000764  0104               	movlb	4	; () banked
  1125  000766  6FC2               	movwf	194,b
  1126                           
  1127                           ;Kumanda.c: 221: ToSendDataBuffer[3]='i';
  1128  000768  0E69               	movlw	105
  1129  00076A  0104               	movlb	4	; () banked
  1130  00076C  6FC3               	movwf	195,b
  1131                           
  1132                           ;Kumanda.c: 222: ToSendDataBuffer[4]='m';
  1133  00076E  0E6D               	movlw	109
  1134  000770  0104               	movlb	4	; () banked
  1135  000772  6FC4               	movwf	196,b
  1136                           
  1137                           ;Kumanda.c: 224: ToSendDataBuffer[5]=' ';
  1138  000774  0E20               	movlw	32
  1139  000776  0104               	movlb	4	; () banked
  1140  000778  6FC5               	movwf	197,b
  1141                           
  1142                           ;Kumanda.c: 225: ToSendDataBuffer[6]='T';
  1143  00077A  0E54               	movlw	84
  1144  00077C  0104               	movlb	4	; () banked
  1145  00077E  6FC6               	movwf	198,b
  1146                           
  1147                           ;Kumanda.c: 226: ToSendDataBuffer[7]='o';
  1148  000780  0E6F               	movlw	111
  1149  000782  0104               	movlb	4	; () banked
  1150  000784  6FC7               	movwf	199,b
  1151                           
  1152                           ;Kumanda.c: 227: ToSendDataBuffer[8]='s';
  1153  000786  0E73               	movlw	115
  1154  000788  0104               	movlb	4	; () banked
  1155  00078A  6FC8               	movwf	200,b
  1156                           
  1157                           ;Kumanda.c: 228: ToSendDataBuffer[9]='b';
  1158  00078C  0E62               	movlw	98
  1159  00078E  0104               	movlb	4	; () banked
  1160  000790  6FC9               	movwf	201,b
  1161                           
  1162                           ;Kumanda.c: 229: ToSendDataBuffer[10]='a';
  1163  000792  0E61               	movlw	97
  1164  000794  0104               	movlb	4	; () banked
  1165  000796  6FCA               	movwf	202,b
  1166                           
  1167                           ;Kumanda.c: 230: ToSendDataBuffer[11]='g';
  1168  000798  0E67               	movlw	103
  1169  00079A  0104               	movlb	4	; () banked
  1170  00079C  6FCB               	movwf	203,b
  1171                           
  1172                           ;Kumanda.c: 231: ToSendDataBuffer[12]='a';
  1173  00079E  0E61               	movlw	97
  1174  0007A0  0104               	movlb	4	; () banked
  1175  0007A2  6FCC               	movwf	204,b
  1176                           
  1177                           ;Kumanda.c: 232: ToSendDataBuffer[13]=' ';
  1178  0007A4  0E20               	movlw	32
  1179  0007A6  0104               	movlb	4	; () banked
  1180  0007A8  6FCD               	movwf	205,b
  1181                           
  1182                           ;Kumanda.c: 233: ToSendDataBuffer[14]='N';
  1183  0007AA  0E4E               	movlw	78
  1184  0007AC  0104               	movlb	4	; () banked
  1185  0007AE  6FCE               	movwf	206,b
  1186                           
  1187                           ;Kumanda.c: 234: ToSendDataBuffer[15]='i';
  1188  0007B0  0E69               	movlw	105
  1189  0007B2  0104               	movlb	4	; () banked
  1190  0007B4  6FCF               	movwf	207,b
  1191                           
  1192                           ;Kumanda.c: 235: ToSendDataBuffer[16]='s';
  1193  0007B6  0E73               	movlw	115
  1194  0007B8  0104               	movlb	4	; () banked
  1195  0007BA  6FD0               	movwf	208,b
  1196                           
  1197                           ;Kumanda.c: 236: ToSendDataBuffer[17]='a';
  1198  0007BC  0E61               	movlw	97
  1199  0007BE  0104               	movlb	4	; () banked
  1200  0007C0  6FD1               	movwf	209,b
  1201                           
  1202                           ; BSR set to: 4
  1203                           ;Kumanda.c: 237: CHS2=0;
  1204  0007C2  98C2               	bcf	4034,4,c	;volatile
  1205                           
  1206                           ; BSR set to: 4
  1207                           ;Kumanda.c: 238: CHS1=0;
  1208  0007C4  96C2               	bcf	4034,3,c	;volatile
  1209                           
  1210                           ; BSR set to: 4
  1211                           ;Kumanda.c: 239: CHS0=0;
  1212  0007C6  94C2               	bcf	4034,2,c	;volatile
  1213                           
  1214                           ; BSR set to: 4
  1215                           ;Kumanda.c: 240: _delay((unsigned long)((15)*(48000000/4000.0)));
  1216  0007C8  0EEA               	movlw	234
  1217  0007CA  6E52               	movwf	??_main& (0+255),c
  1218  0007CC  0EC3               	movlw	195
  1219  0007CE                     u3027:
  1220  0007CE  2EE8               	decfsz	wreg,f,c
  1221  0007D0  D7FE               	goto	u3027
  1222  0007D2  2E52               	decfsz	??_main& (0+255),f,c
  1223  0007D4  D7FC               	goto	u3027
  1224  0007D6  F000               	nop	
  1225                           
  1226                           ;Kumanda.c: 241: GO_DONE=1;
  1227  0007D8  82C2               	bsf	4034,1,c	;volatile
  1228  0007DA                     l574:
  1229  0007DA  A2C2               	btfss	4034,1,c	;volatile
  1230  0007DC  D7FE               	goto	l574
  1231                           
  1232                           ;Kumanda.c: 243: tempature=(int)((ADRESH*256+ADRESL)/2);
  1233  0007DE  50C4               	movf	4036,w,c	;volatile
  1234  0007E0  6E53               	movwf	(??_main+1)& (0+255),c
  1235  0007E2  6A52               	clrf	??_main& (0+255),c
  1236  0007E4  50C3               	movf	4035,w,c	;volatile
  1237  0007E6  2452               	addwf	??_main,w,c
  1238  0007E8  6E40               	movwf	___awdiv@dividend,c
  1239  0007EA  0E00               	movlw	0
  1240  0007EC  2053               	addwfc	??_main+1,w,c
  1241  0007EE  6E41               	movwf	___awdiv@dividend+1,c
  1242  0007F0  0E00               	movlw	0
  1243  0007F2  6E43               	movwf	___awdiv@divisor+1,c
  1244  0007F4  0E02               	movlw	2
  1245  0007F6  6E42               	movwf	___awdiv@divisor,c
  1246  0007F8  EC37  F00B         	call	___awdiv	;wreg free
  1247  0007FC  C040  F05A         	movff	?___awdiv,main@tempature
  1248  000800  C041  F05B         	movff	?___awdiv+1,main@tempature+1
  1249                           
  1250                           ;Kumanda.c: 244: tempature=(tempature%100);
  1251  000804  C05A  F03A         	movff	main@tempature,___awmod@dividend
  1252  000808  C05B  F03B         	movff	main@tempature+1,___awmod@dividend+1
  1253  00080C  0E00               	movlw	0
  1254  00080E  6E3D               	movwf	___awmod@divisor+1,c
  1255  000810  0E64               	movlw	100
  1256  000812  6E3C               	movwf	___awmod@divisor,c
  1257  000814  ECB9  F00B         	call	___awmod	;wreg free
  1258  000818  C03A  F05A         	movff	?___awmod,main@tempature
  1259  00081C  C03B  F05B         	movff	?___awmod+1,main@tempature+1
  1260                           
  1261                           ;Kumanda.c: 245: ToSendDataBuffer[18]=tempature;
  1262  000820  C05A  F4D2         	movff	main@tempature,1234
  1263                           
  1264                           ;Kumanda.c: 248: if(!(USBInHandle==0?0:((volatile BDT_ENTRY*)USBInHandle)->STAT.UOWN))
  1265  000824  501C               	movf	_USBInHandle,w,c
  1266  000826  101D               	iorwf	_USBInHandle+1,w,c
  1267  000828  B4D8               	btfsc	status,2,c
  1268  00082A  D00E               	goto	l3367
  1269  00082C  C01C  FFD9         	movff	_USBInHandle,fsr2l
  1270  000830  C01D  FFDA         	movff	_USBInHandle+1,fsr2h
  1271  000834  AEDF               	btfss	indf2,7,c
  1272  000836  D003               	goto	u2950
  1273  000838  6A52               	clrf	??_main& (0+255),c
  1274  00083A  2A52               	incf	??_main& (0+255),f,c
  1275  00083C  D001               	goto	u2958
  1276  00083E                     u2950:
  1277  00083E  6A52               	clrf	??_main& (0+255),c
  1278  000840                     u2958:
  1279  000840  5052               	movf	??_main,w,c
  1280  000842  6E58               	movwf	_main$1845,c
  1281  000844  6A59               	clrf	_main$1845+1,c
  1282  000846  D004               	goto	l3369
  1283  000848                     l3367:
  1284  000848  0E00               	movlw	0
  1285  00084A  6E59               	movwf	_main$1845+1,c
  1286  00084C  0E00               	movlw	0
  1287  00084E  6E58               	movwf	_main$1845,c
  1288  000850                     l3369:
  1289  000850  5058               	movf	_main$1845,w,c
  1290  000852  1059               	iorwf	_main$1845+1,w,c
  1291  000854  A4D8               	btfss	status,2,c
  1292  000856  D00F               	goto	l573
  1293                           
  1294                           ;Kumanda.c: 249: USBInHandle = USBTransferOnePacket(1,1,ToSendDataBuffer,64);
  1295  000858  0E01               	movlw	1
  1296  00085A  6E3A               	movwf	USBTransferOnePacket@dir,c
  1297  00085C  0EC0               	movlw	192
  1298  00085E  6E3B               	movwf	USBTransferOnePacket@data,c
  1299  000860  0E04               	movlw	4
  1300  000862  6E3C               	movwf	USBTransferOnePacket@data+1,c
  1301  000864  0E40               	movlw	64
  1302  000866  6E3D               	movwf	USBTransferOnePacket@len,c
  1303  000868  0E01               	movlw	1
  1304  00086A  EC17  F00A         	call	_USBTransferOnePacket
  1305  00086E  C03A  F01C         	movff	?_USBTransferOnePacket,_USBInHandle
  1306  000872  C03B  F01D         	movff	?_USBTransferOnePacket+1,_USBInHandle+1
  1307  000876                     l573:
  1308                           
  1309                           ;Kumanda.c: 250: }
  1310                           ;Kumanda.c: 253: USBOutHandle=USBTransferOnePacket(1,0,ReceivedDataBuffer,64);
  1311  000876  0E00               	movlw	0
  1312  000878  6E3A               	movwf	USBTransferOnePacket@dir,c
  1313  00087A  0E80               	movlw	128
  1314  00087C  6E3B               	movwf	USBTransferOnePacket@data,c
  1315  00087E  0E04               	movlw	4
  1316  000880  6E3C               	movwf	USBTransferOnePacket@data+1,c
  1317  000882  0E40               	movlw	64
  1318  000884  6E3D               	movwf	USBTransferOnePacket@len,c
  1319  000886  0E01               	movlw	1
  1320  000888  EC17  F00A         	call	_USBTransferOnePacket
  1321  00088C  C03A  F020         	movff	?_USBTransferOnePacket,_USBOutHandle
  1322  000890  C03B  F021         	movff	?_USBTransferOnePacket+1,_USBOutHandle+1
  1323  000894  D710               	goto	l3313
  1324  000896                     __end_of_main:
  1325                           	opt stack 0
  1326                           tblptru	equ	0xFF8
  1327                           tblptrh	equ	0xFF7
  1328                           tblptrl	equ	0xFF6
  1329                           tablat	equ	0xFF5
  1330                           postinc0	equ	0xFEE
  1331                           wreg	equ	0xFE8
  1332                           postdec1	equ	0xFE5
  1333                           fsr1l	equ	0xFE1
  1334                           indf2	equ	0xFDF
  1335                           fsr2h	equ	0xFDA
  1336                           fsr2l	equ	0xFD9
  1337                           status	equ	0xFD8
  1338                           
  1339 ;; *************** function _uyandir *****************
  1340 ;; Defined at:
  1341 ;;		line 38 in file "Kumanda.c"
  1342 ;; Parameters:    Size  Location     Type
  1343 ;;		None
  1344 ;; Auto vars:     Size  Location     Type
  1345 ;;  a               2    1[COMRAM] int 
  1346 ;; Return value:  Size  Location     Type
  1347 ;;                  1    wreg      void 
  1348 ;; Registers used:
  1349 ;;		wreg, fsr2l, fsr2h, status,2, status,0
  1350 ;; Tracked objects:
  1351 ;;		On entry : 0/0
  1352 ;;		On exit  : 0/0
  1353 ;;		Unchanged: 0/0
  1354 ;; Data sizes:     COMRAM   BANK0   BANK1  BANK4l
  1355 ;;      Params:         0       0       0       0
  1356 ;;      Locals:         2       0       0       0
  1357 ;;      Temps:          1       0       0       0
  1358 ;;      Totals:         3       0       0       0
  1359 ;;Total ram usage:        3 bytes
  1360 ;; Hardware stack levels used:    1
  1361 ;; This function calls:
  1362 ;;		Nothing
  1363 ;; This function is called by:
  1364 ;;		_main
  1365 ;; This function uses a non-reentrant model
  1366 ;;
  1367                           
  1368                           	psect	text1
  1369  00184E                     __ptext1:
  1370                           	opt stack 0
  1371  00184E                     _uyandir:
  1372                           	opt stack 30
  1373                           
  1374                           ;Kumanda.c: 40: for(int a=0;a<8;a++)
  1375                           
  1376                           ;incstack = 0
  1377  00184E  0E00               	movlw	0
  1378  001850  6E3C               	movwf	uyandir@a+1,c
  1379  001852  0E00               	movlw	0
  1380  001854  6E3B               	movwf	uyandir@a,c
  1381  001856  BE3C               	btfsc	uyandir@a+1,7,c
  1382  001858  D006               	goto	l3135
  1383  00185A  503C               	movf	uyandir@a+1,w,c
  1384  00185C  E121               	bnz	l524
  1385  00185E  0E08               	movlw	8
  1386  001860  5C3B               	subwf	uyandir@a,w,c
  1387  001862  B0D8               	btfsc	status,0,c
  1388  001864  D01D               	goto	l524
  1389  001866                     l3135:
  1390                           
  1391                           ;Kumanda.c: 41: {RD0=uyan[a]-48;
  1392  001866  0E72               	movlw	low _uyan
  1393  001868  243B               	addwf	uyandir@a,w,c
  1394  00186A  6ED9               	movwf	fsr2l,c
  1395  00186C  0E00               	movlw	high _uyan
  1396  00186E  203C               	addwfc	uyandir@a+1,w,c
  1397  001870  6EDA               	movwf	fsr2h,c
  1398  001872  50DF               	movf	indf2,w,c
  1399  001874  6E3A               	movwf	??_uyandir& (0+255),c
  1400  001876  303A               	rrcf	??_uyandir,w,c
  1401  001878  A0D8               	btfss	status,0,c
  1402  00187A  D002               	goto	u2520
  1403  00187C  8083               	bsf	3971,0,c	;volatile
  1404  00187E  D001               	goto	l3137
  1405  001880                     u2520:
  1406  001880  9083               	bcf	3971,0,c	;volatile
  1407  001882                     l3137:
  1408                           
  1409                           ;Kumanda.c: 42: _delay((unsigned long)((1500)*(48000000/4000000.0)));
  1410  001882  0E18               	movlw	24
  1411  001884  6E3A               	movwf	??_uyandir& (0+255),c
  1412  001886  0E5F               	movlw	95
  1413  001888                     u3037:
  1414  001888  2EE8               	decfsz	wreg,f,c
  1415  00188A  D7FE               	goto	u3037
  1416  00188C  2E3A               	decfsz	??_uyandir& (0+255),f,c
  1417  00188E  D7FC               	goto	u3037
  1418  001890  F000               	nop	
  1419  001892  4A3B               	infsnz	uyandir@a,f,c
  1420  001894  2A3C               	incf	uyandir@a+1,f,c
  1421  001896  BE3C               	btfsc	uyandir@a+1,7,c
  1422  001898  D7E6               	goto	l3135
  1423  00189A  503C               	movf	uyandir@a+1,w,c
  1424  00189C  E101               	bnz	u2540
  1425  00189E  D7DF               	goto	L1
  1426  0018A0                     u2540:
  1427  0018A0                     l524:
  1428                           
  1429                           ;Kumanda.c: 44: }
  1430                           ;Kumanda.c: 46: RD0=0;
  1431  0018A0  9083               	bcf	3971,0,c	;volatile
  1432                           
  1433                           ;Kumanda.c: 47: _delay((unsigned long)((1500)*(48000000/4000000.0)));
  1434  0018A2  0E18               	movlw	24
  1435  0018A4  6E3A               	movwf	??_uyandir& (0+255),c
  1436  0018A6  0E5F               	movlw	95
  1437  0018A8                     u3047:
  1438  0018A8  2EE8               	decfsz	wreg,f,c
  1439  0018AA  D7FE               	goto	u3047
  1440  0018AC  2E3A               	decfsz	??_uyandir& (0+255),f,c
  1441  0018AE  D7FC               	goto	u3047
  1442  0018B0  F000               	nop	
  1443  0018B2  0012               	return		;funcret
  1444  0018B4                     __end_of_uyandir:
  1445                           	opt stack 0
  1446                           tblptru	equ	0xFF8
  1447                           tblptrh	equ	0xFF7
  1448                           tblptrl	equ	0xFF6
  1449                           tablat	equ	0xFF5
  1450                           postinc0	equ	0xFEE
  1451                           wreg	equ	0xFE8
  1452                           postdec1	equ	0xFE5
  1453                           fsr1l	equ	0xFE1
  1454                           indf2	equ	0xFDF
  1455                           fsr2h	equ	0xFDA
  1456                           fsr2l	equ	0xFD9
  1457                           status	equ	0xFD8
  1458                           
  1459 ;; *************** function _senkron *****************
  1460 ;; Defined at:
  1461 ;;		line 54 in file "Kumanda.c"
  1462 ;; Parameters:    Size  Location     Type
  1463 ;;		None
  1464 ;; Auto vars:     Size  Location     Type
  1465 ;;  a               2    3[COMRAM] int 
  1466 ;;  a               2    1[COMRAM] int 
  1467 ;; Return value:  Size  Location     Type
  1468 ;;                  1    wreg      void 
  1469 ;; Registers used:
  1470 ;;		wreg, fsr2l, fsr2h, status,2, status,0
  1471 ;; Tracked objects:
  1472 ;;		On entry : 0/0
  1473 ;;		On exit  : 0/0
  1474 ;;		Unchanged: 0/0
  1475 ;; Data sizes:     COMRAM   BANK0   BANK1  BANK4l
  1476 ;;      Params:         0       0       0       0
  1477 ;;      Locals:         4       0       0       0
  1478 ;;      Temps:          1       0       0       0
  1479 ;;      Totals:         5       0       0       0
  1480 ;;Total ram usage:        5 bytes
  1481 ;; Hardware stack levels used:    1
  1482 ;; This function calls:
  1483 ;;		Nothing
  1484 ;; This function is called by:
  1485 ;;		_main
  1486 ;; This function uses a non-reentrant model
  1487 ;;
  1488                           
  1489                           	psect	text2
  1490  0012DC                     __ptext2:
  1491                           	opt stack 0
  1492  0012DC                     _senkron:
  1493                           	opt stack 30
  1494                           
  1495                           ;Kumanda.c: 56: for(int a=0;a<8;a++)
  1496                           
  1497                           ;incstack = 0
  1498  0012DC  0E00               	movlw	0
  1499  0012DE  6E3C               	movwf	senkron@a+1,c
  1500  0012E0  0E00               	movlw	0
  1501  0012E2  6E3B               	movwf	senkron@a,c
  1502  0012E4                     l3147:
  1503  0012E4  BE3C               	btfsc	senkron@a+1,7,c
  1504  0012E6  D006               	goto	l3151
  1505  0012E8  503C               	movf	senkron@a+1,w,c
  1506  0012EA  E11D               	bnz	l3159
  1507  0012EC  0E08               	movlw	8
  1508  0012EE  5C3B               	subwf	senkron@a,w,c
  1509  0012F0  B0D8               	btfsc	status,0,c
  1510  0012F2  D019               	goto	l3159
  1511  0012F4                     l3151:
  1512                           
  1513                           ;Kumanda.c: 57: {RD0=senk[a]-48;
  1514  0012F4  0E60               	movlw	low _senk
  1515  0012F6  243B               	addwf	senkron@a,w,c
  1516  0012F8  6ED9               	movwf	fsr2l,c
  1517  0012FA  0E00               	movlw	high _senk
  1518  0012FC  203C               	addwfc	senkron@a+1,w,c
  1519  0012FE  6EDA               	movwf	fsr2h,c
  1520  001300  50DF               	movf	indf2,w,c
  1521  001302  6E3A               	movwf	??_senkron& (0+255),c
  1522  001304  303A               	rrcf	??_senkron,w,c
  1523  001306  A0D8               	btfss	status,0,c
  1524  001308  D002               	goto	u2560
  1525  00130A  8083               	bsf	3971,0,c	;volatile
  1526  00130C  D001               	goto	l3153
  1527  00130E                     u2560:
  1528  00130E  9083               	bcf	3971,0,c	;volatile
  1529  001310                     l3153:
  1530                           
  1531                           ;Kumanda.c: 58: _delay((unsigned long)((1500)*(48000000/4000000.0)));
  1532  001310  0E18               	movlw	24
  1533  001312  6E3A               	movwf	??_senkron& (0+255),c
  1534  001314  0E5F               	movlw	95
  1535  001316                     u3057:
  1536  001316  2EE8               	decfsz	wreg,f,c
  1537  001318  D7FE               	goto	u3057
  1538  00131A  2E3A               	decfsz	??_senkron& (0+255),f,c
  1539  00131C  D7FC               	goto	u3057
  1540  00131E  F000               	nop	
  1541  001320  4A3B               	infsnz	senkron@a,f,c
  1542  001322  2A3C               	incf	senkron@a+1,f,c
  1543  001324  D7DF               	goto	l3147
  1544  001326                     l3159:
  1545                           
  1546                           ;Kumanda.c: 60: }
  1547                           ;Kumanda.c: 61: for(int a=0;a<8;a++)
  1548  001326  0E00               	movlw	0
  1549  001328  6E3E               	movwf	senkron@a_1762+1,c
  1550  00132A  0E00               	movlw	0
  1551  00132C  6E3D               	movwf	senkron@a_1762,c
  1552  00132E  BE3E               	btfsc	senkron@a_1762+1,7,c
  1553  001330  D006               	goto	l3165
  1554  001332  503E               	movf	senkron@a_1762+1,w,c
  1555  001334  E121               	bnz	l535
  1556  001336  0E08               	movlw	8
  1557  001338  5C3D               	subwf	senkron@a_1762,w,c
  1558  00133A  B0D8               	btfsc	status,0,c
  1559  00133C  D01D               	goto	l535
  1560  00133E                     l3165:
  1561                           
  1562                           ;Kumanda.c: 62: {RD0=senk1[a]-48;
  1563  00133E  0E69               	movlw	low _senk1
  1564  001340  243D               	addwf	senkron@a_1762,w,c
  1565  001342  6ED9               	movwf	fsr2l,c
  1566  001344  0E00               	movlw	high _senk1
  1567  001346  203E               	addwfc	senkron@a_1762+1,w,c
  1568  001348  6EDA               	movwf	fsr2h,c
  1569  00134A  50DF               	movf	indf2,w,c
  1570  00134C  6E3A               	movwf	??_senkron& (0+255),c
  1571  00134E  303A               	rrcf	??_senkron,w,c
  1572  001350  A0D8               	btfss	status,0,c
  1573  001352  D002               	goto	u2600
  1574  001354  8083               	bsf	3971,0,c	;volatile
  1575  001356  D001               	goto	l3167
  1576  001358                     u2600:
  1577  001358  9083               	bcf	3971,0,c	;volatile
  1578  00135A                     l3167:
  1579                           
  1580                           ;Kumanda.c: 63: _delay((unsigned long)((1500)*(48000000/4000000.0)));
  1581  00135A  0E18               	movlw	24
  1582  00135C  6E3A               	movwf	??_senkron& (0+255),c
  1583  00135E  0E5F               	movlw	95
  1584  001360                     u3067:
  1585  001360  2EE8               	decfsz	wreg,f,c
  1586  001362  D7FE               	goto	u3067
  1587  001364  2E3A               	decfsz	??_senkron& (0+255),f,c
  1588  001366  D7FC               	goto	u3067
  1589  001368  F000               	nop	
  1590  00136A  4A3D               	infsnz	senkron@a_1762,f,c
  1591  00136C  2A3E               	incf	senkron@a_1762+1,f,c
  1592  00136E  BE3E               	btfsc	senkron@a_1762+1,7,c
  1593  001370  D7E6               	goto	l3165
  1594  001372  503E               	movf	senkron@a_1762+1,w,c
  1595  001374  E101               	bnz	u2620
  1596  001376  D7DF               	goto	L2
  1597  001378                     u2620:
  1598  001378                     l535:
  1599                           
  1600                           ;Kumanda.c: 65: }
  1601                           ;Kumanda.c: 66: RD0=0;
  1602  001378  9083               	bcf	3971,0,c	;volatile
  1603                           
  1604                           ;Kumanda.c: 67: _delay((unsigned long)((1500)*(48000000/4000000.0)));
  1605  00137A  0E18               	movlw	24
  1606  00137C  6E3A               	movwf	??_senkron& (0+255),c
  1607  00137E  0E5F               	movlw	95
  1608  001380                     u3077:
  1609  001380  2EE8               	decfsz	wreg,f,c
  1610  001382  D7FE               	goto	u3077
  1611  001384  2E3A               	decfsz	??_senkron& (0+255),f,c
  1612  001386  D7FC               	goto	u3077
  1613  001388  F000               	nop	
  1614  00138A  0012               	return		;funcret
  1615  00138C                     __end_of_senkron:
  1616                           	opt stack 0
  1617                           tblptru	equ	0xFF8
  1618                           tblptrh	equ	0xFF7
  1619                           tblptrl	equ	0xFF6
  1620                           tablat	equ	0xFF5
  1621                           postinc0	equ	0xFEE
  1622                           wreg	equ	0xFE8
  1623                           postdec1	equ	0xFE5
  1624                           fsr1l	equ	0xFE1
  1625                           indf2	equ	0xFDF
  1626                           fsr2h	equ	0xFDA
  1627                           fsr2l	equ	0xFD9
  1628                           status	equ	0xFD8
  1629                           
  1630 ;; *************** function _kodla_gonder *****************
  1631 ;; Defined at:
  1632 ;;		line 76 in file "Kumanda.c"
  1633 ;; Parameters:    Size  Location     Type
  1634 ;;  sayi            2   14[COMRAM] int 
  1635 ;; Auto vars:     Size  Location     Type
  1636 ;;  a               2   18[COMRAM] int 
  1637 ;; Return value:  Size  Location     Type
  1638 ;;                  2   14[COMRAM] int 
  1639 ;; Registers used:
  1640 ;;		wreg, fsr2l, fsr2h, status,2, status,0, cstack
  1641 ;; Tracked objects:
  1642 ;;		On entry : 0/0
  1643 ;;		On exit  : 0/0
  1644 ;;		Unchanged: 0/0
  1645 ;; Data sizes:     COMRAM   BANK0   BANK1  BANK4l
  1646 ;;      Params:         2       0       0       0
  1647 ;;      Locals:         2       0       0       0
  1648 ;;      Temps:          2       0       0       0
  1649 ;;      Totals:         6       0       0       0
  1650 ;;Total ram usage:        6 bytes
  1651 ;; Hardware stack levels used:    1
  1652 ;; Hardware stack levels required when called:    1
  1653 ;; This function calls:
  1654 ;;		___awdiv
  1655 ;; This function is called by:
  1656 ;;		_main
  1657 ;; This function uses a non-reentrant model
  1658 ;;
  1659                           
  1660                           	psect	text3
  1661  000F6A                     __ptext3:
  1662                           	opt stack 0
  1663  000F6A                     _kodla_gonder:
  1664                           	opt stack 29
  1665                           
  1666                           ;incstack = 0
  1667  000F6A  0E00               	movlw	0
  1668  000F6C  6E27               	movwf	_index+1,c
  1669  000F6E  0E00               	movlw	0
  1670  000F70  6E26               	movwf	_index,c
  1671                           
  1672                           ;Kumanda.c: 79: while(index!=8)
  1673  000F72  D029               	goto	l3185
  1674  000F74                     l3177:
  1675                           
  1676                           ;Kumanda.c: 80: {
  1677                           ;Kumanda.c: 81: gelen_veri[7-index]=sayi%2;
  1678  000F74  C026  F04A         	movff	_index,??_kodla_gonder
  1679  000F78  C027  F04B         	movff	_index+1,??_kodla_gonder+1
  1680  000F7C  1E4A               	comf	??_kodla_gonder,f,c
  1681  000F7E  1E4B               	comf	??_kodla_gonder+1,f,c
  1682  000F80  4A4A               	infsnz	??_kodla_gonder,f,c
  1683  000F82  2A4B               	incf	??_kodla_gonder+1,f,c
  1684  000F84  0E07               	movlw	7
  1685  000F86  264A               	addwf	??_kodla_gonder,f,c
  1686  000F88  0E00               	movlw	0
  1687  000F8A  224B               	addwfc	??_kodla_gonder+1,f,c
  1688  000F8C  0E7B               	movlw	low _gelen_veri
  1689  000F8E  244A               	addwf	??_kodla_gonder,w,c
  1690  000F90  6ED9               	movwf	fsr2l,c
  1691  000F92  0E00               	movlw	high _gelen_veri
  1692  000F94  204B               	addwfc	??_kodla_gonder+1,w,c
  1693  000F96  6EDA               	movwf	fsr2h,c
  1694  000F98  5048               	movf	kodla_gonder@sayi,w,c
  1695  000F9A  0B01               	andlw	1
  1696  000F9C  6EDF               	movwf	indf2,c
  1697                           
  1698                           ;Kumanda.c: 82: bolum=sayi/2;
  1699  000F9E  C048  F040         	movff	kodla_gonder@sayi,___awdiv@dividend
  1700  000FA2  C049  F041         	movff	kodla_gonder@sayi+1,___awdiv@dividend+1
  1701  000FA6  0E00               	movlw	0
  1702  000FA8  6E43               	movwf	___awdiv@divisor+1,c
  1703  000FAA  0E02               	movlw	2
  1704  000FAC  6E42               	movwf	___awdiv@divisor,c
  1705  000FAE  EC37  F00B         	call	___awdiv	;wreg free
  1706  000FB2  C040  F024         	movff	?___awdiv,_bolum
  1707  000FB6  C041  F025         	movff	?___awdiv+1,_bolum+1
  1708                           
  1709                           ;Kumanda.c: 83: sayi=bolum;
  1710  000FBA  C024  F048         	movff	_bolum,kodla_gonder@sayi
  1711  000FBE  C025  F049         	movff	_bolum+1,kodla_gonder@sayi+1
  1712                           
  1713                           ;Kumanda.c: 84: index++;
  1714  000FC2  4A26               	infsnz	_index,f,c
  1715  000FC4  2A27               	incf	_index+1,f,c
  1716  000FC6                     l3185:
  1717  000FC6  0E08               	movlw	8
  1718  000FC8  1826               	xorwf	_index,w,c
  1719  000FCA  1027               	iorwf	_index+1,w,c
  1720  000FCC  A4D8               	btfss	status,2,c
  1721  000FCE  D7D2               	goto	l3177
  1722                           
  1723                           ;Kumanda.c: 85: }
  1724                           ;Kumanda.c: 86: RD0=1;
  1725  000FD0  8083               	bsf	3971,0,c	;volatile
  1726                           
  1727                           ;Kumanda.c: 87: _delay((unsigned long)((2000-1)*(48000000/4000000.0)));
  1728  000FD2  0E20               	movlw	32
  1729  000FD4  6E4A               	movwf	??_kodla_gonder& (0+255),c
  1730  000FD6  0E26               	movlw	38
  1731  000FD8                     u3087:
  1732  000FD8  2EE8               	decfsz	wreg,f,c
  1733  000FDA  D7FE               	goto	u3087
  1734  000FDC  2E4A               	decfsz	??_kodla_gonder& (0+255),f,c
  1735  000FDE  D7FC               	goto	u3087
  1736                           
  1737                           ;Kumanda.c: 88: RD0=0;
  1738  000FE0  9083               	bcf	3971,0,c	;volatile
  1739                           
  1740                           ;Kumanda.c: 89: _delay((unsigned long)((1200-1)*(48000000/4000000.0)));
  1741  000FE2  0E13               	movlw	19
  1742  000FE4  6E4A               	movwf	??_kodla_gonder& (0+255),c
  1743  000FE6  0EAE               	movlw	174
  1744  000FE8                     u3097:
  1745  000FE8  2EE8               	decfsz	wreg,f,c
  1746  000FEA  D7FE               	goto	u3097
  1747  000FEC  2E4A               	decfsz	??_kodla_gonder& (0+255),f,c
  1748  000FEE  D7FC               	goto	u3097
  1749  000FF0  F000 F000          	nop2	
  1750                           
  1751                           ;Kumanda.c: 91: for(int a=0;a<8;a++)
  1752  000FF4  0E00               	movlw	0
  1753  000FF6  6E4D               	movwf	kodla_gonder@a+1,c
  1754  000FF8  0E00               	movlw	0
  1755  000FFA  6E4C               	movwf	kodla_gonder@a,c
  1756  000FFC                     l3193:
  1757  000FFC  BE4D               	btfsc	kodla_gonder@a+1,7,c
  1758  000FFE  D006               	goto	l3197
  1759  001000  504D               	movf	kodla_gonder@a+1,w,c
  1760  001002  E11D               	bnz	l3205
  1761  001004  0E08               	movlw	8
  1762  001006  5C4C               	subwf	kodla_gonder@a,w,c
  1763  001008  B0D8               	btfsc	status,0,c
  1764  00100A  D019               	goto	l3205
  1765  00100C                     l3197:
  1766                           
  1767                           ;Kumanda.c: 92: {
  1768                           ;Kumanda.c: 93: RD0=gelen_veri[a];
  1769  00100C  0E7B               	movlw	low _gelen_veri
  1770  00100E  244C               	addwf	kodla_gonder@a,w,c
  1771  001010  6ED9               	movwf	fsr2l,c
  1772  001012  0E00               	movlw	high _gelen_veri
  1773  001014  204D               	addwfc	kodla_gonder@a+1,w,c
  1774  001016  6EDA               	movwf	fsr2h,c
  1775  001018  50DF               	movf	indf2,w,c
  1776  00101A  6E4A               	movwf	??_kodla_gonder& (0+255),c
  1777  00101C  304A               	rrcf	??_kodla_gonder,w,c
  1778  00101E  A0D8               	btfss	status,0,c
  1779  001020  D002               	goto	u2650
  1780  001022  8083               	bsf	3971,0,c	;volatile
  1781  001024  D001               	goto	l3199
  1782  001026                     u2650:
  1783  001026  9083               	bcf	3971,0,c	;volatile
  1784  001028                     l3199:
  1785                           
  1786                           ;Kumanda.c: 94: _delay((unsigned long)((1500)*(48000000/4000000.0)));
  1787  001028  0E18               	movlw	24
  1788  00102A  6E4A               	movwf	??_kodla_gonder& (0+255),c
  1789  00102C  0E5F               	movlw	95
  1790  00102E                     u3107:
  1791  00102E  2EE8               	decfsz	wreg,f,c
  1792  001030  D7FE               	goto	u3107
  1793  001032  2E4A               	decfsz	??_kodla_gonder& (0+255),f,c
  1794  001034  D7FC               	goto	u3107
  1795  001036  F000               	nop	
  1796  001038  4A4C               	infsnz	kodla_gonder@a,f,c
  1797  00103A  2A4D               	incf	kodla_gonder@a+1,f,c
  1798  00103C  D7DF               	goto	l3193
  1799  00103E                     l3205:
  1800                           
  1801                           ;Kumanda.c: 96: }
  1802                           ;Kumanda.c: 97: _delay((unsigned long)((1000)*(48000000/4000000.0)));
  1803  00103E  0E10               	movlw	16
  1804  001040  6E4A               	movwf	??_kodla_gonder& (0+255),c
  1805  001042  0E94               	movlw	148
  1806  001044                     u3117:
  1807  001044  2EE8               	decfsz	wreg,f,c
  1808  001046  D7FE               	goto	u3117
  1809  001048  2E4A               	decfsz	??_kodla_gonder& (0+255),f,c
  1810  00104A  D7FC               	goto	u3117
  1811  00104C  F000 F000          	nop2	
  1812                           
  1813                           ;Kumanda.c: 98: RD0=0;
  1814  001050  9083               	bcf	3971,0,c	;volatile
  1815  001052  0012               	return		;funcret
  1816  001054                     __end_of_kodla_gonder:
  1817                           	opt stack 0
  1818                           tblptru	equ	0xFF8
  1819                           tblptrh	equ	0xFF7
  1820                           tblptrl	equ	0xFF6
  1821                           tablat	equ	0xFF5
  1822                           postinc0	equ	0xFEE
  1823                           wreg	equ	0xFE8
  1824                           postdec1	equ	0xFE5
  1825                           fsr1l	equ	0xFE1
  1826                           indf2	equ	0xFDF
  1827                           fsr2h	equ	0xFDA
  1828                           fsr2l	equ	0xFD9
  1829                           status	equ	0xFD8
  1830                           
  1831 ;; *************** function ___awdiv *****************
  1832 ;; Defined at:
  1833 ;;		line 8 in file "C:\Program Files (x86)\Microchip\xc8\v1.37\sources\common\awdiv.c"
  1834 ;; Parameters:    Size  Location     Type
  1835 ;;  dividend        2    6[COMRAM] int 
  1836 ;;  divisor         2    8[COMRAM] int 
  1837 ;; Auto vars:     Size  Location     Type
  1838 ;;  quotient        2   12[COMRAM] int 
  1839 ;;  sign            1   11[COMRAM] unsigned char 
  1840 ;;  counter         1   10[COMRAM] unsigned char 
  1841 ;; Return value:  Size  Location     Type
  1842 ;;                  2    6[COMRAM] int 
  1843 ;; Registers used:
  1844 ;;		wreg, status,2, status,0
  1845 ;; Tracked objects:
  1846 ;;		On entry : 0/0
  1847 ;;		On exit  : 0/0
  1848 ;;		Unchanged: 0/0
  1849 ;; Data sizes:     COMRAM   BANK0   BANK1  BANK4l
  1850 ;;      Params:         4       0       0       0
  1851 ;;      Locals:         4       0       0       0
  1852 ;;      Temps:          0       0       0       0
  1853 ;;      Totals:         8       0       0       0
  1854 ;;Total ram usage:        8 bytes
  1855 ;; Hardware stack levels used:    1
  1856 ;; This function calls:
  1857 ;;		Nothing
  1858 ;; This function is called by:
  1859 ;;		_kodla_gonder
  1860 ;;		_main
  1861 ;; This function uses a non-reentrant model
  1862 ;;
  1863                           
  1864                           	psect	text4
  1865  00166E                     __ptext4:
  1866                           	opt stack 0
  1867  00166E                     ___awdiv:
  1868                           	opt stack 29
  1869                           
  1870                           ;incstack = 0
  1871  00166E  0E00               	movlw	0
  1872  001670  6E45               	movwf	___awdiv@sign,c
  1873  001672  AE43               	btfss	___awdiv@divisor+1,7,c
  1874  001674  D006               	goto	l2987
  1875  001676  6C42               	negf	___awdiv@divisor,c
  1876  001678  1E43               	comf	___awdiv@divisor+1,f,c
  1877  00167A  B0D8               	btfsc	status,0,c
  1878  00167C  2A43               	incf	___awdiv@divisor+1,f,c
  1879  00167E  0E01               	movlw	1
  1880  001680  6E45               	movwf	___awdiv@sign,c
  1881  001682                     l2987:
  1882  001682  AE41               	btfss	___awdiv@dividend+1,7,c
  1883  001684  D006               	goto	l2993
  1884  001686  6C40               	negf	___awdiv@dividend,c
  1885  001688  1E41               	comf	___awdiv@dividend+1,f,c
  1886  00168A  B0D8               	btfsc	status,0,c
  1887  00168C  2A41               	incf	___awdiv@dividend+1,f,c
  1888  00168E  0E01               	movlw	1
  1889  001690  1A45               	xorwf	___awdiv@sign,f,c
  1890  001692                     l2993:
  1891  001692  0E00               	movlw	0
  1892  001694  6E47               	movwf	___awdiv@quotient+1,c
  1893  001696  0E00               	movlw	0
  1894  001698  6E46               	movwf	___awdiv@quotient,c
  1895  00169A  5042               	movf	___awdiv@divisor,w,c
  1896  00169C  1043               	iorwf	___awdiv@divisor+1,w,c
  1897  00169E  B4D8               	btfsc	status,2,c
  1898  0016A0  D01C               	goto	l3015
  1899  0016A2  0E01               	movlw	1
  1900  0016A4  6E44               	movwf	___awdiv@counter,c
  1901  0016A6  D004               	goto	l3001
  1902  0016A8                     l2999:
  1903  0016A8  90D8               	bcf	status,0,c
  1904  0016AA  3642               	rlcf	___awdiv@divisor,f,c
  1905  0016AC  3643               	rlcf	___awdiv@divisor+1,f,c
  1906  0016AE  2A44               	incf	___awdiv@counter,f,c
  1907  0016B0                     l3001:
  1908  0016B0  AE43               	btfss	___awdiv@divisor+1,7,c
  1909  0016B2  D7FA               	goto	l2999
  1910  0016B4                     l3003:
  1911  0016B4  90D8               	bcf	status,0,c
  1912  0016B6  3646               	rlcf	___awdiv@quotient,f,c
  1913  0016B8  3647               	rlcf	___awdiv@quotient+1,f,c
  1914  0016BA  5042               	movf	___awdiv@divisor,w,c
  1915  0016BC  5C40               	subwf	___awdiv@dividend,w,c
  1916  0016BE  5043               	movf	___awdiv@divisor+1,w,c
  1917  0016C0  5841               	subwfb	___awdiv@dividend+1,w,c
  1918  0016C2  A0D8               	btfss	status,0,c
  1919  0016C4  D005               	goto	l3011
  1920  0016C6  5042               	movf	___awdiv@divisor,w,c
  1921  0016C8  5E40               	subwf	___awdiv@dividend,f,c
  1922  0016CA  5043               	movf	___awdiv@divisor+1,w,c
  1923  0016CC  5A41               	subwfb	___awdiv@dividend+1,f,c
  1924  0016CE  8046               	bsf	___awdiv@quotient,0,c
  1925  0016D0                     l3011:
  1926  0016D0  90D8               	bcf	status,0,c
  1927  0016D2  3243               	rrcf	___awdiv@divisor+1,f,c
  1928  0016D4  3242               	rrcf	___awdiv@divisor,f,c
  1929  0016D6  2E44               	decfsz	___awdiv@counter,f,c
  1930  0016D8  D7ED               	goto	l3003
  1931  0016DA                     l3015:
  1932  0016DA  5045               	movf	___awdiv@sign,w,c
  1933  0016DC  B4D8               	btfsc	status,2,c
  1934  0016DE  D004               	goto	l3019
  1935  0016E0  6C46               	negf	___awdiv@quotient,c
  1936  0016E2  1E47               	comf	___awdiv@quotient+1,f,c
  1937  0016E4  B0D8               	btfsc	status,0,c
  1938  0016E6  2A47               	incf	___awdiv@quotient+1,f,c
  1939  0016E8                     l3019:
  1940  0016E8  C046  F040         	movff	___awdiv@quotient,?___awdiv
  1941  0016EC  C047  F041         	movff	___awdiv@quotient+1,?___awdiv+1
  1942  0016F0  0012               	return	
  1943  0016F2                     __end_of___awdiv:
  1944                           	opt stack 0
  1945                           tblptru	equ	0xFF8
  1946                           tblptrh	equ	0xFF7
  1947                           tblptrl	equ	0xFF6
  1948                           tablat	equ	0xFF5
  1949                           postinc0	equ	0xFEE
  1950                           wreg	equ	0xFE8
  1951                           postdec1	equ	0xFE5
  1952                           fsr1l	equ	0xFE1
  1953                           indf2	equ	0xFDF
  1954                           fsr2h	equ	0xFDA
  1955                           fsr2l	equ	0xFD9
  1956                           status	equ	0xFD8
  1957                           
  1958 ;; *************** function ___awmod *****************
  1959 ;; Defined at:
  1960 ;;		line 8 in file "C:\Program Files (x86)\Microchip\xc8\v1.37\sources\common\awmod.c"
  1961 ;; Parameters:    Size  Location     Type
  1962 ;;  dividend        2    0[COMRAM] int 
  1963 ;;  divisor         2    2[COMRAM] int 
  1964 ;; Auto vars:     Size  Location     Type
  1965 ;;  sign            1    5[COMRAM] unsigned char 
  1966 ;;  counter         1    4[COMRAM] unsigned char 
  1967 ;; Return value:  Size  Location     Type
  1968 ;;                  2    0[COMRAM] int 
  1969 ;; Registers used:
  1970 ;;		wreg, status,2, status,0
  1971 ;; Tracked objects:
  1972 ;;		On entry : 0/0
  1973 ;;		On exit  : 0/0
  1974 ;;		Unchanged: 0/0
  1975 ;; Data sizes:     COMRAM   BANK0   BANK1  BANK4l
  1976 ;;      Params:         4       0       0       0
  1977 ;;      Locals:         2       0       0       0
  1978 ;;      Temps:          0       0       0       0
  1979 ;;      Totals:         6       0       0       0
  1980 ;;Total ram usage:        6 bytes
  1981 ;; Hardware stack levels used:    1
  1982 ;; This function calls:
  1983 ;;		Nothing
  1984 ;; This function is called by:
  1985 ;;		_main
  1986 ;; This function uses a non-reentrant model
  1987 ;;
  1988                           
  1989                           	psect	text5
  1990  001772                     __ptext5:
  1991                           	opt stack 0
  1992  001772                     ___awmod:
  1993                           	opt stack 30
  1994                           
  1995                           ;incstack = 0
  1996  001772  0E00               	movlw	0
  1997  001774  6E3F               	movwf	___awmod@sign,c
  1998  001776  AE3B               	btfss	___awmod@dividend+1,7,c
  1999  001778  D006               	goto	l3217
  2000  00177A  6C3A               	negf	___awmod@dividend,c
  2001  00177C  1E3B               	comf	___awmod@dividend+1,f,c
  2002  00177E  B0D8               	btfsc	status,0,c
  2003  001780  2A3B               	incf	___awmod@dividend+1,f,c
  2004  001782  0E01               	movlw	1
  2005  001784  6E3F               	movwf	___awmod@sign,c
  2006  001786                     l3217:
  2007  001786  AE3D               	btfss	___awmod@divisor+1,7,c
  2008  001788  D004               	goto	l3221
  2009  00178A  6C3C               	negf	___awmod@divisor,c
  2010  00178C  1E3D               	comf	___awmod@divisor+1,f,c
  2011  00178E  B0D8               	btfsc	status,0,c
  2012  001790  2A3D               	incf	___awmod@divisor+1,f,c
  2013  001792                     l3221:
  2014  001792  503C               	movf	___awmod@divisor,w,c
  2015  001794  103D               	iorwf	___awmod@divisor+1,w,c
  2016  001796  B4D8               	btfsc	status,2,c
  2017  001798  D018               	goto	l3237
  2018  00179A  0E01               	movlw	1
  2019  00179C  6E3E               	movwf	___awmod@counter,c
  2020  00179E  D004               	goto	l3227
  2021  0017A0                     l3225:
  2022  0017A0  90D8               	bcf	status,0,c
  2023  0017A2  363C               	rlcf	___awmod@divisor,f,c
  2024  0017A4  363D               	rlcf	___awmod@divisor+1,f,c
  2025  0017A6  2A3E               	incf	___awmod@counter,f,c
  2026  0017A8                     l3227:
  2027  0017A8  AE3D               	btfss	___awmod@divisor+1,7,c
  2028  0017AA  D7FA               	goto	l3225
  2029  0017AC                     l3229:
  2030  0017AC  503C               	movf	___awmod@divisor,w,c
  2031  0017AE  5C3A               	subwf	___awmod@dividend,w,c
  2032  0017B0  503D               	movf	___awmod@divisor+1,w,c
  2033  0017B2  583B               	subwfb	___awmod@dividend+1,w,c
  2034  0017B4  A0D8               	btfss	status,0,c
  2035  0017B6  D004               	goto	l3233
  2036  0017B8  503C               	movf	___awmod@divisor,w,c
  2037  0017BA  5E3A               	subwf	___awmod@dividend,f,c
  2038  0017BC  503D               	movf	___awmod@divisor+1,w,c
  2039  0017BE  5A3B               	subwfb	___awmod@dividend+1,f,c
  2040  0017C0                     l3233:
  2041  0017C0  90D8               	bcf	status,0,c
  2042  0017C2  323D               	rrcf	___awmod@divisor+1,f,c
  2043  0017C4  323C               	rrcf	___awmod@divisor,f,c
  2044  0017C6  2E3E               	decfsz	___awmod@counter,f,c
  2045  0017C8  D7F1               	goto	l3229
  2046  0017CA                     l3237:
  2047  0017CA  503F               	movf	___awmod@sign,w,c
  2048  0017CC  B4D8               	btfsc	status,2,c
  2049  0017CE  D004               	goto	l3241
  2050  0017D0  6C3A               	negf	___awmod@dividend,c
  2051  0017D2  1E3B               	comf	___awmod@dividend+1,f,c
  2052  0017D4  B0D8               	btfsc	status,0,c
  2053  0017D6  2A3B               	incf	___awmod@dividend+1,f,c
  2054  0017D8                     l3241:
  2055  0017D8  C03A  F03A         	movff	___awmod@dividend,?___awmod
  2056  0017DC  C03B  F03B         	movff	___awmod@dividend+1,?___awmod+1
  2057  0017E0  0012               	return	
  2058  0017E2                     __end_of___awmod:
  2059                           	opt stack 0
  2060                           tblptru	equ	0xFF8
  2061                           tblptrh	equ	0xFF7
  2062                           tblptrl	equ	0xFF6
  2063                           tablat	equ	0xFF5
  2064                           postinc0	equ	0xFEE
  2065                           wreg	equ	0xFE8
  2066                           postdec1	equ	0xFE5
  2067                           fsr1l	equ	0xFE1
  2068                           indf2	equ	0xFDF
  2069                           fsr2h	equ	0xFDA
  2070                           fsr2l	equ	0xFD9
  2071                           status	equ	0xFD8
  2072                           
  2073 ;; *************** function _USBDeviceTasks *****************
  2074 ;; Defined at:
  2075 ;;		line 777 in file "usb_device.c"
  2076 ;; Parameters:    Size  Location     Type
  2077 ;;		None
  2078 ;; Auto vars:     Size  Location     Type
  2079 ;;  i               1   23[COMRAM] unsigned char 
  2080 ;; Return value:  Size  Location     Type
  2081 ;;                  1    wreg      void 
  2082 ;; Registers used:
  2083 ;;		wreg, fsr1l, fsr1h, fsr2l, fsr2h, status,2, status,0, tblptrl, tblptrh, tblptru, prodl, prodh, cstack
  2084 ;; Tracked objects:
  2085 ;;		On entry : 0/0
  2086 ;;		On exit  : 0/0
  2087 ;;		Unchanged: 0/0
  2088 ;; Data sizes:     COMRAM   BANK0   BANK1  BANK4l
  2089 ;;      Params:         0       0       0       0
  2090 ;;      Locals:         1       0       0       0
  2091 ;;      Temps:          1       0       0       0
  2092 ;;      Totals:         2       0       0       0
  2093 ;;Total ram usage:        2 bytes
  2094 ;; Hardware stack levels used:    1
  2095 ;; Hardware stack levels required when called:    8
  2096 ;; This function calls:
  2097 ;;		_USBCtrlEPService
  2098 ;;		_USBDeviceInit
  2099 ;;		_USBStallHandler
  2100 ;;		_USBSuspend
  2101 ;;		_USBWakeFromSuspend
  2102 ;;		_USER_USB_CALLBACK_EVENT_HANDLER
  2103 ;; This function is called by:
  2104 ;;		_main
  2105 ;; This function uses a non-reentrant model
  2106 ;;
  2107                           
  2108                           	psect	text6
  2109  000A36                     __ptext6:
  2110                           	opt stack 0
  2111  000A36                     _USBDeviceTasks:
  2112                           	opt stack 22
  2113                           
  2114                           ;usb_device.c: 845: }
  2115                           ;usb_device.c: 867: if(USBDeviceState == DETACHED_STATE)
  2116                           
  2117                           ;usb_device.c: 844: return;
  2118                           
  2119                           ;usb_device.c: 843: PIR2bits.USBIF = 0;;
  2120                           
  2121                           ;usb_device.c: 815: USBDeviceState = DETACHED_STATE;
  2122                           
  2123                           ;usb_device.c: 812: UIE = 0;
  2124                           
  2125                           ;usb_device.c: 807: {
  2126                           ;usb_device.c: 809: UCON = 0;
  2127                           
  2128                           ;usb_device.c: 780: BYTE i;
  2129                           ;usb_device.c: 806: if (1 != 1)
  2130                           
  2131                           ;incstack = 0
  2132  000A36  5032               	movf	_USBDeviceState,w,c
  2133  000A38  A4D8               	btfss	status,2,c
  2134  000A3A  D010               	goto	l3037
  2135                           
  2136                           ;usb_device.c: 868: {
  2137                           ;usb_device.c: 870: UCON = 0;
  2138  000A3C  0E00               	movlw	0
  2139  000A3E  6E6D               	movwf	3949,c	;volatile
  2140                           
  2141                           ;usb_device.c: 873: UIE = 0;
  2142  000A40  0E00               	movlw	0
  2143  000A42  6E69               	movwf	3945,c	;volatile
  2144                           
  2145                           ;usb_device.c: 877: { UCFG = 0x10 | 0x00 | 0x04 | 0x02; UEIE = 0x9F; UIE = 0x39 | 0x40 |
      +                           0x02; };
  2146  000A44  0E16               	movlw	22
  2147  000A46  6E6F               	movwf	3951,c	;volatile
  2148  000A48  0E9F               	movlw	159
  2149  000A4A  6E6B               	movwf	3947,c	;volatile
  2150  000A4C  0E7B               	movlw	123
  2151  000A4E  6E69               	movwf	3945,c	;volatile
  2152                           
  2153                           ;usb_device.c: 880: while(!UCONbits.USBEN){UCONbits.USBEN = 1;}
  2154  000A50  D001               	goto	l136
  2155  000A52                     l137:
  2156  000A52  866D               	bsf	3949,3,c	;volatile
  2157  000A54                     l136:
  2158  000A54  A66D               	btfss	3949,3,c	;volatile
  2159  000A56  D7FD               	goto	l137
  2160                           
  2161                           ;usb_device.c: 883: USBDeviceState = ATTACHED_STATE;
  2162  000A58  0E01               	movlw	1
  2163  000A5A  6E32               	movwf	_USBDeviceState,c
  2164  000A5C                     l3037:
  2165                           
  2166                           ;usb_device.c: 888: }
  2167                           ;usb_device.c: 891: if(USBDeviceState == ATTACHED_STATE)
  2168  000A5C  0432               	decf	_USBDeviceState,w,c
  2169  000A5E  B4D8               	btfsc	status,2,c
  2170                           
  2171                           ;usb_device.c: 892: {
  2172                           ;usb_device.c: 902: if(!SE0)
  2173  000A60  BA6D               	btfsc	3949,5,c	;volatile
  2174  000A62  D008               	goto	l3047
  2175                           
  2176                           ;usb_device.c: 903: {
  2177                           ;usb_device.c: 904: UIR = 0;;
  2178  000A64  0E00               	movlw	0
  2179  000A66  6E68               	movwf	3944,c	;volatile
  2180                           
  2181                           ;usb_device.c: 906: UIE=0;
  2182  000A68  0E00               	movlw	0
  2183  000A6A  6E69               	movwf	3945,c	;volatile
  2184                           
  2185                           ;usb_device.c: 908: UIEbits.URSTIE = 1;
  2186  000A6C  8069               	bsf	3945,0,c	;volatile
  2187                           
  2188                           ;usb_device.c: 909: UIEbits.IDLEIE = 1;
  2189  000A6E  8869               	bsf	3945,4,c	;volatile
  2190                           
  2191                           ;usb_device.c: 910: USBDeviceState = POWERED_STATE;
  2192  000A70  0E02               	movlw	2
  2193  000A72  6E32               	movwf	_USBDeviceState,c
  2194  000A74                     l3047:
  2195                           
  2196                           ;usb_device.c: 911: }
  2197                           ;usb_device.c: 912: }
  2198                           ;usb_device.c: 928: if(UIRbits.ACTVIF && UIEbits.ACTVIE)
  2199  000A74  B468               	btfsc	3944,2,c	;volatile
  2200  000A76  A469               	btfss	3945,2,c	;volatile
  2201  000A78  D003               	goto	l3055
  2202                           
  2203                           ;usb_device.c: 929: {
  2204                           ;usb_device.c: 930: (UIR &= 0xFB);
  2205  000A7A  9468               	bcf	3944,2,c	;volatile
  2206                           
  2207                           ;usb_device.c: 934: USBWakeFromSuspend();
  2208  000A7C  EC3B  F00D         	call	_USBWakeFromSuspend	;wreg free
  2209  000A80                     l3055:
  2210                           
  2211                           ;usb_device.c: 936: }
  2212                           ;usb_device.c: 941: if(SUSPND==1)
  2213  000A80  A26D               	btfss	3949,1,c	;volatile
  2214  000A82  D002               	goto	l142
  2215                           
  2216                           ;usb_device.c: 942: {
  2217                           ;usb_device.c: 943: PIR2bits.USBIF = 0;;
  2218  000A84  9AA1               	bcf	4001,5,c	;volatile
  2219                           
  2220                           ;usb_device.c: 944: return;
  2221  000A86  0012               	return	
  2222  000A88                     l142:
  2223                           
  2224                           ;usb_device.c: 945: }
  2225                           ;usb_device.c: 957: if(UIRbits.URSTIF && UIEbits.URSTIE)
  2226  000A88  B068               	btfsc	3944,0,c	;volatile
  2227  000A8A  A069               	btfss	3945,0,c	;volatile
  2228  000A8C  D014               	goto	l3075
  2229                           
  2230                           ;usb_device.c: 958: {
  2231                           ;usb_device.c: 959: USBDeviceInit();
  2232  000A8E  EC65  F00A         	call	_USBDeviceInit	;wreg free
  2233                           
  2234                           ;usb_device.c: 960: USBDeviceState = DEFAULT_STATE;
  2235  000A92  0E04               	movlw	4
  2236  000A94  6E32               	movwf	_USBDeviceState,c
  2237                           
  2238                           ;usb_device.c: 972: BDT[0].ADR = (BYTE*)&SetupPkt;
  2239  000A96  0E00               	movlw	0
  2240  000A98  0104               	movlb	4	; () banked
  2241  000A9A  6F02               	movwf	2,b	;volatile
  2242  000A9C  0E05               	movlw	5
  2243  000A9E  0104               	movlb	4	; () banked
  2244  000AA0  6F03               	movwf	3,b	;volatile
  2245                           
  2246                           ; BSR set to: 4
  2247                           ;usb_device.c: 973: BDT[0].CNT = 8;
  2248  000AA2  0E08               	movlw	8
  2249  000AA4  0104               	movlb	4	; () banked
  2250  000AA6  6F01               	movwf	1,b	;volatile
  2251                           
  2252                           ; BSR set to: 4
  2253                           ;usb_device.c: 974: BDT[0].STAT.Val &= ~0xFF;
  2254  000AA8  0E00               	movlw	0
  2255  000AAA  0104               	movlb	4	; () banked
  2256  000AAC  6F00               	movwf	0,b	;volatile
  2257                           
  2258                           ; BSR set to: 4
  2259                           ;usb_device.c: 975: BDT[0].STAT.Val |= 0x80|0x00|0x08|0x04;
  2260  000AAE  0E8C               	movlw	140
  2261  000AB0  0104               	movlb	4	; () banked
  2262  000AB2  1300               	iorwf	0,f,b	;volatile
  2263                           
  2264                           ; BSR set to: 4
  2265                           ;usb_device.c: 985: (UIR &= 0xFE);
  2266  000AB4  9068               	bcf	3944,0,c	;volatile
  2267  000AB6                     l3075:
  2268                           
  2269                           ;usb_device.c: 986: }
  2270                           ;usb_device.c: 991: if(UIRbits.IDLEIF && UIEbits.IDLEIE)
  2271  000AB6  B868               	btfsc	3944,4,c	;volatile
  2272  000AB8  A869               	btfss	3945,4,c	;volatile
  2273  000ABA  D003               	goto	l3083
  2274                           
  2275                           ;usb_device.c: 992: {
  2276                           ;usb_device.c: 997: USBSuspend();
  2277  000ABC  EC65  F00D         	call	_USBSuspend	;wreg free
  2278                           
  2279                           ;usb_device.c: 1000: (UIR &= 0xEF);
  2280  000AC0  9868               	bcf	3944,4,c	;volatile
  2281  000AC2                     l3083:
  2282                           
  2283                           ;usb_device.c: 1001: }
  2284                           ;usb_device.c: 1003: if(UIRbits.SOFIF && UIEbits.SOFIE)
  2285  000AC2  BC68               	btfsc	3944,6,c	;volatile
  2286  000AC4  AC69               	btfss	3945,6,c	;volatile
  2287  000AC6  D00F               	goto	l3091
  2288                           
  2289                           ;usb_device.c: 1004: {
  2290                           ;usb_device.c: 1005: USER_USB_CALLBACK_EVENT_HANDLER(EVENT_SOF,0,1);
  2291  000AC8  0E00               	movlw	0
  2292  000ACA  6E46               	movwf	USER_USB_CALLBACK_EVENT_HANDLER@event+1,c
  2293  000ACC  0E73               	movlw	115
  2294  000ACE  6E45               	movwf	USER_USB_CALLBACK_EVENT_HANDLER@event,c
  2295  000AD0  0E00               	movlw	0
  2296  000AD2  6E47               	movwf	USER_USB_CALLBACK_EVENT_HANDLER@pdata,c
  2297  000AD4  0E00               	movlw	0
  2298  000AD6  6E48               	movwf	USER_USB_CALLBACK_EVENT_HANDLER@pdata+1,c
  2299  000AD8  0E00               	movlw	0
  2300  000ADA  6E4A               	movwf	USER_USB_CALLBACK_EVENT_HANDLER@size+1,c
  2301  000ADC  0E01               	movlw	1
  2302  000ADE  6E49               	movwf	USER_USB_CALLBACK_EVENT_HANDLER@size,c
  2303  000AE0  EC79  F00B         	call	_USER_USB_CALLBACK_EVENT_HANDLER	;wreg free
  2304                           
  2305                           ;usb_device.c: 1006: (UIR &= 0xBF);
  2306  000AE4  9C68               	bcf	3944,6,c	;volatile
  2307  000AE6                     l3091:
  2308                           
  2309                           ;usb_device.c: 1007: }
  2310                           ;usb_device.c: 1009: if(UIRbits.STALLIF && UIEbits.STALLIE)
  2311  000AE6  BA68               	btfsc	3944,5,c	;volatile
  2312  000AE8  AA69               	btfss	3945,5,c	;volatile
  2313  000AEA  D002               	goto	l3097
  2314                           
  2315                           ;usb_device.c: 1010: {
  2316                           ;usb_device.c: 1011: USBStallHandler();
  2317  000AEC  ECF3  F00C         	call	_USBStallHandler	;wreg free
  2318  000AF0                     l3097:
  2319                           
  2320                           ;usb_device.c: 1012: }
  2321                           ;usb_device.c: 1014: if(UIRbits.UERRIF && UIEbits.UERRIE)
  2322  000AF0  B268               	btfsc	3944,1,c	;volatile
  2323  000AF2  A269               	btfss	3945,1,c	;volatile
  2324  000AF4  D00F               	goto	l3105
  2325                           
  2326                           ;usb_device.c: 1015: {
  2327                           ;usb_device.c: 1016: USER_USB_CALLBACK_EVENT_HANDLER(EVENT_BUS_ERROR,0,1);
  2328  000AF6  0E7F               	movlw	127
  2329  000AF8  6E46               	movwf	USER_USB_CALLBACK_EVENT_HANDLER@event+1,c
  2330  000AFA  6845               	setf	USER_USB_CALLBACK_EVENT_HANDLER@event,c
  2331  000AFC  0E00               	movlw	0
  2332  000AFE  6E47               	movwf	USER_USB_CALLBACK_EVENT_HANDLER@pdata,c
  2333  000B00  0E00               	movlw	0
  2334  000B02  6E48               	movwf	USER_USB_CALLBACK_EVENT_HANDLER@pdata+1,c
  2335  000B04  0E00               	movlw	0
  2336  000B06  6E4A               	movwf	USER_USB_CALLBACK_EVENT_HANDLER@size+1,c
  2337  000B08  0E01               	movlw	1
  2338  000B0A  6E49               	movwf	USER_USB_CALLBACK_EVENT_HANDLER@size,c
  2339  000B0C  EC79  F00B         	call	_USER_USB_CALLBACK_EVENT_HANDLER	;wreg free
  2340                           
  2341                           ;usb_device.c: 1017: UEIR = 0;;
  2342  000B10  0E00               	movlw	0
  2343  000B12  6E6A               	movwf	3946,c	;volatile
  2344  000B14                     l3105:
  2345                           
  2346                           ;usb_device.c: 1018: }
  2347                           ;usb_device.c: 1025: if(USBDeviceState < DEFAULT_STATE)
  2348  000B14  0E04               	movlw	4
  2349  000B16  6032               	cpfslt	_USBDeviceState,c
  2350  000B18  D002               	goto	l148
  2351                           
  2352                           ;usb_device.c: 1026: {
  2353                           ;usb_device.c: 1027: PIR2bits.USBIF = 0;;
  2354  000B1A  9AA1               	bcf	4001,5,c	;volatile
  2355                           
  2356                           ;usb_device.c: 1028: return;
  2357  000B1C  0012               	return	
  2358  000B1E                     l148:
  2359                           
  2360                           ;usb_device.c: 1029: }
  2361                           ;usb_device.c: 1034: if(UIEbits.TRNIE)
  2362  000B1E  A669               	btfss	3945,3,c	;volatile
  2363  000B20  D024               	goto	l149
  2364                           
  2365                           ;usb_device.c: 1035: {
  2366                           ;usb_device.c: 1036: for(i = 0; i < 4; i++)
  2367  000B22  0E00               	movlw	0
  2368  000B24  6E51               	movwf	USBDeviceTasks@i,c
  2369  000B26                     l3111:
  2370  000B26  0E03               	movlw	3
  2371  000B28  6451               	cpfsgt	USBDeviceTasks@i,c
  2372  000B2A  D001               	goto	l150
  2373  000B2C  D01E               	goto	l149
  2374  000B2E                     l150:
  2375                           
  2376                           ;usb_device.c: 1037: {
  2377                           ;usb_device.c: 1038: if(UIRbits.TRNIF)
  2378  000B2E  A668               	btfss	3944,3,c	;volatile
  2379  000B30  D01C               	goto	l149
  2380                           
  2381                           ;usb_device.c: 1039: {
  2382                           ;usb_device.c: 1040: USTATcopy = USTAT;
  2383  000B32  CF6C F037          	movff	3948,_USTATcopy	;volatile
  2384                           
  2385                           ;usb_device.c: 1042: (UIR &= 0xF7);
  2386  000B36  9668               	bcf	3944,3,c	;volatile
  2387                           
  2388                           ;usb_device.c: 1049: if((USTATcopy & 0b01111000) == 0)
  2389  000B38  C037  F050         	movff	_USTATcopy,??_USBDeviceTasks
  2390  000B3C  0E78               	movlw	120
  2391  000B3E  1650               	andwf	??_USBDeviceTasks,f,c
  2392  000B40  A4D8               	btfss	status,2,c
  2393  000B42  D003               	goto	l3123
  2394                           
  2395                           ;usb_device.c: 1050: {
  2396                           ;usb_device.c: 1051: USBCtrlEPService();
  2397  000B44  EC0B  F009         	call	_USBCtrlEPService	;wreg free
  2398                           
  2399                           ;usb_device.c: 1052: }
  2400  000B48  D00E               	goto	l3125
  2401  000B4A                     l3123:
  2402                           
  2403                           ;usb_device.c: 1053: else
  2404                           ;usb_device.c: 1054: {
  2405                           ;usb_device.c: 1055: USER_USB_CALLBACK_EVENT_HANDLER(EVENT_TRANSFER,(BYTE*)&USTATcopy,0)
      +                          ;
  2406  000B4A  0E00               	movlw	0
  2407  000B4C  6E46               	movwf	USER_USB_CALLBACK_EVENT_HANDLER@event+1,c
  2408  000B4E  0E72               	movlw	114
  2409  000B50  6E45               	movwf	USER_USB_CALLBACK_EVENT_HANDLER@event,c
  2410  000B52  0E37               	movlw	low _USTATcopy
  2411  000B54  6E47               	movwf	USER_USB_CALLBACK_EVENT_HANDLER@pdata,c
  2412  000B56  0E00               	movlw	high _USTATcopy
  2413  000B58  6E48               	movwf	USER_USB_CALLBACK_EVENT_HANDLER@pdata+1,c
  2414  000B5A  0E00               	movlw	0
  2415  000B5C  6E4A               	movwf	USER_USB_CALLBACK_EVENT_HANDLER@size+1,c
  2416  000B5E  0E00               	movlw	0
  2417  000B60  6E49               	movwf	USER_USB_CALLBACK_EVENT_HANDLER@size,c
  2418  000B62  EC79  F00B         	call	_USER_USB_CALLBACK_EVENT_HANDLER	;wreg free
  2419  000B66                     l3125:
  2420  000B66  2A51               	incf	USBDeviceTasks@i,f,c
  2421  000B68  D7DE               	goto	l3111
  2422  000B6A                     l149:
  2423                           
  2424                           ;usb_device.c: 1063: }
  2425                           ;usb_device.c: 1064: }
  2426                           ;usb_device.c: 1066: PIR2bits.USBIF = 0;;
  2427  000B6A  9AA1               	bcf	4001,5,c	;volatile
  2428  000B6C  0012               	return		;funcret
  2429  000B6E                     __end_of_USBDeviceTasks:
  2430                           	opt stack 0
  2431                           tblptru	equ	0xFF8
  2432                           tblptrh	equ	0xFF7
  2433                           tblptrl	equ	0xFF6
  2434                           tablat	equ	0xFF5
  2435                           postinc0	equ	0xFEE
  2436                           wreg	equ	0xFE8
  2437                           postdec1	equ	0xFE5
  2438                           fsr1l	equ	0xFE1
  2439                           indf2	equ	0xFDF
  2440                           fsr2h	equ	0xFDA
  2441                           fsr2l	equ	0xFD9
  2442                           status	equ	0xFD8
  2443                           
  2444 ;; *************** function _USBWakeFromSuspend *****************
  2445 ;; Defined at:
  2446 ;;		line 1185 in file "usb_device.c"
  2447 ;; Parameters:    Size  Location     Type
  2448 ;;		None
  2449 ;; Auto vars:     Size  Location     Type
  2450 ;;		None
  2451 ;; Return value:  Size  Location     Type
  2452 ;;                  1    wreg      void 
  2453 ;; Registers used:
  2454 ;;		wreg, fsr2l, fsr2h, status,2, status,0, prodl, prodh, cstack
  2455 ;; Tracked objects:
  2456 ;;		On entry : 0/0
  2457 ;;		On exit  : 0/0
  2458 ;;		Unchanged: 0/0
  2459 ;; Data sizes:     COMRAM   BANK0   BANK1  BANK4l
  2460 ;;      Params:         0       0       0       0
  2461 ;;      Locals:         0       0       0       0
  2462 ;;      Temps:          0       0       0       0
  2463 ;;      Totals:         0       0       0       0
  2464 ;;Total ram usage:        0 bytes
  2465 ;; Hardware stack levels used:    1
  2466 ;; Hardware stack levels required when called:    4
  2467 ;; This function calls:
  2468 ;;		_USER_USB_CALLBACK_EVENT_HANDLER
  2469 ;; This function is called by:
  2470 ;;		_USBDeviceTasks
  2471 ;; This function uses a non-reentrant model
  2472 ;;
  2473                           
  2474                           	psect	text7
  2475  001A76                     __ptext7:
  2476                           	opt stack 0
  2477  001A76                     _USBWakeFromSuspend:
  2478                           	opt stack 25
  2479                           
  2480                           ;usb_device.c: 1191: USER_USB_CALLBACK_EVENT_HANDLER(EVENT_RESUME,0,0);
  2481                           
  2482                           ;incstack = 0
  2483  001A76  0E00               	movlw	0
  2484  001A78  6E46               	movwf	USER_USB_CALLBACK_EVENT_HANDLER@event+1,c
  2485  001A7A  0E74               	movlw	116
  2486  001A7C  6E45               	movwf	USER_USB_CALLBACK_EVENT_HANDLER@event,c
  2487  001A7E  0E00               	movlw	0
  2488  001A80  6E47               	movwf	USER_USB_CALLBACK_EVENT_HANDLER@pdata,c
  2489  001A82  0E00               	movlw	0
  2490  001A84  6E48               	movwf	USER_USB_CALLBACK_EVENT_HANDLER@pdata+1,c
  2491  001A86  0E00               	movlw	0
  2492  001A88  6E4A               	movwf	USER_USB_CALLBACK_EVENT_HANDLER@size+1,c
  2493  001A8A  0E00               	movlw	0
  2494  001A8C  6E49               	movwf	USER_USB_CALLBACK_EVENT_HANDLER@size,c
  2495  001A8E  EC79  F00B         	call	_USER_USB_CALLBACK_EVENT_HANDLER	;wreg free
  2496                           
  2497                           ;usb_device.c: 1198: UCONbits.SUSPND = 0;
  2498  001A92  926D               	bcf	3949,1,c	;volatile
  2499                           
  2500                           ;usb_device.c: 1203: UIEbits.ACTVIE = 0;
  2501  001A94  9469               	bcf	3945,2,c	;volatile
  2502                           
  2503                           ;usb_device.c: 1221: while(UIRbits.ACTVIF)
  2504  001A96  D001               	goto	l2923
  2505  001A98                     l2921:
  2506                           
  2507                           ;usb_device.c: 1223: {
  2508                           ;usb_device.c: 1224: (UIR &= 0xFB);
  2509  001A98  9468               	bcf	3944,2,c	;volatile
  2510  001A9A                     l2923:
  2511  001A9A  A468               	btfss	3944,2,c	;volatile
  2512  001A9C  0012               	return	
  2513  001A9E  D7FC               	goto	l2921
  2514  001AA0                     __end_of_USBWakeFromSuspend:
  2515                           	opt stack 0
  2516                           tblptru	equ	0xFF8
  2517                           tblptrh	equ	0xFF7
  2518                           tblptrl	equ	0xFF6
  2519                           tablat	equ	0xFF5
  2520                           postinc0	equ	0xFEE
  2521                           wreg	equ	0xFE8
  2522                           postdec1	equ	0xFE5
  2523                           fsr1l	equ	0xFE1
  2524                           indf2	equ	0xFDF
  2525                           fsr2h	equ	0xFDA
  2526                           fsr2l	equ	0xFD9
  2527                           status	equ	0xFD8
  2528                           
  2529 ;; *************** function _USBSuspend *****************
  2530 ;; Defined at:
  2531 ;;		line 1128 in file "usb_device.c"
  2532 ;; Parameters:    Size  Location     Type
  2533 ;;		None
  2534 ;; Auto vars:     Size  Location     Type
  2535 ;;		None
  2536 ;; Return value:  Size  Location     Type
  2537 ;;                  1    wreg      void 
  2538 ;; Registers used:
  2539 ;;		wreg, fsr2l, fsr2h, status,2, status,0, prodl, prodh, cstack
  2540 ;; Tracked objects:
  2541 ;;		On entry : 0/0
  2542 ;;		On exit  : 0/0
  2543 ;;		Unchanged: 0/0
  2544 ;; Data sizes:     COMRAM   BANK0   BANK1  BANK4l
  2545 ;;      Params:         0       0       0       0
  2546 ;;      Locals:         0       0       0       0
  2547 ;;      Temps:          0       0       0       0
  2548 ;;      Totals:         0       0       0       0
  2549 ;;Total ram usage:        0 bytes
  2550 ;; Hardware stack levels used:    1
  2551 ;; Hardware stack levels required when called:    4
  2552 ;; This function calls:
  2553 ;;		_USER_USB_CALLBACK_EVENT_HANDLER
  2554 ;; This function is called by:
  2555 ;;		_USBDeviceTasks
  2556 ;; This function uses a non-reentrant model
  2557 ;;
  2558                           
  2559                           	psect	text8
  2560  001ACA                     __ptext8:
  2561                           	opt stack 0
  2562  001ACA                     _USBSuspend:
  2563                           	opt stack 25
  2564                           
  2565                           ;usb_device.c: 1153: UIEbits.ACTVIE = 1;
  2566                           
  2567                           ;incstack = 0
  2568  001ACA  8469               	bsf	3945,2,c	;volatile
  2569                           
  2570                           ;usb_device.c: 1154: (UIR &= 0xEF);
  2571  001ACC  9868               	bcf	3944,4,c	;volatile
  2572                           
  2573                           ;usb_device.c: 1157: UCONbits.SUSPND = 1;
  2574  001ACE  826D               	bsf	3949,1,c	;volatile
  2575                           
  2576                           ;usb_device.c: 1167: USER_USB_CALLBACK_EVENT_HANDLER(EVENT_SUSPEND,0,0);
  2577  001AD0  0E00               	movlw	0
  2578  001AD2  6E46               	movwf	USER_USB_CALLBACK_EVENT_HANDLER@event+1,c
  2579  001AD4  0E75               	movlw	117
  2580  001AD6  6E45               	movwf	USER_USB_CALLBACK_EVENT_HANDLER@event,c
  2581  001AD8  0E00               	movlw	0
  2582  001ADA  6E47               	movwf	USER_USB_CALLBACK_EVENT_HANDLER@pdata,c
  2583  001ADC  0E00               	movlw	0
  2584  001ADE  6E48               	movwf	USER_USB_CALLBACK_EVENT_HANDLER@pdata+1,c
  2585  001AE0  0E00               	movlw	0
  2586  001AE2  6E4A               	movwf	USER_USB_CALLBACK_EVENT_HANDLER@size+1,c
  2587  001AE4  0E00               	movlw	0
  2588  001AE6  6E49               	movwf	USER_USB_CALLBACK_EVENT_HANDLER@size,c
  2589  001AE8  EC79  F00B         	call	_USER_USB_CALLBACK_EVENT_HANDLER	;wreg free
  2590  001AEC  0012               	return		;funcret
  2591  001AEE                     __end_of_USBSuspend:
  2592                           	opt stack 0
  2593                           tblptru	equ	0xFF8
  2594                           tblptrh	equ	0xFF7
  2595                           tblptrl	equ	0xFF6
  2596                           tablat	equ	0xFF5
  2597                           postinc0	equ	0xFEE
  2598                           wreg	equ	0xFE8
  2599                           postdec1	equ	0xFE5
  2600                           fsr1l	equ	0xFE1
  2601                           indf2	equ	0xFDF
  2602                           fsr2h	equ	0xFDA
  2603                           fsr2l	equ	0xFD9
  2604                           status	equ	0xFD8
  2605                           
  2606 ;; *************** function _USBStallHandler *****************
  2607 ;; Defined at:
  2608 ;;		line 1085 in file "usb_device.c"
  2609 ;; Parameters:    Size  Location     Type
  2610 ;;		None
  2611 ;; Auto vars:     Size  Location     Type
  2612 ;;		None
  2613 ;; Return value:  Size  Location     Type
  2614 ;;                  1    wreg      void 
  2615 ;; Registers used:
  2616 ;;		wreg, fsr2l, fsr2h, status,2, status,0
  2617 ;; Tracked objects:
  2618 ;;		On entry : 0/0
  2619 ;;		On exit  : 0/0
  2620 ;;		Unchanged: 0/0
  2621 ;; Data sizes:     COMRAM   BANK0   BANK1  BANK4l
  2622 ;;      Params:         0       0       0       0
  2623 ;;      Locals:         0       0       0       0
  2624 ;;      Temps:          1       0       0       0
  2625 ;;      Totals:         1       0       0       0
  2626 ;;Total ram usage:        1 bytes
  2627 ;; Hardware stack levels used:    1
  2628 ;; This function calls:
  2629 ;;		Nothing
  2630 ;; This function is called by:
  2631 ;;		_USBDeviceTasks
  2632 ;; This function uses a non-reentrant model
  2633 ;;
  2634                           
  2635                           	psect	text9
  2636  0019E6                     __ptext9:
  2637                           	opt stack 0
  2638  0019E6                     _USBStallHandler:
  2639                           	opt stack 29
  2640                           
  2641                           ;usb_device.c: 1098: if(UEP0bits.EPSTALL == 1)
  2642                           
  2643                           ;incstack = 0
  2644  0019E6  A070               	btfss	3952,0,c	;volatile
  2645  0019E8  D017               	goto	l2943
  2646                           
  2647                           ;usb_device.c: 1099: {
  2648                           ;usb_device.c: 1101: if((pBDTEntryEP0OutCurrent->STAT.Val == 0x80) && (pBDTEntryIn[0]->S
      +                          TAT.Val == (0x80|0x04)))
  2649  0019EA  C028  FFD9         	movff	_pBDTEntryEP0OutCurrent,fsr2l
  2650  0019EE  C029  FFDA         	movff	_pBDTEntryEP0OutCurrent+1,fsr2h
  2651  0019F2  0E80               	movlw	128
  2652  0019F4  18DE               	xorwf	postinc2,w,c
  2653  0019F6  A4D8               	btfss	status,2,c
  2654  0019F8  D00E               	goto	l2941
  2655  0019FA  C00F  FFD9         	movff	_pBDTEntryIn,fsr2l
  2656  0019FE  C010  FFDA         	movff	_pBDTEntryIn+1,fsr2h
  2657  001A02  0E84               	movlw	132
  2658  001A04  18DE               	xorwf	postinc2,w,c
  2659  001A06  A4D8               	btfss	status,2,c
  2660  001A08  D006               	goto	l2941
  2661                           
  2662                           ;usb_device.c: 1102: {
  2663                           ;usb_device.c: 1104: pBDTEntryEP0OutCurrent->STAT.Val = 0x80|0x00|0x08|0x04;
  2664  001A0A  C028  FFD9         	movff	_pBDTEntryEP0OutCurrent,fsr2l
  2665  001A0E  C029  FFDA         	movff	_pBDTEntryEP0OutCurrent+1,fsr2h
  2666  001A12  0E8C               	movlw	140
  2667  001A14  6EDF               	movwf	indf2,c
  2668  001A16                     l2941:
  2669                           
  2670                           ;usb_device.c: 1105: }
  2671                           ;usb_device.c: 1106: UEP0bits.EPSTALL = 0;
  2672  001A16  9070               	bcf	3952,0,c	;volatile
  2673  001A18                     l2943:
  2674                           
  2675                           ;usb_device.c: 1107: }
  2676                           ;usb_device.c: 1109: (UIR &= 0xDF);
  2677  001A18  9A68               	bcf	3944,5,c	;volatile
  2678  001A1A  0012               	return		;funcret
  2679  001A1C                     __end_of_USBStallHandler:
  2680                           	opt stack 0
  2681                           tblptru	equ	0xFF8
  2682                           tblptrh	equ	0xFF7
  2683                           tblptrl	equ	0xFF6
  2684                           tablat	equ	0xFF5
  2685                           postinc0	equ	0xFEE
  2686                           wreg	equ	0xFE8
  2687                           postdec1	equ	0xFE5
  2688                           fsr1l	equ	0xFE1
  2689                           indf2	equ	0xFDF
  2690                           postinc2	equ	0xFDE
  2691                           fsr2h	equ	0xFDA
  2692                           fsr2l	equ	0xFD9
  2693                           status	equ	0xFD8
  2694                           
  2695 ;; *************** function _USBDeviceInit *****************
  2696 ;; Defined at:
  2697 ;;		line 671 in file "usb_device.c"
  2698 ;; Parameters:    Size  Location     Type
  2699 ;;		None
  2700 ;; Auto vars:     Size  Location     Type
  2701 ;;  i               1    8[COMRAM] unsigned char 
  2702 ;; Return value:  Size  Location     Type
  2703 ;;                  1    wreg      void 
  2704 ;; Registers used:
  2705 ;;		wreg, fsr2l, fsr2h, status,2, status,0, prodl, prodh, cstack
  2706 ;; Tracked objects:
  2707 ;;		On entry : 0/0
  2708 ;;		On exit  : 0/0
  2709 ;;		Unchanged: 0/0
  2710 ;; Data sizes:     COMRAM   BANK0   BANK1  BANK4l
  2711 ;;      Params:         0       0       0       0
  2712 ;;      Locals:         1       0       0       0
  2713 ;;      Temps:          0       0       0       0
  2714 ;;      Totals:         1       0       0       0
  2715 ;;Total ram usage:        1 bytes
  2716 ;; Hardware stack levels used:    1
  2717 ;; Hardware stack levels required when called:    1
  2718 ;; This function calls:
  2719 ;;		_memset
  2720 ;; This function is called by:
  2721 ;;		_USBDeviceTasks
  2722 ;;		_main
  2723 ;; This function uses a non-reentrant model
  2724 ;;
  2725                           
  2726                           	psect	text10
  2727  0014CA                     __ptext10:
  2728                           	opt stack 0
  2729  0014CA                     _USBDeviceInit:
  2730                           	opt stack 28
  2731                           
  2732                           ;usb_device.c: 673: BYTE i;
  2733                           ;usb_device.c: 676: UEIR = 0;;
  2734                           
  2735                           ;incstack = 0
  2736  0014CA  0E00               	movlw	0
  2737  0014CC  6E6A               	movwf	3946,c	;volatile
  2738                           
  2739                           ;usb_device.c: 679: UIR = 0;;
  2740  0014CE  0E00               	movlw	0
  2741  0014D0  6E68               	movwf	3944,c	;volatile
  2742                           
  2743                           ;usb_device.c: 681: { UCFG = 0x10 | 0x00 | 0x04 | 0x02; UEIE = 0x9F; UIE = 0x39 | 0x40 |
      +                           0x02; };
  2744  0014D2  0E16               	movlw	22
  2745  0014D4  6E6F               	movwf	3951,c	;volatile
  2746  0014D6  0E9F               	movlw	159
  2747  0014D8  6E6B               	movwf	3947,c	;volatile
  2748  0014DA  0E7B               	movlw	123
  2749  0014DC  6E69               	movwf	3945,c	;volatile
  2750                           
  2751                           ;usb_device.c: 684: ;
  2752                           ;usb_device.c: 687: ;
  2753                           ;usb_device.c: 690: UCONbits.PPBRST = 1;
  2754  0014DE  8C6D               	bsf	3949,6,c	;volatile
  2755                           
  2756                           ;usb_device.c: 693: UADDR = 0x00;
  2757  0014E0  0E00               	movlw	0
  2758  0014E2  6E6E               	movwf	3950,c	;volatile
  2759                           
  2760                           ;usb_device.c: 696: memset((void*)&UEP1,0x00,(1-1));
  2761  0014E4  0E71               	movlw	113
  2762  0014E6  6E3A               	movwf	memset@p1,c
  2763  0014E8  0E0F               	movlw	15
  2764  0014EA  6E3B               	movwf	memset@p1+1,c
  2765  0014EC  0E00               	movlw	0
  2766  0014EE  6E3D               	movwf	memset@c+1,c
  2767  0014F0  0E00               	movlw	0
  2768  0014F2  6E3C               	movwf	memset@c,c
  2769  0014F4  0E00               	movlw	0
  2770  0014F6  6E3F               	movwf	memset@n+1,c
  2771  0014F8  0E00               	movlw	0
  2772  0014FA  6E3E               	movwf	memset@n,c
  2773  0014FC  EC25  F00D         	call	_memset	;wreg free
  2774                           
  2775                           ;usb_device.c: 699: UCONbits.PPBRST = 0;
  2776  001500  9C6D               	bcf	3949,6,c	;volatile
  2777                           
  2778                           ;usb_device.c: 702: for(i=0;i<(sizeof(BDT)/sizeof(BDT_ENTRY));i++)
  2779  001502  0E00               	movlw	0
  2780  001504  6E42               	movwf	USBDeviceInit@i,c
  2781  001506                     l2889:
  2782  001506  0E07               	movlw	7
  2783  001508  6442               	cpfsgt	USBDeviceInit@i,c
  2784  00150A  D001               	goto	l2893
  2785  00150C  D00E               	goto	l2899
  2786  00150E                     l2893:
  2787                           
  2788                           ;usb_device.c: 703: {
  2789                           ;usb_device.c: 704: BDT[i].Val = 0x00;
  2790  00150E  5042               	movf	USBDeviceInit@i,w,c
  2791  001510  0D04               	mullw	4
  2792  001512  0E00               	movlw	0
  2793  001514  24F3               	addwf	prodl,w,c
  2794  001516  6ED9               	movwf	fsr2l,c
  2795  001518  0E04               	movlw	4
  2796  00151A  20F4               	addwfc	prodh,w,c
  2797  00151C  6EDA               	movwf	fsr2h,c
  2798  00151E  6ADE               	clrf	postinc2,c
  2799  001520  6ADE               	clrf	postinc2,c
  2800  001522  6ADE               	clrf	postinc2,c
  2801  001524  6ADD               	clrf	postdec2,c
  2802  001526  2A42               	incf	USBDeviceInit@i,f,c
  2803  001528  D7EE               	goto	l2889
  2804  00152A                     l2899:
  2805                           
  2806                           ;usb_device.c: 705: }
  2807                           ;usb_device.c: 708: UEP0 = 0x06|0x10;
  2808  00152A  0E16               	movlw	22
  2809  00152C  6E70               	movwf	3952,c	;volatile
  2810                           
  2811                           ;usb_device.c: 711: while(UIRbits.TRNIF == 1)
  2812  00152E  D001               	goto	l2903
  2813  001530                     l2901:
  2814                           
  2815                           ;usb_device.c: 712: {
  2816                           ;usb_device.c: 713: (UIR &= 0xF7);
  2817  001530  9668               	bcf	3944,3,c	;volatile
  2818  001532                     l2903:
  2819  001532  B668               	btfsc	3944,3,c	;volatile
  2820  001534  D7FD               	goto	l2901
  2821                           
  2822                           ;usb_device.c: 714: }
  2823                           ;usb_device.c: 717: inPipes[0].info.Val = 0;
  2824  001536  0E00               	movlw	0
  2825  001538  6E0C               	movwf	_inPipes+3,c
  2826                           
  2827                           ;usb_device.c: 718: outPipes[0].info.Val = 0;
  2828  00153A  0E00               	movlw	0
  2829  00153C  6E04               	movwf	_outPipes+3,c
  2830                           
  2831                           ;usb_device.c: 719: outPipes[0].wCount.Val = 0;
  2832  00153E  0E00               	movlw	0
  2833  001540  6E06               	movwf	_outPipes+5,c
  2834  001542  0E00               	movlw	0
  2835  001544  6E05               	movwf	_outPipes+4,c
  2836                           
  2837                           ;usb_device.c: 722: PKTDIS = 0;
  2838  001546  986D               	bcf	3949,4,c	;volatile
  2839                           
  2840                           ;usb_device.c: 725: pBDTEntryIn[0] = (volatile BDT_ENTRY*)&BDT[2];
  2841  001548  0E08               	movlw	8
  2842  00154A  6E0F               	movwf	_pBDTEntryIn,c
  2843  00154C  0E04               	movlw	4
  2844  00154E  6E10               	movwf	_pBDTEntryIn+1,c
  2845                           
  2846                           ;usb_device.c: 728: USBActiveConfiguration = 0;
  2847  001550  0E00               	movlw	0
  2848  001552  6E35               	movwf	_USBActiveConfiguration,c
  2849                           
  2850                           ;usb_device.c: 731: USBDeviceState = DETACHED_STATE;
  2851  001554  0E00               	movlw	0
  2852  001556  6E32               	movwf	_USBDeviceState,c
  2853  001558  0012               	return		;funcret
  2854  00155A                     __end_of_USBDeviceInit:
  2855                           	opt stack 0
  2856                           tblptru	equ	0xFF8
  2857                           tblptrh	equ	0xFF7
  2858                           tblptrl	equ	0xFF6
  2859                           tablat	equ	0xFF5
  2860                           prodh	equ	0xFF4
  2861                           prodl	equ	0xFF3
  2862                           postinc0	equ	0xFEE
  2863                           wreg	equ	0xFE8
  2864                           postdec1	equ	0xFE5
  2865                           fsr1l	equ	0xFE1
  2866                           indf2	equ	0xFDF
  2867                           postinc2	equ	0xFDE
  2868                           postdec2	equ	0xFDD
  2869                           fsr2h	equ	0xFDA
  2870                           fsr2l	equ	0xFD9
  2871                           status	equ	0xFD8
  2872                           
  2873 ;; *************** function _USBCtrlEPService *****************
  2874 ;; Defined at:
  2875 ;;		line 1250 in file "usb_device.c"
  2876 ;; Parameters:    Size  Location     Type
  2877 ;;		None
  2878 ;; Auto vars:     Size  Location     Type
  2879 ;;  setup_cnt       1   21[COMRAM] unsigned char 
  2880 ;; Return value:  Size  Location     Type
  2881 ;;                  1    wreg      void 
  2882 ;; Registers used:
  2883 ;;		wreg, fsr1l, fsr1h, fsr2l, fsr2h, status,2, status,0, tblptrl, tblptrh, tblptru, prodl, prodh, cstack
  2884 ;; Tracked objects:
  2885 ;;		On entry : 0/0
  2886 ;;		On exit  : 0/0
  2887 ;;		Unchanged: 0/0
  2888 ;; Data sizes:     COMRAM   BANK0   BANK1  BANK4l
  2889 ;;      Params:         0       0       0       0
  2890 ;;      Locals:         1       0       0       0
  2891 ;;      Temps:          2       0       0       0
  2892 ;;      Totals:         3       0       0       0
  2893 ;;Total ram usage:        3 bytes
  2894 ;; Hardware stack levels used:    1
  2895 ;; Hardware stack levels required when called:    7
  2896 ;; This function calls:
  2897 ;;		_USBCtrlTrfInHandler
  2898 ;;		_USBCtrlTrfOutHandler
  2899 ;;		_USBCtrlTrfSetupHandler
  2900 ;; This function is called by:
  2901 ;;		_USBDeviceTasks
  2902 ;; This function uses a non-reentrant model
  2903 ;;
  2904                           
  2905                           	psect	text11
  2906  001216                     __ptext11:
  2907                           	opt stack 0
  2908  001216                     _USBCtrlEPService:
  2909                           	opt stack 22
  2910                           
  2911                           ;usb_device.c: 1253: if((USTATcopy & ~0x02) == 0x00)
  2912                           
  2913                           ;incstack = 0
  2914  001216  C037  F04D         	movff	_USTATcopy,??_USBCtrlEPService
  2915  00121A  0EFD               	movlw	253
  2916  00121C  164D               	andwf	??_USBCtrlEPService,f,c
  2917  00121E  A4D8               	btfss	status,2,c
  2918  001220  D055               	goto	l2975
  2919                           
  2920                           ;usb_device.c: 1254: {
  2921                           ;usb_device.c: 1257: pBDTEntryEP0OutCurrent = (volatile BDT_ENTRY*)&BDT[(USTATcopy & 0x7
      +                          E)>>1];
  2922  001222  C037  F04D         	movff	_USTATcopy,??_USBCtrlEPService
  2923  001226  90D8               	bcf	status,0,c
  2924  001228  324D               	rrcf	??_USBCtrlEPService,f,c
  2925  00122A  0E3F               	movlw	63
  2926  00122C  164D               	andwf	??_USBCtrlEPService,f,c
  2927  00122E  504D               	movf	??_USBCtrlEPService,w,c
  2928  001230  0D04               	mullw	4
  2929  001232  0E00               	movlw	0
  2930  001234  24F3               	addwf	prodl,w,c
  2931  001236  6E28               	movwf	_pBDTEntryEP0OutCurrent,c
  2932  001238  0E04               	movlw	4
  2933  00123A  20F4               	addwfc	prodh,w,c
  2934  00123C  6E29               	movwf	_pBDTEntryEP0OutCurrent+1,c
  2935                           
  2936                           ;usb_device.c: 1265: pBDTEntryEP0OutNext = pBDTEntryEP0OutCurrent;
  2937  00123E  C028  F02A         	movff	_pBDTEntryEP0OutCurrent,_pBDTEntryEP0OutNext
  2938  001242  C029  F02B         	movff	_pBDTEntryEP0OutCurrent+1,_pBDTEntryEP0OutNext+1
  2939                           
  2940                           ;usb_device.c: 1267: ((BYTE_VAL*)&pBDTEntryEP0OutNext)->Val ^= 0x0004;
  2941  001246  0E04               	movlw	4
  2942  001248  1A2A               	xorwf	_pBDTEntryEP0OutNext,f,c
  2943                           
  2944                           ;usb_device.c: 1270: if(pBDTEntryEP0OutCurrent->STAT.PID == 0xD)
  2945  00124A  C028  FFD9         	movff	_pBDTEntryEP0OutCurrent,fsr2l
  2946  00124E  C029  FFDA         	movff	_pBDTEntryEP0OutCurrent+1,fsr2h
  2947  001252  30DF               	rrcf	indf2,w,c
  2948  001254  32E8               	rrcf	wreg,f,c
  2949  001256  0B0F               	andlw	15
  2950  001258  0A0D               	xorlw	13
  2951  00125A  A4D8               	btfss	status,2,c
  2952  00125C  D034               	goto	l2973
  2953                           
  2954                           ;usb_device.c: 1271: {
  2955                           ;usb_device.c: 1275: if(pBDTEntryEP0OutCurrent->ADR == (BYTE*)&CtrlTrfData)
  2956  00125E  EE20 F002          	lfsr	2,2
  2957  001262  5028               	movf	_pBDTEntryEP0OutCurrent,w,c
  2958  001264  26D9               	addwf	fsr2l,f,c
  2959  001266  5029               	movf	_pBDTEntryEP0OutCurrent+1,w,c
  2960  001268  22DA               	addwfc	fsr2h,f,c
  2961  00126A  0E20               	movlw	32
  2962  00126C  18DE               	xorwf	postinc2,w,c
  2963  00126E  E128               	bnz	l2971
  2964  001270  0E05               	movlw	5
  2965  001272  18DE               	xorwf	postinc2,w,c
  2966  001274  A4D8               	btfss	status,2,c
  2967  001276  D024               	goto	l2971
  2968                           
  2969                           ;usb_device.c: 1276: {
  2970                           ;usb_device.c: 1277: unsigned char setup_cnt;
  2971                           ;usb_device.c: 1279: pBDTEntryEP0OutCurrent->ADR = (BYTE*)&SetupPkt;
  2972  001278  EE20 F002          	lfsr	2,2
  2973  00127C  5028               	movf	_pBDTEntryEP0OutCurrent,w,c
  2974  00127E  26D9               	addwf	fsr2l,f,c
  2975  001280  5029               	movf	_pBDTEntryEP0OutCurrent+1,w,c
  2976  001282  22DA               	addwfc	fsr2h,f,c
  2977  001284  0E00               	movlw	0
  2978  001286  6EDE               	movwf	postinc2,c
  2979  001288  0E05               	movlw	5
  2980  00128A  6EDD               	movwf	postdec2,c
  2981                           
  2982                           ;usb_device.c: 1280: for(setup_cnt = 0; setup_cnt < sizeof(CTRL_TRF_SETUP); setup_cnt++)
  2983  00128C  0E00               	movlw	0
  2984  00128E  6E4F               	movwf	USBCtrlEPService@setup_cnt,c
  2985  001290                     l2961:
  2986  001290  0E07               	movlw	7
  2987  001292  644F               	cpfsgt	USBCtrlEPService@setup_cnt,c
  2988  001294  D001               	goto	l2965
  2989  001296  D014               	goto	l2971
  2990  001298                     l2965:
  2991                           
  2992                           ;usb_device.c: 1281: {
  2993                           ;usb_device.c: 1282: *(((BYTE*)&SetupPkt)+setup_cnt) = *(((BYTE*)&CtrlTrfData)+setup_cnt
      +                          );
  2994  001298  504F               	movf	USBCtrlEPService@setup_cnt,w,c
  2995  00129A  0D01               	mullw	1
  2996  00129C  0E20               	movlw	32
  2997  00129E  24F3               	addwf	prodl,w,c
  2998  0012A0  6ED9               	movwf	fsr2l,c
  2999  0012A2  0E05               	movlw	5
  3000  0012A4  20F4               	addwfc	prodh,w,c
  3001  0012A6  6EDA               	movwf	fsr2h,c
  3002  0012A8  504F               	movf	USBCtrlEPService@setup_cnt,w,c
  3003  0012AA  0D01               	mullw	1
  3004  0012AC  0E00               	movlw	0
  3005  0012AE  24F3               	addwf	prodl,w,c
  3006  0012B0  6EE1               	movwf	fsr1l,c
  3007  0012B2  0E05               	movlw	5
  3008  0012B4  20F4               	addwfc	prodh,w,c
  3009  0012B6  6EE2               	movwf	fsr1h,c
  3010  0012B8  CFDF FFE7          	movff	indf2,indf1
  3011  0012BC  2A4F               	incf	USBCtrlEPService@setup_cnt,f,c
  3012  0012BE  D7E8               	goto	l2961
  3013  0012C0                     l2971:
  3014                           
  3015                           ;usb_device.c: 1283: }
  3016                           ;usb_device.c: 1284: }
  3017                           ;usb_device.c: 1287: USBCtrlTrfSetupHandler();
  3018  0012C0  EC84  F00C         	call	_USBCtrlTrfSetupHandler	;wreg free
  3019                           
  3020                           ;usb_device.c: 1288: }
  3021  0012C4  0012               	return	
  3022  0012C6                     l2973:
  3023                           
  3024                           ;usb_device.c: 1289: else
  3025                           ;usb_device.c: 1290: {
  3026                           ;usb_device.c: 1292: USBCtrlTrfOutHandler();
  3027  0012C6  ECAD  F00C         	call	_USBCtrlTrfOutHandler	;wreg free
  3028                           
  3029                           ;usb_device.c: 1293: }
  3030                           ;usb_device.c: 1294: }
  3031  0012CA  0012               	return	
  3032  0012CC                     l2975:
  3033                           
  3034                           ;usb_device.c: 1295: else if((USTATcopy & ~0x02) == 0x04)
  3035  0012CC  5037               	movf	_USTATcopy,w,c
  3036  0012CE  0BFD               	andlw	253
  3037  0012D0  0A04               	xorlw	4
  3038  0012D2  A4D8               	btfss	status,2,c
  3039  0012D4  0012               	return	
  3040                           
  3041                           ;usb_device.c: 1296: {
  3042                           ;usb_device.c: 1299: USBCtrlTrfInHandler();
  3043  0012D6  ECF2  F00A         	call	_USBCtrlTrfInHandler	;wreg free
  3044  0012DA  0012               	return	
  3045  0012DC                     __end_of_USBCtrlEPService:
  3046                           	opt stack 0
  3047                           tblptru	equ	0xFF8
  3048                           tblptrh	equ	0xFF7
  3049                           tblptrl	equ	0xFF6
  3050                           tablat	equ	0xFF5
  3051                           prodh	equ	0xFF4
  3052                           prodl	equ	0xFF3
  3053                           postinc0	equ	0xFEE
  3054                           wreg	equ	0xFE8
  3055                           indf1	equ	0xFE7
  3056                           postdec1	equ	0xFE5
  3057                           fsr1h	equ	0xFE2
  3058                           fsr1l	equ	0xFE1
  3059                           indf2	equ	0xFDF
  3060                           postinc2	equ	0xFDE
  3061                           postdec2	equ	0xFDD
  3062                           fsr2h	equ	0xFDA
  3063                           fsr2l	equ	0xFD9
  3064                           status	equ	0xFD8
  3065                           
  3066 ;; *************** function _USBCtrlTrfSetupHandler *****************
  3067 ;; Defined at:
  3068 ;;		line 1344 in file "usb_device.c"
  3069 ;; Parameters:    Size  Location     Type
  3070 ;;		None
  3071 ;; Auto vars:     Size  Location     Type
  3072 ;;		None
  3073 ;; Return value:  Size  Location     Type
  3074 ;;                  1    wreg      void 
  3075 ;; Registers used:
  3076 ;;		wreg, fsr1l, fsr1h, fsr2l, fsr2h, status,2, status,0, tblptrl, tblptrh, tblptru, prodl, prodh, cstack
  3077 ;; Tracked objects:
  3078 ;;		On entry : 0/0
  3079 ;;		On exit  : 0/0
  3080 ;;		Unchanged: 0/0
  3081 ;; Data sizes:     COMRAM   BANK0   BANK1  BANK4l
  3082 ;;      Params:         0       0       0       0
  3083 ;;      Locals:         0       0       0       0
  3084 ;;      Temps:          0       0       0       0
  3085 ;;      Totals:         0       0       0       0
  3086 ;;Total ram usage:        0 bytes
  3087 ;; Hardware stack levels used:    1
  3088 ;; Hardware stack levels required when called:    6
  3089 ;; This function calls:
  3090 ;;		_USBCheckStdRequest
  3091 ;;		_USBCtrlEPServiceComplete
  3092 ;;		_USER_USB_CALLBACK_EVENT_HANDLER
  3093 ;; This function is called by:
  3094 ;;		_USBCtrlEPService
  3095 ;; This function uses a non-reentrant model
  3096 ;;
  3097                           
  3098                           	psect	text12
  3099  001908                     __ptext12:
  3100                           	opt stack 0
  3101  001908                     _USBCtrlTrfSetupHandler:
  3102                           	opt stack 22
  3103                           
  3104                           ;usb_device.c: 1347: if(pBDTEntryIn[0]->STAT.UOWN != 0)
  3105                           
  3106                           ;incstack = 0
  3107  001908  C00F  FFD9         	movff	_pBDTEntryIn,fsr2l
  3108  00190C  C010  FFDA         	movff	_pBDTEntryIn+1,fsr2h
  3109  001910  AEDF               	btfss	indf2,7,c
  3110  001912  D006               	goto	l2819
  3111                           
  3112                           ;usb_device.c: 1348: {
  3113                           ;usb_device.c: 1351: pBDTEntryIn[0]->STAT.Val = 0x00;
  3114  001914  C00F  FFD9         	movff	_pBDTEntryIn,fsr2l
  3115  001918  C010  FFDA         	movff	_pBDTEntryIn+1,fsr2h
  3116  00191C  0E00               	movlw	0
  3117  00191E  6EDF               	movwf	indf2,c
  3118  001920                     l2819:
  3119                           
  3120                           ;usb_device.c: 1352: }
  3121                           ;usb_device.c: 1355: shortPacketStatus = 0;
  3122  001920  0E00               	movlw	0
  3123  001922  6E34               	movwf	_shortPacketStatus,c
  3124                           
  3125                           ;usb_device.c: 1358: controlTransferState = 0;
  3126  001924  0E00               	movlw	0
  3127  001926  6E33               	movwf	_controlTransferState,c
  3128                           
  3129                           ;usb_device.c: 1360: inPipes[0].wCount.Val = 0;
  3130  001928  0E00               	movlw	0
  3131  00192A  6E0E               	movwf	_inPipes+5,c
  3132  00192C  0E00               	movlw	0
  3133  00192E  6E0D               	movwf	_inPipes+4,c
  3134                           
  3135                           ;usb_device.c: 1361: inPipes[0].info.Val = 0;
  3136  001930  0E00               	movlw	0
  3137  001932  6E0C               	movwf	_inPipes+3,c
  3138                           
  3139                           ;usb_device.c: 1364: USBCheckStdRequest();
  3140  001934  EC9E  F008         	call	_USBCheckStdRequest	;wreg free
  3141                           
  3142                           ;usb_device.c: 1365: USER_USB_CALLBACK_EVENT_HANDLER(EVENT_EP0_REQUEST,0,0);
  3143  001938  0E00               	movlw	0
  3144  00193A  6E46               	movwf	USER_USB_CALLBACK_EVENT_HANDLER@event+1,c
  3145  00193C  0E03               	movlw	3
  3146  00193E  6E45               	movwf	USER_USB_CALLBACK_EVENT_HANDLER@event,c
  3147  001940  0E00               	movlw	0
  3148  001942  6E47               	movwf	USER_USB_CALLBACK_EVENT_HANDLER@pdata,c
  3149  001944  0E00               	movlw	0
  3150  001946  6E48               	movwf	USER_USB_CALLBACK_EVENT_HANDLER@pdata+1,c
  3151  001948  0E00               	movlw	0
  3152  00194A  6E4A               	movwf	USER_USB_CALLBACK_EVENT_HANDLER@size+1,c
  3153  00194C  0E00               	movlw	0
  3154  00194E  6E49               	movwf	USER_USB_CALLBACK_EVENT_HANDLER@size,c
  3155  001950  EC79  F00B         	call	_USER_USB_CALLBACK_EVENT_HANDLER	;wreg free
  3156                           
  3157                           ;usb_device.c: 1368: USBCtrlEPServiceComplete();
  3158  001954  EC4B  F004         	call	_USBCtrlEPServiceComplete	;wreg free
  3159  001958  0012               	return		;funcret
  3160  00195A                     __end_of_USBCtrlTrfSetupHandler:
  3161                           	opt stack 0
  3162                           tblptru	equ	0xFF8
  3163                           tblptrh	equ	0xFF7
  3164                           tblptrl	equ	0xFF6
  3165                           tablat	equ	0xFF5
  3166                           prodh	equ	0xFF4
  3167                           prodl	equ	0xFF3
  3168                           postinc0	equ	0xFEE
  3169                           wreg	equ	0xFE8
  3170                           indf1	equ	0xFE7
  3171                           postdec1	equ	0xFE5
  3172                           fsr1h	equ	0xFE2
  3173                           fsr1l	equ	0xFE1
  3174                           indf2	equ	0xFDF
  3175                           postinc2	equ	0xFDE
  3176                           postdec2	equ	0xFDD
  3177                           fsr2h	equ	0xFDA
  3178                           fsr2l	equ	0xFD9
  3179                           status	equ	0xFD8
  3180                           
  3181 ;; *************** function _USBCtrlEPServiceComplete *****************
  3182 ;; Defined at:
  3183 ;;		line 1910 in file "usb_device.c"
  3184 ;; Parameters:    Size  Location     Type
  3185 ;;		None
  3186 ;; Auto vars:     Size  Location     Type
  3187 ;;		None
  3188 ;; Return value:  Size  Location     Type
  3189 ;;                  1    wreg      void 
  3190 ;; Registers used:
  3191 ;;		wreg, fsr1l, fsr1h, fsr2l, fsr2h, status,2, status,0, tblptrl, tblptrh, tblptru, cstack
  3192 ;; Tracked objects:
  3193 ;;		On entry : 0/0
  3194 ;;		On exit  : 0/0
  3195 ;;		Unchanged: 0/0
  3196 ;; Data sizes:     COMRAM   BANK0   BANK1  BANK4l
  3197 ;;      Params:         0       0       0       0
  3198 ;;      Locals:         0       0       0       0
  3199 ;;      Temps:          0       0       0       0
  3200 ;;      Totals:         0       0       0       0
  3201 ;;Total ram usage:        0 bytes
  3202 ;; Hardware stack levels used:    1
  3203 ;; Hardware stack levels required when called:    1
  3204 ;; This function calls:
  3205 ;;		_USBCtrlTrfTxService
  3206 ;; This function is called by:
  3207 ;;		_USBCtrlTrfSetupHandler
  3208 ;; This function uses a non-reentrant model
  3209 ;;
  3210                           
  3211                           	psect	text13
  3212  000896                     __ptext13:
  3213                           	opt stack 0
  3214  000896                     _USBCtrlEPServiceComplete:
  3215                           	opt stack 26
  3216                           
  3217                           ;usb_device.c: 1916: PKTDIS = 0;
  3218                           
  3219                           ;incstack = 0
  3220  000896  986D               	bcf	3949,4,c	;volatile
  3221                           
  3222                           ;usb_device.c: 1918: if(inPipes[0].info.bits.busy == 0)
  3223  000898  BE0C               	btfsc	_inPipes+3,7,c
  3224  00089A  D04A               	goto	l268
  3225                           
  3226                           ;usb_device.c: 1919: {
  3227                           ;usb_device.c: 1920: if(outPipes[0].info.bits.busy == 1)
  3228  00089C  AE04               	btfss	_outPipes+3,7,c
  3229  00089E  D029               	goto	l2721
  3230                           
  3231                           ;usb_device.c: 1921: {
  3232                           ;usb_device.c: 1922: controlTransferState = 2;
  3233  0008A0  0E02               	movlw	2
  3234  0008A2  6E33               	movwf	_controlTransferState,c
  3235                           
  3236                           ;usb_device.c: 1932: pBDTEntryIn[0]->CNT = 0;
  3237  0008A4  EE20 F001          	lfsr	2,1
  3238  0008A8  500F               	movf	_pBDTEntryIn,w,c
  3239  0008AA  26D9               	addwf	fsr2l,f,c
  3240  0008AC  5010               	movf	_pBDTEntryIn+1,w,c
  3241  0008AE  22DA               	addwfc	fsr2h,f,c
  3242  0008B0  0E00               	movlw	0
  3243  0008B2  6EDF               	movwf	indf2,c
  3244                           
  3245                           ;usb_device.c: 1933: pBDTEntryIn[0]->STAT.Val = 0x80|0x40|0x08;
  3246  0008B4  C00F  FFD9         	movff	_pBDTEntryIn,fsr2l
  3247  0008B8  C010  FFDA         	movff	_pBDTEntryIn+1,fsr2h
  3248  0008BC  0EC8               	movlw	200
  3249  0008BE  6EDF               	movwf	indf2,c
  3250                           
  3251                           ;usb_device.c: 1938: pBDTEntryEP0OutNext->CNT = 8;
  3252  0008C0  EE20 F001          	lfsr	2,1
  3253  0008C4  502A               	movf	_pBDTEntryEP0OutNext,w,c
  3254  0008C6  26D9               	addwf	fsr2l,f,c
  3255  0008C8  502B               	movf	_pBDTEntryEP0OutNext+1,w,c
  3256  0008CA  22DA               	addwfc	fsr2h,f,c
  3257  0008CC  0E08               	movlw	8
  3258  0008CE  6EDF               	movwf	indf2,c
  3259                           
  3260                           ;usb_device.c: 1939: pBDTEntryEP0OutNext->ADR = (BYTE*)&CtrlTrfData;
  3261  0008D0  EE20 F002          	lfsr	2,2
  3262  0008D4  502A               	movf	_pBDTEntryEP0OutNext,w,c
  3263  0008D6  26D9               	addwf	fsr2l,f,c
  3264  0008D8  502B               	movf	_pBDTEntryEP0OutNext+1,w,c
  3265  0008DA  22DA               	addwfc	fsr2h,f,c
  3266  0008DC  0E20               	movlw	32
  3267  0008DE  6EDE               	movwf	postinc2,c
  3268  0008E0  0E05               	movlw	5
  3269  0008E2  6EDD               	movwf	postdec2,c
  3270                           
  3271                           ;usb_device.c: 1940: pBDTEntryEP0OutNext->STAT.Val = 0x80|0x40|0x08;
  3272  0008E4  C02A  FFD9         	movff	_pBDTEntryEP0OutNext,fsr2l
  3273  0008E8  C02B  FFDA         	movff	_pBDTEntryEP0OutNext+1,fsr2h
  3274  0008EC  0EC8               	movlw	200
  3275  0008EE  6EDF               	movwf	indf2,c
  3276                           
  3277                           ;usb_device.c: 1941: }
  3278  0008F0  0012               	return	
  3279  0008F2                     l2721:
  3280                           
  3281                           ;usb_device.c: 1942: else
  3282                           ;usb_device.c: 1943: {
  3283                           ;usb_device.c: 1948: pBDTEntryEP0OutNext->CNT = 8;
  3284  0008F2  EE20 F001          	lfsr	2,1
  3285  0008F6  502A               	movf	_pBDTEntryEP0OutNext,w,c
  3286  0008F8  26D9               	addwf	fsr2l,f,c
  3287  0008FA  502B               	movf	_pBDTEntryEP0OutNext+1,w,c
  3288  0008FC  22DA               	addwfc	fsr2h,f,c
  3289  0008FE  0E08               	movlw	8
  3290  000900  6EDF               	movwf	indf2,c
  3291                           
  3292                           ;usb_device.c: 1949: pBDTEntryEP0OutNext->ADR = (BYTE*)&SetupPkt;
  3293  000902  EE20 F002          	lfsr	2,2
  3294  000906  502A               	movf	_pBDTEntryEP0OutNext,w,c
  3295  000908  26D9               	addwf	fsr2l,f,c
  3296  00090A  502B               	movf	_pBDTEntryEP0OutNext+1,w,c
  3297  00090C  22DA               	addwfc	fsr2h,f,c
  3298  00090E  0E00               	movlw	0
  3299  000910  6EDE               	movwf	postinc2,c
  3300  000912  0E05               	movlw	5
  3301  000914  6EDD               	movwf	postdec2,c
  3302                           
  3303                           ;usb_device.c: 1950: pBDTEntryEP0OutNext->STAT.Val = 0x80|0x00|0x08|0x04;
  3304  000916  C02A  FFD9         	movff	_pBDTEntryEP0OutNext,fsr2l
  3305  00091A  C02B  FFDA         	movff	_pBDTEntryEP0OutNext+1,fsr2h
  3306  00091E  0E8C               	movlw	140
  3307  000920  6EDF               	movwf	indf2,c
  3308                           
  3309                           ;usb_device.c: 1951: pBDTEntryIn[0]->STAT.Val = 0x80|0x04;
  3310  000922  C00F  FFD9         	movff	_pBDTEntryIn,fsr2l
  3311  000926  C010  FFDA         	movff	_pBDTEntryIn+1,fsr2h
  3312  00092A  0E84               	movlw	132
  3313  00092C  6EDF               	movwf	indf2,c
  3314                           
  3315                           ;usb_device.c: 1952: }
  3316                           ;usb_device.c: 1953: }
  3317  00092E  0012               	return	
  3318  000930                     l268:
  3319                           
  3320                           ;usb_device.c: 1954: else
  3321                           ;usb_device.c: 1955: {
  3322                           ;usb_device.c: 1956: if(outPipes[0].info.bits.busy == 0)
  3323  000930  BE04               	btfsc	_outPipes+3,7,c
  3324  000932  0012               	return	
  3325                           
  3326                           ;usb_device.c: 1957: {
  3327                           ;usb_device.c: 1958: if(SetupPkt.DataDir == (0x80>>7))
  3328  000934  0105               	movlb	5	; () banked
  3329  000936  AF00               	btfss	0,7,b	;volatile
  3330  000938  D055               	goto	l2757
  3331                           
  3332                           ; BSR set to: 5
  3333                           ;usb_device.c: 1959: {
  3334                           ;usb_device.c: 1960: if(SetupPkt.wLength < inPipes[0].wCount.Val)
  3335  00093A  500D               	movf	_inPipes+4,w,c
  3336  00093C  0105               	movlb	5	; () banked
  3337  00093E  5D06               	subwf	6,w,b	;volatile
  3338  000940  500E               	movf	_inPipes+5,w,c
  3339  000942  0105               	movlb	5	; () banked
  3340  000944  5907               	subwfb	7,w,b	;volatile
  3341  000946  B0D8               	btfsc	status,0,c
  3342  000948  D004               	goto	l2733
  3343                           
  3344                           ; BSR set to: 5
  3345                           ;usb_device.c: 1961: {
  3346                           ;usb_device.c: 1962: inPipes[0].wCount.Val = SetupPkt.wLength;
  3347  00094A  C506 F00D          	movff	1286,_inPipes+4	;volatile
  3348  00094E  C507 F00E          	movff	1287,_inPipes+5	;volatile
  3349  000952                     l2733:
  3350                           
  3351                           ; BSR set to: 5
  3352                           ;usb_device.c: 1963: }
  3353                           ;usb_device.c: 1964: USBCtrlTrfTxService();
  3354  000952  ECB7  F005         	call	_USBCtrlTrfTxService	;wreg free
  3355                           
  3356                           ;usb_device.c: 1965: controlTransferState = 1;
  3357  000956  0E01               	movlw	1
  3358  000958  6E33               	movwf	_controlTransferState,c
  3359                           
  3360                           ;usb_device.c: 1987: pBDTEntryEP0OutNext->CNT = 8;
  3361  00095A  EE20 F001          	lfsr	2,1
  3362  00095E  502A               	movf	_pBDTEntryEP0OutNext,w,c
  3363  000960  26D9               	addwf	fsr2l,f,c
  3364  000962  502B               	movf	_pBDTEntryEP0OutNext+1,w,c
  3365  000964  22DA               	addwfc	fsr2h,f,c
  3366  000966  0E08               	movlw	8
  3367  000968  6EDF               	movwf	indf2,c
  3368                           
  3369                           ;usb_device.c: 1988: pBDTEntryEP0OutNext->ADR = (BYTE*)&SetupPkt;
  3370  00096A  EE20 F002          	lfsr	2,2
  3371  00096E  502A               	movf	_pBDTEntryEP0OutNext,w,c
  3372  000970  26D9               	addwf	fsr2l,f,c
  3373  000972  502B               	movf	_pBDTEntryEP0OutNext+1,w,c
  3374  000974  22DA               	addwfc	fsr2h,f,c
  3375  000976  0E00               	movlw	0
  3376  000978  6EDE               	movwf	postinc2,c
  3377  00097A  0E05               	movlw	5
  3378  00097C  6EDD               	movwf	postdec2,c
  3379                           
  3380                           ;usb_device.c: 1989: pBDTEntryEP0OutNext->STAT.Val = 0x80;
  3381  00097E  C02A  FFD9         	movff	_pBDTEntryEP0OutNext,fsr2l
  3382  000982  C02B  FFDA         	movff	_pBDTEntryEP0OutNext+1,fsr2h
  3383  000986  0E80               	movlw	128
  3384  000988  6EDF               	movwf	indf2,c
  3385                           
  3386                           ;usb_device.c: 1990: BothEP0OutUOWNsSet = FALSE;
  3387  00098A  0E00               	movlw	0
  3388  00098C  6E30               	movwf	_BothEP0OutUOWNsSet,c
  3389                           
  3390                           ;usb_device.c: 1993: pBDTEntryEP0OutCurrent->CNT = 8;
  3391  00098E  EE20 F001          	lfsr	2,1
  3392  000992  5028               	movf	_pBDTEntryEP0OutCurrent,w,c
  3393  000994  26D9               	addwf	fsr2l,f,c
  3394  000996  5029               	movf	_pBDTEntryEP0OutCurrent+1,w,c
  3395  000998  22DA               	addwfc	fsr2h,f,c
  3396  00099A  0E08               	movlw	8
  3397  00099C  6EDF               	movwf	indf2,c
  3398                           
  3399                           ;usb_device.c: 1994: pBDTEntryEP0OutCurrent->ADR = (BYTE*)&SetupPkt;
  3400  00099E  EE20 F002          	lfsr	2,2
  3401  0009A2  5028               	movf	_pBDTEntryEP0OutCurrent,w,c
  3402  0009A4  26D9               	addwf	fsr2l,f,c
  3403  0009A6  5029               	movf	_pBDTEntryEP0OutCurrent+1,w,c
  3404  0009A8  22DA               	addwfc	fsr2h,f,c
  3405  0009AA  0E00               	movlw	0
  3406  0009AC  6EDE               	movwf	postinc2,c
  3407  0009AE  0E05               	movlw	5
  3408  0009B0  6EDD               	movwf	postdec2,c
  3409                           
  3410                           ;usb_device.c: 1995: pBDTEntryEP0OutCurrent->STAT.Val = 0x80|0x04;
  3411  0009B2  C028  FFD9         	movff	_pBDTEntryEP0OutCurrent,fsr2l
  3412  0009B6  C029  FFDA         	movff	_pBDTEntryEP0OutCurrent+1,fsr2h
  3413  0009BA  0E84               	movlw	132
  3414  0009BC  6EDF               	movwf	indf2,c
  3415                           
  3416                           ;usb_device.c: 1996: BothEP0OutUOWNsSet = TRUE;
  3417  0009BE  0E01               	movlw	1
  3418  0009C0  6E30               	movwf	_BothEP0OutUOWNsSet,c
  3419                           
  3420                           ;usb_device.c: 2003: pBDTEntryIn[0]->ADR = (BYTE*)&CtrlTrfData;
  3421  0009C2  EE20 F002          	lfsr	2,2
  3422  0009C6  500F               	movf	_pBDTEntryIn,w,c
  3423  0009C8  26D9               	addwf	fsr2l,f,c
  3424  0009CA  5010               	movf	_pBDTEntryIn+1,w,c
  3425  0009CC  22DA               	addwfc	fsr2h,f,c
  3426  0009CE  0E20               	movlw	32
  3427  0009D0  6EDE               	movwf	postinc2,c
  3428  0009D2  0E05               	movlw	5
  3429  0009D4  6EDD               	movwf	postdec2,c
  3430                           
  3431                           ;usb_device.c: 2004: pBDTEntryIn[0]->STAT.Val = 0x80|0x40|0x08;
  3432  0009D6  C00F  FFD9         	movff	_pBDTEntryIn,fsr2l
  3433  0009DA  C010  FFDA         	movff	_pBDTEntryIn+1,fsr2h
  3434  0009DE  0EC8               	movlw	200
  3435  0009E0  6EDF               	movwf	indf2,c
  3436                           
  3437                           ;usb_device.c: 2005: }
  3438  0009E2  0012               	return	
  3439  0009E4                     l2757:
  3440                           
  3441                           ;usb_device.c: 2006: else
  3442                           ;usb_device.c: 2007: {
  3443                           ;usb_device.c: 2008: controlTransferState = 2;
  3444  0009E4  0E02               	movlw	2
  3445  0009E6  6E33               	movwf	_controlTransferState,c
  3446                           
  3447                           ;usb_device.c: 2018: pBDTEntryIn[0]->CNT = 0;
  3448  0009E8  EE20 F001          	lfsr	2,1
  3449  0009EC  500F               	movf	_pBDTEntryIn,w,c
  3450  0009EE  26D9               	addwf	fsr2l,f,c
  3451  0009F0  5010               	movf	_pBDTEntryIn+1,w,c
  3452  0009F2  22DA               	addwfc	fsr2h,f,c
  3453  0009F4  0E00               	movlw	0
  3454  0009F6  6EDF               	movwf	indf2,c
  3455                           
  3456                           ;usb_device.c: 2019: pBDTEntryIn[0]->STAT.Val = 0x80|0x40|0x08;
  3457  0009F8  C00F  FFD9         	movff	_pBDTEntryIn,fsr2l
  3458  0009FC  C010  FFDA         	movff	_pBDTEntryIn+1,fsr2h
  3459  000A00  0EC8               	movlw	200
  3460  000A02  6EDF               	movwf	indf2,c
  3461                           
  3462                           ;usb_device.c: 2024: pBDTEntryEP0OutNext->CNT = 8;
  3463  000A04  EE20 F001          	lfsr	2,1
  3464  000A08  502A               	movf	_pBDTEntryEP0OutNext,w,c
  3465  000A0A  26D9               	addwf	fsr2l,f,c
  3466  000A0C  502B               	movf	_pBDTEntryEP0OutNext+1,w,c
  3467  000A0E  22DA               	addwfc	fsr2h,f,c
  3468  000A10  0E08               	movlw	8
  3469  000A12  6EDF               	movwf	indf2,c
  3470                           
  3471                           ;usb_device.c: 2025: pBDTEntryEP0OutNext->ADR = (BYTE*)&CtrlTrfData;
  3472  000A14  EE20 F002          	lfsr	2,2
  3473  000A18  502A               	movf	_pBDTEntryEP0OutNext,w,c
  3474  000A1A  26D9               	addwf	fsr2l,f,c
  3475  000A1C  502B               	movf	_pBDTEntryEP0OutNext+1,w,c
  3476  000A1E  22DA               	addwfc	fsr2h,f,c
  3477  000A20  0E20               	movlw	32
  3478  000A22  6EDE               	movwf	postinc2,c
  3479  000A24  0E05               	movlw	5
  3480  000A26  6EDD               	movwf	postdec2,c
  3481                           
  3482                           ;usb_device.c: 2026: pBDTEntryEP0OutNext->STAT.Val = 0x80|0x40|0x08;
  3483  000A28  C02A  FFD9         	movff	_pBDTEntryEP0OutNext,fsr2l
  3484  000A2C  C02B  FFDA         	movff	_pBDTEntryEP0OutNext+1,fsr2h
  3485  000A30  0EC8               	movlw	200
  3486  000A32  6EDF               	movwf	indf2,c
  3487  000A34  0012               	return	
  3488  000A36                     __end_of_USBCtrlEPServiceComplete:
  3489                           	opt stack 0
  3490                           tblptru	equ	0xFF8
  3491                           tblptrh	equ	0xFF7
  3492                           tblptrl	equ	0xFF6
  3493                           tablat	equ	0xFF5
  3494                           prodh	equ	0xFF4
  3495                           prodl	equ	0xFF3
  3496                           postinc0	equ	0xFEE
  3497                           wreg	equ	0xFE8
  3498                           indf1	equ	0xFE7
  3499                           postdec1	equ	0xFE5
  3500                           fsr1h	equ	0xFE2
  3501                           fsr1l	equ	0xFE1
  3502                           indf2	equ	0xFDF
  3503                           postinc2	equ	0xFDE
  3504                           postdec2	equ	0xFDD
  3505                           fsr2h	equ	0xFDA
  3506                           fsr2l	equ	0xFD9
  3507                           status	equ	0xFD8
  3508                           
  3509 ;; *************** function _USBCheckStdRequest *****************
  3510 ;; Defined at:
  3511 ;;		line 1559 in file "usb_device.c"
  3512 ;; Parameters:    Size  Location     Type
  3513 ;;		None
  3514 ;; Auto vars:     Size  Location     Type
  3515 ;;		None
  3516 ;; Return value:  Size  Location     Type
  3517 ;;                  1    wreg      void 
  3518 ;; Registers used:
  3519 ;;		wreg, fsr1l, fsr1h, fsr2l, fsr2h, status,2, status,0, tblptrl, tblptrh, tblptru, prodl, prodh, cstack
  3520 ;; Tracked objects:
  3521 ;;		On entry : 0/0
  3522 ;;		On exit  : 0/0
  3523 ;;		Unchanged: 0/0
  3524 ;; Data sizes:     COMRAM   BANK0   BANK1  BANK4l
  3525 ;;      Params:         0       0       0       0
  3526 ;;      Locals:         0       0       0       0
  3527 ;;      Temps:          0       0       0       0
  3528 ;;      Totals:         0       0       0       0
  3529 ;;Total ram usage:        0 bytes
  3530 ;; Hardware stack levels used:    1
  3531 ;; Hardware stack levels required when called:    5
  3532 ;; This function calls:
  3533 ;;		_USBStdFeatureReqHandler
  3534 ;;		_USBStdGetDscHandler
  3535 ;;		_USBStdGetStatusHandler
  3536 ;;		_USBStdSetCfgHandler
  3537 ;;		_USER_USB_CALLBACK_EVENT_HANDLER
  3538 ;; This function is called by:
  3539 ;;		_USBCtrlTrfSetupHandler
  3540 ;; This function uses a non-reentrant model
  3541 ;;
  3542                           
  3543                           	psect	text14
  3544  00113C                     __ptext14:
  3545                           	opt stack 0
  3546  00113C                     _USBCheckStdRequest:
  3547                           	opt stack 22
  3548                           
  3549                           ;usb_device.c: 1561: if(SetupPkt.RequestType != (0x00>>5)) return;
  3550                           
  3551                           ;incstack = 0
  3552  00113C  0105               	movlb	5	; () banked
  3553  00113E  3900               	swapf	0,w,b	;volatile
  3554  001140  32E8               	rrcf	wreg,f,c
  3555  001142  0B03               	andlw	3
  3556  001144  0900               	iorlw	0
  3557  001146  A4D8               	btfss	status,2,c
  3558  001148  0012               	return	
  3559  00114A  D043               	goto	l2703
  3560  00114C                     l214:
  3561                           
  3562                           ; BSR set to: 5
  3563                           ;usb_device.c: 1566: inPipes[0].info.bits.busy = 1;
  3564  00114C  8E0C               	bsf	_inPipes+3,7,c
  3565                           
  3566                           ; BSR set to: 5
  3567                           ;usb_device.c: 1567: USBDeviceState = ADR_PENDING_STATE;
  3568  00114E  0E08               	movlw	8
  3569  001150  6E32               	movwf	_USBDeviceState,c
  3570                           
  3571                           ;usb_device.c: 1569: break;
  3572  001152  0012               	return	
  3573  001154                     l2673:
  3574                           
  3575                           ; BSR set to: 5
  3576                           ;usb_device.c: 1571: USBStdGetDscHandler();
  3577  001154  EC3D  F007         	call	_USBStdGetDscHandler	;wreg free
  3578                           
  3579                           ;usb_device.c: 1572: break;
  3580  001158  0012               	return	
  3581  00115A                     l2675:
  3582                           
  3583                           ;usb_device.c: 1574: USBStdSetCfgHandler();
  3584  00115A  ECF1  F00B         	call	_USBStdSetCfgHandler	;wreg free
  3585                           
  3586                           ;usb_device.c: 1575: break;
  3587  00115E  0012               	return	
  3588  001160                     l2677:
  3589                           
  3590                           ;usb_device.c: 1577: inPipes[0].pSrc.bRam = (BYTE*)&USBActiveConfiguration;
  3591  001160  0E35               	movlw	low _USBActiveConfiguration
  3592  001162  6E09               	movwf	_inPipes,c
  3593  001164  0E00               	movlw	high _USBActiveConfiguration
  3594  001166  6E0A               	movwf	_inPipes+1,c
  3595                           
  3596                           ;usb_device.c: 1578: inPipes[0].info.bits.ctrl_trf_mem = 0x01;
  3597  001168  800C               	bsf	_inPipes+3,0,c
  3598                           
  3599                           ;usb_device.c: 1579: inPipes[0].wCount.v[0] = 1;
  3600  00116A  0E01               	movlw	1
  3601  00116C  6E0D               	movwf	_inPipes+4,c
  3602                           
  3603                           ;usb_device.c: 1580: inPipes[0].info.bits.busy = 1;
  3604  00116E  8E0C               	bsf	_inPipes+3,7,c
  3605                           
  3606                           ;usb_device.c: 1581: break;
  3607  001170  0012               	return	
  3608  001172                     l2685:
  3609                           
  3610                           ;usb_device.c: 1583: USBStdGetStatusHandler();
  3611  001172  ECC6  F009         	call	_USBStdGetStatusHandler	;wreg free
  3612                           
  3613                           ;usb_device.c: 1584: break;
  3614  001176  0012               	return	
  3615  001178                     l2687:
  3616                           
  3617                           ;usb_device.c: 1586: case 3:
  3618                           ;usb_device.c: 1587: USBStdFeatureReqHandler();
  3619  001178  EC3F  F006         	call	_USBStdFeatureReqHandler	;wreg free
  3620                           
  3621                           ;usb_device.c: 1588: break;
  3622  00117C  0012               	return	
  3623  00117E                     l2689:
  3624                           
  3625                           ;usb_device.c: 1590: inPipes[0].pSrc.bRam = (BYTE*)&USBAlternateInterface[SetupPkt.bIntf
      +                          ID];
  3626  00117E  0105               	movlb	5	; () banked
  3627  001180  5104               	movf	4,w,b	;volatile
  3628  001182  0D01               	mullw	1
  3629  001184  0E36               	movlw	low _USBAlternateInterface
  3630  001186  24F3               	addwf	prodl,w,c
  3631  001188  6E09               	movwf	_inPipes,c
  3632  00118A  0E00               	movlw	high _USBAlternateInterface
  3633  00118C  20F4               	addwfc	prodh,w,c
  3634  00118E  6E0A               	movwf	_inPipes+1,c
  3635                           
  3636                           ; BSR set to: 5
  3637                           ;usb_device.c: 1591: inPipes[0].info.bits.ctrl_trf_mem = 0x01;
  3638  001190  800C               	bsf	_inPipes+3,0,c
  3639                           
  3640                           ; BSR set to: 5
  3641                           ;usb_device.c: 1592: inPipes[0].wCount.v[0] = 1;
  3642  001192  0E01               	movlw	1
  3643  001194  6E0D               	movwf	_inPipes+4,c
  3644                           
  3645                           ; BSR set to: 5
  3646                           ;usb_device.c: 1593: inPipes[0].info.bits.busy = 1;
  3647  001196  8E0C               	bsf	_inPipes+3,7,c
  3648                           
  3649                           ;usb_device.c: 1594: break;
  3650  001198  0012               	return	
  3651  00119A                     l223:
  3652                           
  3653                           ; BSR set to: 5
  3654                           ;usb_device.c: 1596: inPipes[0].info.bits.busy = 1;
  3655  00119A  8E0C               	bsf	_inPipes+3,7,c
  3656                           
  3657                           ; BSR set to: 5
  3658                           ;usb_device.c: 1597: USBAlternateInterface[SetupPkt.bIntfID] = SetupPkt.bAltID;
  3659  00119C  0105               	movlb	5	; () banked
  3660  00119E  5104               	movf	4,w,b	;volatile
  3661  0011A0  0D01               	mullw	1
  3662  0011A2  0E36               	movlw	low _USBAlternateInterface
  3663  0011A4  24F3               	addwf	prodl,w,c
  3664  0011A6  6ED9               	movwf	fsr2l,c
  3665  0011A8  0E00               	movlw	high _USBAlternateInterface
  3666  0011AA  20F4               	addwfc	prodh,w,c
  3667  0011AC  6EDA               	movwf	fsr2h,c
  3668  0011AE  C502 FFDF          	movff	1282,indf2	;volatile
  3669                           
  3670                           ;usb_device.c: 1598: break;
  3671  0011B2  0012               	return	
  3672  0011B4                     l2699:
  3673                           
  3674                           ; BSR set to: 5
  3675                           ;usb_device.c: 1600: USER_USB_CALLBACK_EVENT_HANDLER(EVENT_SET_DESCRIPTOR,0,0);
  3676  0011B4  0E00               	movlw	0
  3677  0011B6  6E46               	movwf	USER_USB_CALLBACK_EVENT_HANDLER@event+1,c
  3678  0011B8  0E02               	movlw	2
  3679  0011BA  6E45               	movwf	USER_USB_CALLBACK_EVENT_HANDLER@event,c
  3680  0011BC  0E00               	movlw	0
  3681  0011BE  6E47               	movwf	USER_USB_CALLBACK_EVENT_HANDLER@pdata,c
  3682  0011C0  0E00               	movlw	0
  3683  0011C2  6E48               	movwf	USER_USB_CALLBACK_EVENT_HANDLER@pdata+1,c
  3684  0011C4  0E00               	movlw	0
  3685  0011C6  6E4A               	movwf	USER_USB_CALLBACK_EVENT_HANDLER@size+1,c
  3686  0011C8  0E00               	movlw	0
  3687  0011CA  6E49               	movwf	USER_USB_CALLBACK_EVENT_HANDLER@size,c
  3688  0011CC  EC79  F00B         	call	_USER_USB_CALLBACK_EVENT_HANDLER	;wreg free
  3689                           
  3690                           ;usb_device.c: 1605: }
  3691                           
  3692                           ;usb_device.c: 1604: break;
  3693                           
  3694                           ;usb_device.c: 1603: default:
  3695                           
  3696                           ;usb_device.c: 1602: case 12:
  3697                           
  3698                           ;usb_device.c: 1601: break;
  3699  0011D0  0012               	return	
  3700  0011D2                     l2703:
  3701  0011D2  0105               	movlb	5	; () banked
  3702  0011D4  5101               	movf	1,w,b	;volatile
  3703                           
  3704                           ; Switch size 1, requested type "space"
  3705                           ; Number of cases is 11, Range of values is 0 to 12
  3706                           ; switch strategies available:
  3707                           ; Name         Instructions Cycles
  3708                           ; simple_byte           34    18 (average)
  3709                           ;	Chosen strategy is simple_byte
  3710  0011D6  0A00               	xorlw	0	; case 0
  3711  0011D8  B4D8               	btfsc	status,2,c
  3712  0011DA  D7CB               	goto	l2685
  3713  0011DC  0A01               	xorlw	1	; case 1
  3714  0011DE  B4D8               	btfsc	status,2,c
  3715  0011E0  D7CB               	goto	l2687
  3716  0011E2  0A02               	xorlw	2	; case 3
  3717  0011E4  B4D8               	btfsc	status,2,c
  3718  0011E6  D7C8               	goto	l2687
  3719  0011E8  0A06               	xorlw	6	; case 5
  3720  0011EA  B4D8               	btfsc	status,2,c
  3721  0011EC  D7AF               	goto	l214
  3722  0011EE  0A03               	xorlw	3	; case 6
  3723  0011F0  B4D8               	btfsc	status,2,c
  3724  0011F2  D7B0               	goto	l2673
  3725  0011F4  0A01               	xorlw	1	; case 7
  3726  0011F6  B4D8               	btfsc	status,2,c
  3727  0011F8  D7DD               	goto	l2699
  3728  0011FA  0A0F               	xorlw	15	; case 8
  3729  0011FC  B4D8               	btfsc	status,2,c
  3730  0011FE  D7B0               	goto	l2677
  3731  001200  0A01               	xorlw	1	; case 9
  3732  001202  B4D8               	btfsc	status,2,c
  3733  001204  D7AA               	goto	l2675
  3734  001206  0A03               	xorlw	3	; case 10
  3735  001208  B4D8               	btfsc	status,2,c
  3736  00120A  D7B9               	goto	l2689
  3737  00120C  0A01               	xorlw	1	; case 11
  3738  00120E  B4D8               	btfsc	status,2,c
  3739  001210  D7C4               	goto	l223
  3740  001212  0A07               	xorlw	7	; case 12
  3741  001214  0012               	return	
  3742  001216                     __end_of_USBCheckStdRequest:
  3743                           	opt stack 0
  3744                           tblptru	equ	0xFF8
  3745                           tblptrh	equ	0xFF7
  3746                           tblptrl	equ	0xFF6
  3747                           tablat	equ	0xFF5
  3748                           prodh	equ	0xFF4
  3749                           prodl	equ	0xFF3
  3750                           postinc0	equ	0xFEE
  3751                           wreg	equ	0xFE8
  3752                           indf1	equ	0xFE7
  3753                           postdec1	equ	0xFE5
  3754                           fsr1h	equ	0xFE2
  3755                           fsr1l	equ	0xFE1
  3756                           indf2	equ	0xFDF
  3757                           postinc2	equ	0xFDE
  3758                           postdec2	equ	0xFDD
  3759                           fsr2h	equ	0xFDA
  3760                           fsr2l	equ	0xFD9
  3761                           status	equ	0xFD8
  3762                           
  3763 ;; *************** function _USBStdSetCfgHandler *****************
  3764 ;; Defined at:
  3765 ;;		line 2230 in file "usb_device.c"
  3766 ;; Parameters:    Size  Location     Type
  3767 ;;		None
  3768 ;; Auto vars:     Size  Location     Type
  3769 ;;		None
  3770 ;; Return value:  Size  Location     Type
  3771 ;;                  1    wreg      void 
  3772 ;; Registers used:
  3773 ;;		wreg, fsr2l, fsr2h, status,2, status,0, prodl, prodh, cstack
  3774 ;; Tracked objects:
  3775 ;;		On entry : 0/0
  3776 ;;		On exit  : 0/0
  3777 ;;		Unchanged: 0/0
  3778 ;; Data sizes:     COMRAM   BANK0   BANK1  BANK4l
  3779 ;;      Params:         0       0       0       0
  3780 ;;      Locals:         0       0       0       0
  3781 ;;      Temps:          0       0       0       0
  3782 ;;      Totals:         0       0       0       0
  3783 ;;Total ram usage:        0 bytes
  3784 ;; Hardware stack levels used:    1
  3785 ;; Hardware stack levels required when called:    4
  3786 ;; This function calls:
  3787 ;;		_USER_USB_CALLBACK_EVENT_HANDLER
  3788 ;;		_memset
  3789 ;; This function is called by:
  3790 ;;		_USBCheckStdRequest
  3791 ;; This function uses a non-reentrant model
  3792 ;;
  3793                           
  3794                           	psect	text15
  3795  0017E2                     __ptext15:
  3796                           	opt stack 0
  3797  0017E2                     _USBStdSetCfgHandler:
  3798                           	opt stack 22
  3799                           
  3800                           ;usb_device.c: 2233: inPipes[0].info.bits.busy = 1;
  3801                           
  3802                           ;incstack = 0
  3803  0017E2  8E0C               	bsf	_inPipes+3,7,c
  3804                           
  3805                           ;usb_device.c: 2236: memset((void*)&UEP1,0x00,(1-1));
  3806  0017E4  0E71               	movlw	113
  3807  0017E6  6E3A               	movwf	memset@p1,c
  3808  0017E8  0E0F               	movlw	15
  3809  0017EA  6E3B               	movwf	memset@p1+1,c
  3810  0017EC  0E00               	movlw	0
  3811  0017EE  6E3D               	movwf	memset@c+1,c
  3812  0017F0  0E00               	movlw	0
  3813  0017F2  6E3C               	movwf	memset@c,c
  3814  0017F4  0E00               	movlw	0
  3815  0017F6  6E3F               	movwf	memset@n+1,c
  3816  0017F8  0E00               	movlw	0
  3817  0017FA  6E3E               	movwf	memset@n,c
  3818  0017FC  EC25  F00D         	call	_memset	;wreg free
  3819                           
  3820                           ;usb_device.c: 2239: memset((void*)&USBAlternateInterface,0x00,1);
  3821  001800  0E36               	movlw	low _USBAlternateInterface
  3822  001802  6E3A               	movwf	memset@p1,c
  3823  001804  0E00               	movlw	high _USBAlternateInterface
  3824  001806  6E3B               	movwf	memset@p1+1,c
  3825  001808  0E00               	movlw	0
  3826  00180A  6E3D               	movwf	memset@c+1,c
  3827  00180C  0E00               	movlw	0
  3828  00180E  6E3C               	movwf	memset@c,c
  3829  001810  0E00               	movlw	0
  3830  001812  6E3F               	movwf	memset@n+1,c
  3831  001814  0E01               	movlw	1
  3832  001816  6E3E               	movwf	memset@n,c
  3833  001818  EC25  F00D         	call	_memset	;wreg free
  3834                           
  3835                           ;usb_device.c: 2242: USBActiveConfiguration = SetupPkt.bConfigurationValue;
  3836  00181C  C502 F035          	movff	1282,_USBActiveConfiguration	;volatile
  3837                           
  3838                           ;usb_device.c: 2245: if(USBActiveConfiguration == 0)
  3839  001820  5035               	movf	_USBActiveConfiguration,w,c
  3840  001822  A4D8               	btfss	status,2,c
  3841  001824  D003               	goto	l2593
  3842                           
  3843                           ;usb_device.c: 2246: {
  3844                           ;usb_device.c: 2248: USBDeviceState = ADDRESS_STATE;
  3845  001826  0E10               	movlw	16
  3846  001828  6E32               	movwf	_USBDeviceState,c
  3847                           
  3848                           ;usb_device.c: 2249: }
  3849  00182A  0012               	return	
  3850  00182C                     l2593:
  3851                           
  3852                           ;usb_device.c: 2250: else
  3853                           ;usb_device.c: 2251: {
  3854                           ;usb_device.c: 2253: USBDeviceState = CONFIGURED_STATE;
  3855  00182C  0E20               	movlw	32
  3856  00182E  6E32               	movwf	_USBDeviceState,c
  3857                           
  3858                           ;usb_device.c: 2255: USER_USB_CALLBACK_EVENT_HANDLER(EVENT_CONFIGURED,(void*)&USBActiveC
      +                          onfiguration,1);
  3859  001830  0E00               	movlw	0
  3860  001832  6E46               	movwf	USER_USB_CALLBACK_EVENT_HANDLER@event+1,c
  3861  001834  0E01               	movlw	1
  3862  001836  6E45               	movwf	USER_USB_CALLBACK_EVENT_HANDLER@event,c
  3863  001838  0E35               	movlw	low _USBActiveConfiguration
  3864  00183A  6E47               	movwf	USER_USB_CALLBACK_EVENT_HANDLER@pdata,c
  3865  00183C  0E00               	movlw	high _USBActiveConfiguration
  3866  00183E  6E48               	movwf	USER_USB_CALLBACK_EVENT_HANDLER@pdata+1,c
  3867  001840  0E00               	movlw	0
  3868  001842  6E4A               	movwf	USER_USB_CALLBACK_EVENT_HANDLER@size+1,c
  3869  001844  0E01               	movlw	1
  3870  001846  6E49               	movwf	USER_USB_CALLBACK_EVENT_HANDLER@size,c
  3871  001848  EC79  F00B         	call	_USER_USB_CALLBACK_EVENT_HANDLER	;wreg free
  3872  00184C  0012               	return	
  3873  00184E                     __end_of_USBStdSetCfgHandler:
  3874                           	opt stack 0
  3875                           tblptru	equ	0xFF8
  3876                           tblptrh	equ	0xFF7
  3877                           tblptrl	equ	0xFF6
  3878                           tablat	equ	0xFF5
  3879                           prodh	equ	0xFF4
  3880                           prodl	equ	0xFF3
  3881                           postinc0	equ	0xFEE
  3882                           wreg	equ	0xFE8
  3883                           indf1	equ	0xFE7
  3884                           postdec1	equ	0xFE5
  3885                           fsr1h	equ	0xFE2
  3886                           fsr1l	equ	0xFE1
  3887                           indf2	equ	0xFDF
  3888                           postinc2	equ	0xFDE
  3889                           postdec2	equ	0xFDD
  3890                           fsr2h	equ	0xFDA
  3891                           fsr2l	equ	0xFD9
  3892                           status	equ	0xFD8
  3893                           
  3894 ;; *************** function _memset *****************
  3895 ;; Defined at:
  3896 ;;		line 8 in file "C:\Program Files (x86)\Microchip\xc8\v1.37\sources\common\memset.c"
  3897 ;; Parameters:    Size  Location     Type
  3898 ;;  p1              2    0[COMRAM] PTR void 
  3899 ;;		 -> USBAlternateInterface(1), UEP1(1), 
  3900 ;;  c               2    2[COMRAM] int 
  3901 ;;  n               2    4[COMRAM] unsigned int 
  3902 ;; Auto vars:     Size  Location     Type
  3903 ;;  p               2    6[COMRAM] PTR unsigned char 
  3904 ;;		 -> USBAlternateInterface(1), UEP1(1), 
  3905 ;; Return value:  Size  Location     Type
  3906 ;;                  2    0[COMRAM] PTR void 
  3907 ;; Registers used:
  3908 ;;		wreg, fsr2l, fsr2h, status,2, status,0
  3909 ;; Tracked objects:
  3910 ;;		On entry : 0/0
  3911 ;;		On exit  : 0/0
  3912 ;;		Unchanged: 0/0
  3913 ;; Data sizes:     COMRAM   BANK0   BANK1  BANK4l
  3914 ;;      Params:         6       0       0       0
  3915 ;;      Locals:         2       0       0       0
  3916 ;;      Temps:          0       0       0       0
  3917 ;;      Totals:         8       0       0       0
  3918 ;;Total ram usage:        8 bytes
  3919 ;; Hardware stack levels used:    1
  3920 ;; This function calls:
  3921 ;;		Nothing
  3922 ;; This function is called by:
  3923 ;;		_USBDeviceInit
  3924 ;;		_USBStdSetCfgHandler
  3925 ;; This function uses a non-reentrant model
  3926 ;;
  3927                           
  3928                           	psect	text16
  3929  001A4A                     __ptext16:
  3930                           	opt stack 0
  3931  001A4A                     _memset:
  3932                           	opt stack 28
  3933                           
  3934                           ;incstack = 0
  3935  001A4A  C03A  F040         	movff	memset@p1,memset@p
  3936  001A4E  C03B  F041         	movff	memset@p1+1,memset@p+1
  3937  001A52  D008               	goto	l2477
  3938  001A54                     l2473:
  3939  001A54  C040  FFD9         	movff	memset@p,fsr2l
  3940  001A58  C041  FFDA         	movff	memset@p+1,fsr2h
  3941  001A5C  C03C  FFDF         	movff	memset@c,indf2
  3942  001A60  4A40               	infsnz	memset@p,f,c
  3943  001A62  2A41               	incf	memset@p+1,f,c
  3944  001A64                     l2477:
  3945  001A64  063E               	decf	memset@n,f,c
  3946  001A66  A0D8               	btfss	status,0,c
  3947  001A68  063F               	decf	memset@n+1,f,c
  3948  001A6A  283E               	incf	memset@n,w,c
  3949  001A6C  E1F3               	bnz	l2473
  3950  001A6E  283F               	incf	memset@n+1,w,c
  3951  001A70  B4D8               	btfsc	status,2,c
  3952  001A72  0012               	return	
  3953  001A74  D7EF               	goto	l2473
  3954  001A76                     __end_of_memset:
  3955                           	opt stack 0
  3956                           tblptru	equ	0xFF8
  3957                           tblptrh	equ	0xFF7
  3958                           tblptrl	equ	0xFF6
  3959                           tablat	equ	0xFF5
  3960                           prodh	equ	0xFF4
  3961                           prodl	equ	0xFF3
  3962                           postinc0	equ	0xFEE
  3963                           wreg	equ	0xFE8
  3964                           indf1	equ	0xFE7
  3965                           postdec1	equ	0xFE5
  3966                           fsr1h	equ	0xFE2
  3967                           fsr1l	equ	0xFE1
  3968                           indf2	equ	0xFDF
  3969                           postinc2	equ	0xFDE
  3970                           postdec2	equ	0xFDD
  3971                           fsr2h	equ	0xFDA
  3972                           fsr2l	equ	0xFD9
  3973                           status	equ	0xFD8
  3974                           
  3975 ;; *************** function _USER_USB_CALLBACK_EVENT_HANDLER *****************
  3976 ;; Defined at:
  3977 ;;		line 401 in file "usbcallback.c"
  3978 ;; Parameters:    Size  Location     Type
  3979 ;;  event           2   11[COMRAM] enum E4180
  3980 ;;  pdata           2   13[COMRAM] PTR void 
  3981 ;;		 -> USTATcopy(1), NULL(0), USBActiveConfiguration(1), 
  3982 ;;  size            2   15[COMRAM] unsigned short 
  3983 ;; Auto vars:     Size  Location     Type
  3984 ;;		None
  3985 ;; Return value:  Size  Location     Type
  3986 ;;                  1    wreg      enum E3
  3987 ;; Registers used:
  3988 ;;		wreg, fsr2l, fsr2h, status,2, status,0, prodl, prodh, cstack
  3989 ;; Tracked objects:
  3990 ;;		On entry : 0/0
  3991 ;;		On exit  : 0/0
  3992 ;;		Unchanged: 0/0
  3993 ;; Data sizes:     COMRAM   BANK0   BANK1  BANK4l
  3994 ;;      Params:         6       0       0       0
  3995 ;;      Locals:         0       0       0       0
  3996 ;;      Temps:          2       0       0       0
  3997 ;;      Totals:         8       0       0       0
  3998 ;;Total ram usage:        8 bytes
  3999 ;; Hardware stack levels used:    1
  4000 ;; Hardware stack levels required when called:    3
  4001 ;; This function calls:
  4002 ;;		_USBCBCheckOtherReq
  4003 ;;		_USBCBErrorHandler
  4004 ;;		_USBCBInitEP
  4005 ;;		_USBCBStdSetDscHandler
  4006 ;;		_USBCBSuspend
  4007 ;;		_USBCBWakeFromSuspend
  4008 ;;		_USBCB_SOF_Handler
  4009 ;; This function is called by:
  4010 ;;		_USBDeviceTasks
  4011 ;;		_USBSuspend
  4012 ;;		_USBWakeFromSuspend
  4013 ;;		_USBCtrlTrfSetupHandler
  4014 ;;		_USBCheckStdRequest
  4015 ;;		_USBStdSetCfgHandler
  4016 ;; This function uses a non-reentrant model
  4017 ;;
  4018                           
  4019                           	psect	text17
  4020  0016F2                     __ptext17:
  4021                           	opt stack 0
  4022  0016F2                     _USER_USB_CALLBACK_EVENT_HANDLER:
  4023                           	opt stack 26
  4024                           
  4025                           ;usbcallback.c: 403: switch(event)
  4026                           
  4027                           ;incstack = 0
  4028  0016F2  D017               	goto	l2497
  4029  0016F4                     l2481:
  4030                           
  4031                           ;usbcallback.c: 406: USBCBInitEP();
  4032  0016F4  EC50  F00D         	call	_USBCBInitEP	;wreg free
  4033                           
  4034                           ;usbcallback.c: 407: break;
  4035  0016F8  0012               	return	
  4036  0016FA                     l2483:
  4037                           
  4038                           ;usbcallback.c: 409: USBCBStdSetDscHandler();
  4039  0016FA  EC8B  F00D         	call	_USBCBStdSetDscHandler	;wreg free
  4040                           
  4041                           ;usbcallback.c: 410: break;
  4042  0016FE  0012               	return	
  4043  001700                     l2485:
  4044                           
  4045                           ;usbcallback.c: 412: USBCBCheckOtherReq();
  4046  001700  EC85  F00D         	call	_USBCBCheckOtherReq	;wreg free
  4047                           
  4048                           ;usbcallback.c: 413: break;
  4049  001704  0012               	return	
  4050  001706                     l2487:
  4051                           
  4052                           ;usbcallback.c: 415: USBCB_SOF_Handler();
  4053  001706  EC88  F00D         	call	_USBCB_SOF_Handler	;wreg free
  4054                           
  4055                           ;usbcallback.c: 416: break;
  4056  00170A  0012               	return	
  4057  00170C                     l2489:
  4058                           
  4059                           ;usbcallback.c: 418: USBCBSuspend();
  4060  00170C  EC8A  F00D         	call	_USBCBSuspend	;wreg free
  4061                           
  4062                           ;usbcallback.c: 419: break;
  4063  001710  0012               	return	
  4064  001712                     l2491:
  4065                           
  4066                           ;usbcallback.c: 421: USBCBWakeFromSuspend();
  4067  001712  EC89  F00D         	call	_USBCBWakeFromSuspend	;wreg free
  4068                           
  4069                           ;usbcallback.c: 422: break;
  4070  001716  0012               	return	
  4071  001718                     l2493:
  4072                           
  4073                           ;usbcallback.c: 424: USBCBErrorHandler();
  4074  001718  EC8C  F00D         	call	_USBCBErrorHandler	;wreg free
  4075                           
  4076                           ;usbcallback.c: 425: break;
  4077  00171C  0012               	return	
  4078  00171E                     l430:
  4079  00171E  F000               	nop		;# 
  4080                           
  4081                           ;usbcallback.c: 431: }
  4082                           
  4083                           ;usbcallback.c: 430: break;
  4084                           
  4085                           ;usbcallback.c: 429: default:
  4086                           
  4087                           ;usbcallback.c: 428: break;
  4088  001720  0012               	return	
  4089  001722                     l2497:
  4090  001722  C045  F04B         	movff	USER_USB_CALLBACK_EVENT_HANDLER@event,??_USER_USB_CALLBACK_EVENT_HANDLER
  4091  001726  C046  F04C         	movff	USER_USB_CALLBACK_EVENT_HANDLER@event+1,??_USER_USB_CALLBACK_EVENT_HANDLER+1
  4092                           
  4093                           ; Switch on 2 bytes has been partitioned into a top level switch of size 1, and 2 sub-sw
      +                          itches
  4094                           ; Switch size 1, requested type "space"
  4095                           ; Number of cases is 2, Range of values is 0 to 127
  4096                           ; switch strategies available:
  4097                           ; Name         Instructions Cycles
  4098                           ; simple_byte            7     4 (average)
  4099                           ;	Chosen strategy is simple_byte
  4100  00172A  504C               	movf	??_USER_USB_CALLBACK_EVENT_HANDLER+1,w,c
  4101  00172C  0A00               	xorlw	0	; case 0
  4102  00172E  B4D8               	btfsc	status,2,c
  4103  001730  D004               	goto	l3435
  4104  001732  0A7F               	xorlw	127	; case 127
  4105  001734  A4D8               	btfss	status,2,c
  4106  001736  0012               	return	
  4107  001738  D017               	goto	l3437
  4108  00173A                     l3435:
  4109                           
  4110                           ; Switch size 1, requested type "space"
  4111                           ; Number of cases is 7, Range of values is 1 to 117
  4112                           ; switch strategies available:
  4113                           ; Name         Instructions Cycles
  4114                           ; simple_byte           22    12 (average)
  4115                           ;	Chosen strategy is simple_byte
  4116  00173A  504B               	movf	??_USER_USB_CALLBACK_EVENT_HANDLER,w,c
  4117  00173C  0A01               	xorlw	1	; case 1
  4118  00173E  B4D8               	btfsc	status,2,c
  4119  001740  D7D9               	goto	l2481
  4120  001742  0A03               	xorlw	3	; case 2
  4121  001744  B4D8               	btfsc	status,2,c
  4122  001746  D7D9               	goto	l2483
  4123  001748  0A01               	xorlw	1	; case 3
  4124  00174A  B4D8               	btfsc	status,2,c
  4125  00174C  D7D9               	goto	l2485
  4126  00174E  0A71               	xorlw	113	; case 114
  4127  001750  B4D8               	btfsc	status,2,c
  4128  001752  D7E5               	goto	l430
  4129  001754  0A01               	xorlw	1	; case 115
  4130  001756  B4D8               	btfsc	status,2,c
  4131  001758  D7D6               	goto	l2487
  4132  00175A  0A07               	xorlw	7	; case 116
  4133  00175C  B4D8               	btfsc	status,2,c
  4134  00175E  D7D9               	goto	l2491
  4135  001760  0A01               	xorlw	1	; case 117
  4136  001762  A4D8               	btfss	status,2,c
  4137  001764  0012               	return	
  4138  001766  D7D2               	goto	l2489
  4139  001768                     l3437:
  4140                           
  4141                           ; Switch size 1, requested type "space"
  4142                           ; Number of cases is 1, Range of values is 255 to 255
  4143                           ; switch strategies available:
  4144                           ; Name         Instructions Cycles
  4145                           ; simple_byte            4     3 (average)
  4146                           ;	Chosen strategy is simple_byte
  4147  001768  504B               	movf	??_USER_USB_CALLBACK_EVENT_HANDLER,w,c
  4148  00176A  0AFF               	xorlw	255	; case 255
  4149  00176C  A4D8               	btfss	status,2,c
  4150  00176E  0012               	return	
  4151  001770  D7D3               	goto	l2493
  4152  001772                     __end_of_USER_USB_CALLBACK_EVENT_HANDLER:
  4153                           	opt stack 0
  4154                           tblptru	equ	0xFF8
  4155                           tblptrh	equ	0xFF7
  4156                           tblptrl	equ	0xFF6
  4157                           tablat	equ	0xFF5
  4158                           prodh	equ	0xFF4
  4159                           prodl	equ	0xFF3
  4160                           postinc0	equ	0xFEE
  4161                           wreg	equ	0xFE8
  4162                           indf1	equ	0xFE7
  4163                           postdec1	equ	0xFE5
  4164                           fsr1h	equ	0xFE2
  4165                           fsr1l	equ	0xFE1
  4166                           indf2	equ	0xFDF
  4167                           postinc2	equ	0xFDE
  4168                           postdec2	equ	0xFDD
  4169                           fsr2h	equ	0xFDA
  4170                           fsr2l	equ	0xFD9
  4171                           status	equ	0xFD8
  4172                           
  4173 ;; *************** function _USBCB_SOF_Handler *****************
  4174 ;; Defined at:
  4175 ;;		line 163 in file "usbcallback.c"
  4176 ;; Parameters:    Size  Location     Type
  4177 ;;		None
  4178 ;; Auto vars:     Size  Location     Type
  4179 ;;		None
  4180 ;; Return value:  Size  Location     Type
  4181 ;;                  1    wreg      void 
  4182 ;; Registers used:
  4183 ;;		None
  4184 ;; Tracked objects:
  4185 ;;		On entry : 0/0
  4186 ;;		On exit  : 0/0
  4187 ;;		Unchanged: 0/0
  4188 ;; Data sizes:     COMRAM   BANK0   BANK1  BANK4l
  4189 ;;      Params:         0       0       0       0
  4190 ;;      Locals:         0       0       0       0
  4191 ;;      Temps:          0       0       0       0
  4192 ;;      Totals:         0       0       0       0
  4193 ;;Total ram usage:        0 bytes
  4194 ;; Hardware stack levels used:    1
  4195 ;; This function calls:
  4196 ;;		Nothing
  4197 ;; This function is called by:
  4198 ;;		_USER_USB_CALLBACK_EVENT_HANDLER
  4199 ;; This function uses a non-reentrant model
  4200 ;;
  4201                           
  4202                           	psect	text18
  4203  001B10                     __ptext18:
  4204                           	opt stack 0
  4205  001B10                     _USBCB_SOF_Handler:
  4206                           	opt stack 28
  4207                           
  4208                           ;incstack = 0
  4209  001B10  0012               	return		;funcret
  4210  001B12                     __end_of_USBCB_SOF_Handler:
  4211                           	opt stack 0
  4212                           tblptru	equ	0xFF8
  4213                           tblptrh	equ	0xFF7
  4214                           tblptrl	equ	0xFF6
  4215                           tablat	equ	0xFF5
  4216                           prodh	equ	0xFF4
  4217                           prodl	equ	0xFF3
  4218                           postinc0	equ	0xFEE
  4219                           wreg	equ	0xFE8
  4220                           indf1	equ	0xFE7
  4221                           postdec1	equ	0xFE5
  4222                           fsr1h	equ	0xFE2
  4223                           fsr1l	equ	0xFE1
  4224                           indf2	equ	0xFDF
  4225                           postinc2	equ	0xFDE
  4226                           postdec2	equ	0xFDD
  4227                           fsr2h	equ	0xFDA
  4228                           fsr2l	equ	0xFD9
  4229                           status	equ	0xFD8
  4230                           
  4231 ;; *************** function _USBCBWakeFromSuspend *****************
  4232 ;; Defined at:
  4233 ;;		line 133 in file "usbcallback.c"
  4234 ;; Parameters:    Size  Location     Type
  4235 ;;		None
  4236 ;; Auto vars:     Size  Location     Type
  4237 ;;		None
  4238 ;; Return value:  Size  Location     Type
  4239 ;;                  1    wreg      void 
  4240 ;; Registers used:
  4241 ;;		None
  4242 ;; Tracked objects:
  4243 ;;		On entry : 0/0
  4244 ;;		On exit  : 0/0
  4245 ;;		Unchanged: 0/0
  4246 ;; Data sizes:     COMRAM   BANK0   BANK1  BANK4l
  4247 ;;      Params:         0       0       0       0
  4248 ;;      Locals:         0       0       0       0
  4249 ;;      Temps:          0       0       0       0
  4250 ;;      Totals:         0       0       0       0
  4251 ;;Total ram usage:        0 bytes
  4252 ;; Hardware stack levels used:    1
  4253 ;; This function calls:
  4254 ;;		Nothing
  4255 ;; This function is called by:
  4256 ;;		_USER_USB_CALLBACK_EVENT_HANDLER
  4257 ;; This function uses a non-reentrant model
  4258 ;;
  4259                           
  4260                           	psect	text19
  4261  001B12                     __ptext19:
  4262                           	opt stack 0
  4263  001B12                     _USBCBWakeFromSuspend:
  4264                           	opt stack 28
  4265                           
  4266                           ;incstack = 0
  4267  001B12  0012               	return		;funcret
  4268  001B14                     __end_of_USBCBWakeFromSuspend:
  4269                           	opt stack 0
  4270                           tblptru	equ	0xFF8
  4271                           tblptrh	equ	0xFF7
  4272                           tblptrl	equ	0xFF6
  4273                           tablat	equ	0xFF5
  4274                           prodh	equ	0xFF4
  4275                           prodl	equ	0xFF3
  4276                           postinc0	equ	0xFEE
  4277                           wreg	equ	0xFE8
  4278                           indf1	equ	0xFE7
  4279                           postdec1	equ	0xFE5
  4280                           fsr1h	equ	0xFE2
  4281                           fsr1l	equ	0xFE1
  4282                           indf2	equ	0xFDF
  4283                           postinc2	equ	0xFDE
  4284                           postdec2	equ	0xFDD
  4285                           fsr2h	equ	0xFDA
  4286                           fsr2l	equ	0xFD9
  4287                           status	equ	0xFD8
  4288                           
  4289 ;; *************** function _USBCBSuspend *****************
  4290 ;; Defined at:
  4291 ;;		line 43 in file "usbcallback.c"
  4292 ;; Parameters:    Size  Location     Type
  4293 ;;		None
  4294 ;; Auto vars:     Size  Location     Type
  4295 ;;		None
  4296 ;; Return value:  Size  Location     Type
  4297 ;;                  1    wreg      void 
  4298 ;; Registers used:
  4299 ;;		None
  4300 ;; Tracked objects:
  4301 ;;		On entry : 0/0
  4302 ;;		On exit  : 0/0
  4303 ;;		Unchanged: 0/0
  4304 ;; Data sizes:     COMRAM   BANK0   BANK1  BANK4l
  4305 ;;      Params:         0       0       0       0
  4306 ;;      Locals:         0       0       0       0
  4307 ;;      Temps:          0       0       0       0
  4308 ;;      Totals:         0       0       0       0
  4309 ;;Total ram usage:        0 bytes
  4310 ;; Hardware stack levels used:    1
  4311 ;; This function calls:
  4312 ;;		Nothing
  4313 ;; This function is called by:
  4314 ;;		_USER_USB_CALLBACK_EVENT_HANDLER
  4315 ;; This function uses a non-reentrant model
  4316 ;;
  4317                           
  4318                           	psect	text20
  4319  001B14                     __ptext20:
  4320                           	opt stack 0
  4321  001B14                     _USBCBSuspend:
  4322                           	opt stack 28
  4323                           
  4324                           ;incstack = 0
  4325  001B14  0012               	return		;funcret
  4326  001B16                     __end_of_USBCBSuspend:
  4327                           	opt stack 0
  4328                           tblptru	equ	0xFF8
  4329                           tblptrh	equ	0xFF7
  4330                           tblptrl	equ	0xFF6
  4331                           tablat	equ	0xFF5
  4332                           prodh	equ	0xFF4
  4333                           prodl	equ	0xFF3
  4334                           postinc0	equ	0xFEE
  4335                           wreg	equ	0xFE8
  4336                           indf1	equ	0xFE7
  4337                           postdec1	equ	0xFE5
  4338                           fsr1h	equ	0xFE2
  4339                           fsr1l	equ	0xFE1
  4340                           indf2	equ	0xFDF
  4341                           postinc2	equ	0xFDE
  4342                           postdec2	equ	0xFDD
  4343                           fsr2h	equ	0xFDA
  4344                           fsr2l	equ	0xFD9
  4345                           status	equ	0xFD8
  4346                           
  4347 ;; *************** function _USBCBStdSetDscHandler *****************
  4348 ;; Defined at:
  4349 ;;		line 262 in file "usbcallback.c"
  4350 ;; Parameters:    Size  Location     Type
  4351 ;;		None
  4352 ;; Auto vars:     Size  Location     Type
  4353 ;;		None
  4354 ;; Return value:  Size  Location     Type
  4355 ;;                  1    wreg      void 
  4356 ;; Registers used:
  4357 ;;		None
  4358 ;; Tracked objects:
  4359 ;;		On entry : 0/0
  4360 ;;		On exit  : 0/0
  4361 ;;		Unchanged: 0/0
  4362 ;; Data sizes:     COMRAM   BANK0   BANK1  BANK4l
  4363 ;;      Params:         0       0       0       0
  4364 ;;      Locals:         0       0       0       0
  4365 ;;      Temps:          0       0       0       0
  4366 ;;      Totals:         0       0       0       0
  4367 ;;Total ram usage:        0 bytes
  4368 ;; Hardware stack levels used:    1
  4369 ;; This function calls:
  4370 ;;		Nothing
  4371 ;; This function is called by:
  4372 ;;		_USER_USB_CALLBACK_EVENT_HANDLER
  4373 ;; This function uses a non-reentrant model
  4374 ;;
  4375                           
  4376                           	psect	text21
  4377  001B16                     __ptext21:
  4378                           	opt stack 0
  4379  001B16                     _USBCBStdSetDscHandler:
  4380                           	opt stack 28
  4381                           
  4382                           ;incstack = 0
  4383  001B16  0012               	return		;funcret
  4384  001B18                     __end_of_USBCBStdSetDscHandler:
  4385                           	opt stack 0
  4386                           tblptru	equ	0xFF8
  4387                           tblptrh	equ	0xFF7
  4388                           tblptrl	equ	0xFF6
  4389                           tablat	equ	0xFF5
  4390                           prodh	equ	0xFF4
  4391                           prodl	equ	0xFF3
  4392                           postinc0	equ	0xFEE
  4393                           wreg	equ	0xFE8
  4394                           indf1	equ	0xFE7
  4395                           postdec1	equ	0xFE5
  4396                           fsr1h	equ	0xFE2
  4397                           fsr1l	equ	0xFE1
  4398                           indf2	equ	0xFDF
  4399                           postinc2	equ	0xFDE
  4400                           postdec2	equ	0xFDD
  4401                           fsr2h	equ	0xFDA
  4402                           fsr2l	equ	0xFD9
  4403                           status	equ	0xFD8
  4404                           
  4405 ;; *************** function _USBCBInitEP *****************
  4406 ;; Defined at:
  4407 ;;		line 288 in file "usbcallback.c"
  4408 ;; Parameters:    Size  Location     Type
  4409 ;;		None
  4410 ;; Auto vars:     Size  Location     Type
  4411 ;;		None
  4412 ;; Return value:  Size  Location     Type
  4413 ;;                  1    wreg      void 
  4414 ;; Registers used:
  4415 ;;		wreg, fsr2l, fsr2h, status,2, status,0, prodl, prodh, cstack
  4416 ;; Tracked objects:
  4417 ;;		On entry : 0/0
  4418 ;;		On exit  : 0/0
  4419 ;;		Unchanged: 0/0
  4420 ;; Data sizes:     COMRAM   BANK0   BANK1  BANK4l
  4421 ;;      Params:         0       0       0       0
  4422 ;;      Locals:         0       0       0       0
  4423 ;;      Temps:          0       0       0       0
  4424 ;;      Totals:         0       0       0       0
  4425 ;;Total ram usage:        0 bytes
  4426 ;; Hardware stack levels used:    1
  4427 ;; Hardware stack levels required when called:    2
  4428 ;; This function calls:
  4429 ;;		_USBEnableEndpoint
  4430 ;;		_USBTransferOnePacket
  4431 ;; This function is called by:
  4432 ;;		_USER_USB_CALLBACK_EVENT_HANDLER
  4433 ;; This function uses a non-reentrant model
  4434 ;;
  4435                           
  4436                           	psect	text22
  4437  001AA0                     __ptext22:
  4438                           	opt stack 0
  4439  001AA0                     _USBCBInitEP:
  4440                           	opt stack 26
  4441                           
  4442                           ;usbcallback.c: 291: USBEnableEndpoint(1,0x02|0x04|0x10|0x08);
  4443                           
  4444                           ;incstack = 0
  4445  001AA0  0E1E               	movlw	30
  4446  001AA2  6E41               	movwf	USBEnableEndpoint@options,c
  4447  001AA4  0E01               	movlw	1
  4448  001AA6  ECD5  F00C         	call	_USBEnableEndpoint
  4449                           
  4450                           ;usbcallback.c: 293: USBOutHandle = USBTransferOnePacket(1,0,(BYTE*)&ReceivedDataBuffer,
      +                          64);
  4451  001AAA  0E00               	movlw	0
  4452  001AAC  6E3A               	movwf	USBTransferOnePacket@dir,c
  4453  001AAE  0E80               	movlw	128
  4454  001AB0  6E3B               	movwf	USBTransferOnePacket@data,c
  4455  001AB2  0E04               	movlw	4
  4456  001AB4  6E3C               	movwf	USBTransferOnePacket@data+1,c
  4457  001AB6  0E40               	movlw	64
  4458  001AB8  6E3D               	movwf	USBTransferOnePacket@len,c
  4459  001ABA  0E01               	movlw	1
  4460  001ABC  EC17  F00A         	call	_USBTransferOnePacket
  4461  001AC0  C03A  F020         	movff	?_USBTransferOnePacket,_USBOutHandle
  4462  001AC4  C03B  F021         	movff	?_USBTransferOnePacket+1,_USBOutHandle+1
  4463  001AC8  0012               	return		;funcret
  4464  001ACA                     __end_of_USBCBInitEP:
  4465                           	opt stack 0
  4466                           tblptru	equ	0xFF8
  4467                           tblptrh	equ	0xFF7
  4468                           tblptrl	equ	0xFF6
  4469                           tablat	equ	0xFF5
  4470                           prodh	equ	0xFF4
  4471                           prodl	equ	0xFF3
  4472                           postinc0	equ	0xFEE
  4473                           wreg	equ	0xFE8
  4474                           indf1	equ	0xFE7
  4475                           postdec1	equ	0xFE5
  4476                           fsr1h	equ	0xFE2
  4477                           fsr1l	equ	0xFE1
  4478                           indf2	equ	0xFDF
  4479                           postinc2	equ	0xFDE
  4480                           postdec2	equ	0xFDD
  4481                           fsr2h	equ	0xFDA
  4482                           fsr2l	equ	0xFD9
  4483                           status	equ	0xFD8
  4484                           
  4485 ;; *************** function _USBTransferOnePacket *****************
  4486 ;; Defined at:
  4487 ;;		line 2476 in file "usb_device.c"
  4488 ;; Parameters:    Size  Location     Type
  4489 ;;  ep              1    wreg     unsigned char 
  4490 ;;  dir             1    0[COMRAM] unsigned char 
  4491 ;;  data            2    1[COMRAM] PTR unsigned char 
  4492 ;;		 -> ToSendDataBuffer(64), ReceivedDataBuffer(64), 
  4493 ;;  len             1    3[COMRAM] unsigned char 
  4494 ;; Auto vars:     Size  Location     Type
  4495 ;;  ep              1    4[COMRAM] unsigned char 
  4496 ;;  handle          2    5[COMRAM] PTR volatile struct __BD
  4497 ;;		 -> BDT(32), 
  4498 ;; Return value:  Size  Location     Type
  4499 ;;                  2    0[COMRAM] PTR void 
  4500 ;; Registers used:
  4501 ;;		wreg, fsr2l, fsr2h, status,2, status,0, prodl, prodh
  4502 ;; Tracked objects:
  4503 ;;		On entry : 0/0
  4504 ;;		On exit  : 0/0
  4505 ;;		Unchanged: 0/0
  4506 ;; Data sizes:     COMRAM   BANK0   BANK1  BANK4l
  4507 ;;      Params:         4       0       0       0
  4508 ;;      Locals:         3       0       0       0
  4509 ;;      Temps:          0       0       0       0
  4510 ;;      Totals:         7       0       0       0
  4511 ;;Total ram usage:        7 bytes
  4512 ;; Hardware stack levels used:    1
  4513 ;; This function calls:
  4514 ;;		Nothing
  4515 ;; This function is called by:
  4516 ;;		_USBCBInitEP
  4517 ;;		_main
  4518 ;; This function uses a non-reentrant model
  4519 ;;
  4520                           
  4521                           	psect	text23
  4522  00142E                     __ptext23:
  4523                           	opt stack 0
  4524  00142E                     _USBTransferOnePacket:
  4525                           	opt stack 30
  4526                           
  4527                           ;incstack = 0
  4528                           ;USBTransferOnePacket@ep stored from wreg
  4529  00142E  6E3E               	movwf	USBTransferOnePacket@ep,c
  4530                           
  4531                           ;usb_device.c: 2478: volatile BDT_ENTRY* handle;
  4532                           ;usb_device.c: 2481: if(dir != 0)
  4533  001430  503A               	movf	USBTransferOnePacket@dir,w,c
  4534  001432  B4D8               	btfsc	status,2,c
  4535  001434  D007               	goto	l2385
  4536                           
  4537                           ;usb_device.c: 2482: {
  4538                           ;usb_device.c: 2484: handle = pBDTEntryIn[ep];
  4539  001436  503E               	movf	USBTransferOnePacket@ep,w,c
  4540  001438  0D02               	mullw	2
  4541  00143A  0E0F               	movlw	low _pBDTEntryIn
  4542  00143C  24F3               	addwf	prodl,w,c
  4543  00143E  6ED9               	movwf	fsr2l,c
  4544  001440  0E00               	movlw	high _pBDTEntryIn
  4545  001442  D006               	goto	L3
  4546  001444                     l2385:
  4547                           
  4548                           ;usb_device.c: 2486: else
  4549                           ;usb_device.c: 2487: {
  4550                           ;usb_device.c: 2489: handle = pBDTEntryOut[ep];
  4551  001444  503E               	movf	USBTransferOnePacket@ep,w,c
  4552  001446  0D02               	mullw	2
  4553  001448  0E13               	movlw	low _pBDTEntryOut
  4554  00144A  24F3               	addwf	prodl,w,c
  4555  00144C  6ED9               	movwf	fsr2l,c
  4556  00144E  0E00               	movlw	high _pBDTEntryOut
  4557  001450                     L3:
  4558  001450  20F4               	addwfc	prodh,w,c
  4559  001452  6EDA               	movwf	fsr2h,c
  4560  001454  CFDE F03F          	movff	postinc2,USBTransferOnePacket@handle
  4561  001458  CFDD F040          	movff	postdec2,USBTransferOnePacket@handle+1
  4562                           
  4563                           ;usb_device.c: 2490: }
  4564                           ;usb_device.c: 2503: handle->ADR = (BYTE*)data;
  4565  00145C  EE20 F002          	lfsr	2,2
  4566  001460  503F               	movf	USBTransferOnePacket@handle,w,c
  4567  001462  26D9               	addwf	fsr2l,f,c
  4568  001464  5040               	movf	USBTransferOnePacket@handle+1,w,c
  4569  001466  22DA               	addwfc	fsr2h,f,c
  4570  001468  C03B  FFDE         	movff	USBTransferOnePacket@data,postinc2	;volatile
  4571  00146C  C03C  FFDD         	movff	USBTransferOnePacket@data+1,postdec2	;volatile
  4572                           
  4573                           ;usb_device.c: 2504: handle->CNT = len;
  4574  001470  EE20 F001          	lfsr	2,1
  4575  001474  503F               	movf	USBTransferOnePacket@handle,w,c
  4576  001476  26D9               	addwf	fsr2l,f,c
  4577  001478  5040               	movf	USBTransferOnePacket@handle+1,w,c
  4578  00147A  22DA               	addwfc	fsr2h,f,c
  4579  00147C  C03D  FFDF         	movff	USBTransferOnePacket@len,indf2
  4580                           
  4581                           ;usb_device.c: 2505: handle->STAT.Val &= 0x40;
  4582  001480  C03F  FFD9         	movff	USBTransferOnePacket@handle,fsr2l
  4583  001484  C040  FFDA         	movff	USBTransferOnePacket@handle+1,fsr2h
  4584  001488  0E40               	movlw	64
  4585  00148A  16DF               	andwf	indf2,f,c
  4586                           
  4587                           ;usb_device.c: 2506: handle->STAT.Val |= 0x80 | 0x08;
  4588  00148C  C03F  FFD9         	movff	USBTransferOnePacket@handle,fsr2l
  4589  001490  C040  FFDA         	movff	USBTransferOnePacket@handle+1,fsr2h
  4590  001494  0E88               	movlw	136
  4591  001496  12DF               	iorwf	indf2,f,c
  4592                           
  4593                           ;usb_device.c: 2509: if(dir != 0)
  4594  001498  503A               	movf	USBTransferOnePacket@dir,w,c
  4595  00149A  B4D8               	btfsc	status,2,c
  4596  00149C  D007               	goto	l2399
  4597                           
  4598                           ;usb_device.c: 2510: {
  4599                           ;usb_device.c: 2512: ((BYTE_VAL*)&pBDTEntryIn[ep])->Val ^= 0x0004;
  4600  00149E  503E               	movf	USBTransferOnePacket@ep,w,c
  4601  0014A0  0D02               	mullw	2
  4602  0014A2  0E0F               	movlw	low _pBDTEntryIn
  4603  0014A4  24F3               	addwf	prodl,w,c
  4604  0014A6  6ED9               	movwf	fsr2l,c
  4605  0014A8  0E00               	movlw	high _pBDTEntryIn
  4606  0014AA  D006               	goto	L4
  4607  0014AC                     l2399:
  4608                           
  4609                           ;usb_device.c: 2514: else
  4610                           ;usb_device.c: 2515: {
  4611                           ;usb_device.c: 2517: ((BYTE_VAL*)&pBDTEntryOut[ep])->Val ^= 0x0004;
  4612  0014AC  503E               	movf	USBTransferOnePacket@ep,w,c
  4613  0014AE  0D02               	mullw	2
  4614  0014B0  0E13               	movlw	low _pBDTEntryOut
  4615  0014B2  24F3               	addwf	prodl,w,c
  4616  0014B4  6ED9               	movwf	fsr2l,c
  4617  0014B6  0E00               	movlw	high _pBDTEntryOut
  4618  0014B8                     L4:
  4619  0014B8  20F4               	addwfc	prodh,w,c
  4620  0014BA  6EDA               	movwf	fsr2h,c
  4621  0014BC  0E04               	movlw	4
  4622  0014BE  1ADF               	xorwf	indf2,f,c
  4623                           
  4624                           ;usb_device.c: 2518: }
  4625                           ;usb_device.c: 2519: return (void*)handle;
  4626  0014C0  C03F  F03A         	movff	USBTransferOnePacket@handle,?_USBTransferOnePacket
  4627  0014C4  C040  F03B         	movff	USBTransferOnePacket@handle+1,?_USBTransferOnePacket+1
  4628  0014C8  0012               	return	
  4629  0014CA                     __end_of_USBTransferOnePacket:
  4630                           	opt stack 0
  4631                           tblptru	equ	0xFF8
  4632                           tblptrh	equ	0xFF7
  4633                           tblptrl	equ	0xFF6
  4634                           tablat	equ	0xFF5
  4635                           prodh	equ	0xFF4
  4636                           prodl	equ	0xFF3
  4637                           postinc0	equ	0xFEE
  4638                           wreg	equ	0xFE8
  4639                           indf1	equ	0xFE7
  4640                           postdec1	equ	0xFE5
  4641                           fsr1h	equ	0xFE2
  4642                           fsr1l	equ	0xFE1
  4643                           indf2	equ	0xFDF
  4644                           postinc2	equ	0xFDE
  4645                           postdec2	equ	0xFDD
  4646                           fsr2h	equ	0xFDA
  4647                           fsr2l	equ	0xFD9
  4648                           status	equ	0xFD8
  4649                           
  4650 ;; *************** function _USBEnableEndpoint *****************
  4651 ;; Defined at:
  4652 ;;		line 2376 in file "usb_device.c"
  4653 ;; Parameters:    Size  Location     Type
  4654 ;;  ep              1    wreg     unsigned char 
  4655 ;;  options         1    7[COMRAM] unsigned char 
  4656 ;; Auto vars:     Size  Location     Type
  4657 ;;  ep              1   10[COMRAM] unsigned char 
  4658 ;;  p               2    8[COMRAM] PTR unsigned char 
  4659 ;;		 -> UEP0(1), 
  4660 ;; Return value:  Size  Location     Type
  4661 ;;                  1    wreg      void 
  4662 ;; Registers used:
  4663 ;;		wreg, fsr2l, fsr2h, status,2, status,0, prodl, prodh, cstack
  4664 ;; Tracked objects:
  4665 ;;		On entry : 0/0
  4666 ;;		On exit  : 0/0
  4667 ;;		Unchanged: 0/0
  4668 ;; Data sizes:     COMRAM   BANK0   BANK1  BANK4l
  4669 ;;      Params:         1       0       0       0
  4670 ;;      Locals:         3       0       0       0
  4671 ;;      Temps:          0       0       0       0
  4672 ;;      Totals:         4       0       0       0
  4673 ;;Total ram usage:        4 bytes
  4674 ;; Hardware stack levels used:    1
  4675 ;; Hardware stack levels required when called:    1
  4676 ;; This function calls:
  4677 ;;		_USBConfigureEndpoint
  4678 ;; This function is called by:
  4679 ;;		_USBCBInitEP
  4680 ;; This function uses a non-reentrant model
  4681 ;;
  4682                           
  4683                           	psect	text24
  4684  0019AA                     __ptext24:
  4685                           	opt stack 0
  4686  0019AA                     _USBEnableEndpoint:
  4687                           	opt stack 26
  4688                           
  4689                           ;incstack = 0
  4690                           ;USBEnableEndpoint@ep stored from wreg
  4691  0019AA  6E44               	movwf	USBEnableEndpoint@ep,c
  4692                           
  4693                           ;usb_device.c: 2380: {
  4694                           ;usb_device.c: 2381: unsigned char* p;
  4695                           ;usb_device.c: 2386: p = (unsigned char*)(&UEP0+ep);
  4696  0019AC  5044               	movf	USBEnableEndpoint@ep,w,c
  4697  0019AE  0D01               	mullw	1
  4698  0019B0  0E70               	movlw	112
  4699  0019B2  24F3               	addwf	prodl,w,c
  4700  0019B4  6E42               	movwf	USBEnableEndpoint@p,c
  4701  0019B6  0E0F               	movlw	15
  4702  0019B8  20F4               	addwfc	prodh,w,c
  4703  0019BA  6E43               	movwf	USBEnableEndpoint@p+1,c
  4704                           
  4705                           ;usb_device.c: 2388: *p = options;
  4706  0019BC  C042  FFD9         	movff	USBEnableEndpoint@p,fsr2l
  4707  0019C0  C043  FFDA         	movff	USBEnableEndpoint@p+1,fsr2h
  4708  0019C4  C041  FFDF         	movff	USBEnableEndpoint@options,indf2
  4709                           
  4710                           ;usb_device.c: 2389: }
  4711                           ;usb_device.c: 2391: if(options & 0x04)
  4712  0019C8  A441               	btfss	USBEnableEndpoint@options,2,c
  4713  0019CA  D005               	goto	l2377
  4714                           
  4715                           ;usb_device.c: 2392: {
  4716                           ;usb_device.c: 2393: USBConfigureEndpoint(ep,0);
  4717  0019CC  0E00               	movlw	0
  4718  0019CE  6E3A               	movwf	USBConfigureEndpoint@direction,c
  4719  0019D0  5044               	movf	USBEnableEndpoint@ep,w,c
  4720  0019D2  ECAD  F00A         	call	_USBConfigureEndpoint
  4721  0019D6                     l2377:
  4722                           
  4723                           ;usb_device.c: 2394: }
  4724                           ;usb_device.c: 2395: if(options & 0x02)
  4725  0019D6  A241               	btfss	USBEnableEndpoint@options,1,c
  4726  0019D8  0012               	return	
  4727                           
  4728                           ;usb_device.c: 2396: {
  4729                           ;usb_device.c: 2397: USBConfigureEndpoint(ep,1);
  4730  0019DA  0E01               	movlw	1
  4731  0019DC  6E3A               	movwf	USBConfigureEndpoint@direction,c
  4732  0019DE  5044               	movf	USBEnableEndpoint@ep,w,c
  4733  0019E0  ECAD  F00A         	call	_USBConfigureEndpoint
  4734  0019E4  0012               	return	
  4735  0019E6                     __end_of_USBEnableEndpoint:
  4736                           	opt stack 0
  4737                           tblptru	equ	0xFF8
  4738                           tblptrh	equ	0xFF7
  4739                           tblptrl	equ	0xFF6
  4740                           tablat	equ	0xFF5
  4741                           prodh	equ	0xFF4
  4742                           prodl	equ	0xFF3
  4743                           postinc0	equ	0xFEE
  4744                           wreg	equ	0xFE8
  4745                           indf1	equ	0xFE7
  4746                           postdec1	equ	0xFE5
  4747                           fsr1h	equ	0xFE2
  4748                           fsr1l	equ	0xFE1
  4749                           indf2	equ	0xFDF
  4750                           postinc2	equ	0xFDE
  4751                           postdec2	equ	0xFDD
  4752                           fsr2h	equ	0xFDA
  4753                           fsr2l	equ	0xFD9
  4754                           status	equ	0xFD8
  4755                           
  4756 ;; *************** function _USBConfigureEndpoint *****************
  4757 ;; Defined at:
  4758 ;;		line 2277 in file "usb_device.c"
  4759 ;; Parameters:    Size  Location     Type
  4760 ;;  EPNum           1    wreg     unsigned char 
  4761 ;;  direction       1    0[COMRAM] unsigned char 
  4762 ;; Auto vars:     Size  Location     Type
  4763 ;;  EPNum           1    4[COMRAM] unsigned char 
  4764 ;;  handle          2    5[COMRAM] PTR volatile struct __BD
  4765 ;;		 -> BDT(32), 
  4766 ;;  workaround      1    3[COMRAM] unsigned char 
  4767 ;; Return value:  Size  Location     Type
  4768 ;;                  1    wreg      void 
  4769 ;; Registers used:
  4770 ;;		wreg, fsr2l, fsr2h, status,2, status,0, prodl, prodh
  4771 ;; Tracked objects:
  4772 ;;		On entry : 0/0
  4773 ;;		On exit  : 0/0
  4774 ;;		Unchanged: 0/0
  4775 ;; Data sizes:     COMRAM   BANK0   BANK1  BANK4l
  4776 ;;      Params:         1       0       0       0
  4777 ;;      Locals:         4       0       0       0
  4778 ;;      Temps:          2       0       0       0
  4779 ;;      Totals:         7       0       0       0
  4780 ;;Total ram usage:        7 bytes
  4781 ;; Hardware stack levels used:    1
  4782 ;; This function calls:
  4783 ;;		Nothing
  4784 ;; This function is called by:
  4785 ;;		_USBEnableEndpoint
  4786 ;; This function uses a non-reentrant model
  4787 ;;
  4788                           
  4789                           	psect	text25
  4790  00155A                     __ptext25:
  4791                           	opt stack 0
  4792  00155A                     _USBConfigureEndpoint:
  4793                           	opt stack 26
  4794                           
  4795                           ;incstack = 0
  4796                           ;USBConfigureEndpoint@EPNum stored from wreg
  4797  00155A  6E3E               	movwf	USBConfigureEndpoint@EPNum,c
  4798                           
  4799                           ;usb_device.c: 2279: volatile BDT_ENTRY* handle;
  4800                           ;usb_device.c: 2281: unsigned char workaround;
  4801                           ;usb_device.c: 2284: handle = (volatile BDT_ENTRY*)&BDT[0];
  4802  00155C  0E00               	movlw	0
  4803  00155E  6E3F               	movwf	USBConfigureEndpoint@handle,c
  4804  001560  0E04               	movlw	4
  4805  001562  6E40               	movwf	USBConfigureEndpoint@handle+1,c
  4806                           
  4807                           ;usb_device.c: 2289: workaround = (4*(4*EPNum+2*direction+0));
  4808  001564  503A               	movf	USBConfigureEndpoint@direction,w,c
  4809  001566  0D02               	mullw	2
  4810  001568  CFF3 F03B          	movff	prodl,??_USBConfigureEndpoint
  4811  00156C  503E               	movf	USBConfigureEndpoint@EPNum,w,c
  4812  00156E  0D04               	mullw	4
  4813  001570  50F3               	movf	prodl,w,c
  4814  001572  243B               	addwf	??_USBConfigureEndpoint,w,c
  4815  001574  6E3C               	movwf	(??_USBConfigureEndpoint+1)& (0+255),c
  4816  001576  90D8               	bcf	status,0,c
  4817  001578  363C               	rlcf	??_USBConfigureEndpoint+1,f,c
  4818  00157A  90D8               	bcf	status,0,c
  4819  00157C  343C               	rlcf	??_USBConfigureEndpoint+1,w,c
  4820  00157E  6E3D               	movwf	USBConfigureEndpoint@workaround,c
  4821                           
  4822                           ;usb_device.c: 2290: workaround = workaround/sizeof(BDT_ENTRY);
  4823  001580  403D               	rrncf	USBConfigureEndpoint@workaround,w,c
  4824  001582  42E8               	rrncf	wreg,f,c
  4825  001584  0B3F               	andlw	63
  4826  001586  6E3D               	movwf	USBConfigureEndpoint@workaround,c
  4827                           
  4828                           ;usb_device.c: 2291: handle += workaround;
  4829  001588  503D               	movf	USBConfigureEndpoint@workaround,w,c
  4830  00158A  0D04               	mullw	4
  4831  00158C  50F3               	movf	prodl,w,c
  4832  00158E  263F               	addwf	USBConfigureEndpoint@handle,f,c
  4833  001590  50F4               	movf	prodh,w,c
  4834  001592  2240               	addwfc	USBConfigureEndpoint@handle+1,f,c
  4835                           
  4836                           ;usb_device.c: 2295: handle->STAT.UOWN = 0;
  4837  001594  C03F  FFD9         	movff	USBConfigureEndpoint@handle,fsr2l
  4838  001598  C040  FFDA         	movff	USBConfigureEndpoint@handle+1,fsr2h
  4839  00159C  9EDF               	bcf	indf2,7,c
  4840                           
  4841                           ;usb_device.c: 2297: if(direction == 0)
  4842  00159E  503A               	movf	USBConfigureEndpoint@direction,w,c
  4843  0015A0  A4D8               	btfss	status,2,c
  4844  0015A2  D007               	goto	l2363
  4845                           
  4846                           ;usb_device.c: 2298: {
  4847                           ;usb_device.c: 2299: pBDTEntryOut[EPNum] = handle;
  4848  0015A4  503E               	movf	USBConfigureEndpoint@EPNum,w,c
  4849  0015A6  0D02               	mullw	2
  4850  0015A8  0E13               	movlw	low _pBDTEntryOut
  4851  0015AA  24F3               	addwf	prodl,w,c
  4852  0015AC  6ED9               	movwf	fsr2l,c
  4853  0015AE  0E00               	movlw	high _pBDTEntryOut
  4854  0015B0  D006               	goto	L5
  4855  0015B2                     l2363:
  4856                           
  4857                           ;usb_device.c: 2301: else
  4858                           ;usb_device.c: 2302: {
  4859                           ;usb_device.c: 2303: pBDTEntryIn[EPNum] = handle;
  4860  0015B2  503E               	movf	USBConfigureEndpoint@EPNum,w,c
  4861  0015B4  0D02               	mullw	2
  4862  0015B6  0E0F               	movlw	low _pBDTEntryIn
  4863  0015B8  24F3               	addwf	prodl,w,c
  4864  0015BA  6ED9               	movwf	fsr2l,c
  4865  0015BC  0E00               	movlw	high _pBDTEntryIn
  4866  0015BE                     L5:
  4867  0015BE  20F4               	addwfc	prodh,w,c
  4868  0015C0  6EDA               	movwf	fsr2h,c
  4869  0015C2  C03F  FFDE         	movff	USBConfigureEndpoint@handle,postinc2
  4870  0015C6  C040  FFDD         	movff	USBConfigureEndpoint@handle+1,postdec2
  4871                           
  4872                           ;usb_device.c: 2304: }
  4873                           ;usb_device.c: 2307: handle->STAT.DTS = 0;
  4874  0015CA  C03F  FFD9         	movff	USBConfigureEndpoint@handle,fsr2l
  4875  0015CE  C040  FFDA         	movff	USBConfigureEndpoint@handle+1,fsr2h
  4876  0015D2  9CDF               	bcf	indf2,6,c
  4877                           
  4878                           ;usb_device.c: 2308: (handle+1)->STAT.DTS = 1;
  4879  0015D4  EE20 F004          	lfsr	2,4
  4880  0015D8  503F               	movf	USBConfigureEndpoint@handle,w,c
  4881  0015DA  26D9               	addwf	fsr2l,f,c
  4882  0015DC  5040               	movf	USBConfigureEndpoint@handle+1,w,c
  4883  0015DE  22DA               	addwfc	fsr2h,f,c
  4884  0015E0  8CDF               	bsf	indf2,6,c
  4885  0015E2  0012               	return		;funcret
  4886  0015E4                     __end_of_USBConfigureEndpoint:
  4887                           	opt stack 0
  4888                           tblptru	equ	0xFF8
  4889                           tblptrh	equ	0xFF7
  4890                           tblptrl	equ	0xFF6
  4891                           tablat	equ	0xFF5
  4892                           prodh	equ	0xFF4
  4893                           prodl	equ	0xFF3
  4894                           postinc0	equ	0xFEE
  4895                           wreg	equ	0xFE8
  4896                           indf1	equ	0xFE7
  4897                           postdec1	equ	0xFE5
  4898                           fsr1h	equ	0xFE2
  4899                           fsr1l	equ	0xFE1
  4900                           indf2	equ	0xFDF
  4901                           postinc2	equ	0xFDE
  4902                           postdec2	equ	0xFDD
  4903                           fsr2h	equ	0xFDA
  4904                           fsr2l	equ	0xFD9
  4905                           status	equ	0xFD8
  4906                           
  4907 ;; *************** function _USBCBErrorHandler *****************
  4908 ;; Defined at:
  4909 ;;		line 186 in file "usbcallback.c"
  4910 ;; Parameters:    Size  Location     Type
  4911 ;;		None
  4912 ;; Auto vars:     Size  Location     Type
  4913 ;;		None
  4914 ;; Return value:  Size  Location     Type
  4915 ;;                  1    wreg      void 
  4916 ;; Registers used:
  4917 ;;		None
  4918 ;; Tracked objects:
  4919 ;;		On entry : 0/0
  4920 ;;		On exit  : 0/0
  4921 ;;		Unchanged: 0/0
  4922 ;; Data sizes:     COMRAM   BANK0   BANK1  BANK4l
  4923 ;;      Params:         0       0       0       0
  4924 ;;      Locals:         0       0       0       0
  4925 ;;      Temps:          0       0       0       0
  4926 ;;      Totals:         0       0       0       0
  4927 ;;Total ram usage:        0 bytes
  4928 ;; Hardware stack levels used:    1
  4929 ;; This function calls:
  4930 ;;		Nothing
  4931 ;; This function is called by:
  4932 ;;		_USER_USB_CALLBACK_EVENT_HANDLER
  4933 ;; This function uses a non-reentrant model
  4934 ;;
  4935                           
  4936                           	psect	text26
  4937  001B18                     __ptext26:
  4938                           	opt stack 0
  4939  001B18                     _USBCBErrorHandler:
  4940                           	opt stack 28
  4941                           
  4942                           ;incstack = 0
  4943  001B18  0012               	return		;funcret
  4944  001B1A                     __end_of_USBCBErrorHandler:
  4945                           	opt stack 0
  4946                           tblptru	equ	0xFF8
  4947                           tblptrh	equ	0xFF7
  4948                           tblptrl	equ	0xFF6
  4949                           tablat	equ	0xFF5
  4950                           prodh	equ	0xFF4
  4951                           prodl	equ	0xFF3
  4952                           postinc0	equ	0xFEE
  4953                           wreg	equ	0xFE8
  4954                           indf1	equ	0xFE7
  4955                           postdec1	equ	0xFE5
  4956                           fsr1h	equ	0xFE2
  4957                           fsr1l	equ	0xFE1
  4958                           indf2	equ	0xFDF
  4959                           postinc2	equ	0xFDE
  4960                           postdec2	equ	0xFDD
  4961                           fsr2h	equ	0xFDA
  4962                           fsr2l	equ	0xFD9
  4963                           status	equ	0xFD8
  4964                           
  4965 ;; *************** function _USBCBCheckOtherReq *****************
  4966 ;; Defined at:
  4967 ;;		line 237 in file "usbcallback.c"
  4968 ;; Parameters:    Size  Location     Type
  4969 ;;		None
  4970 ;; Auto vars:     Size  Location     Type
  4971 ;;		None
  4972 ;; Return value:  Size  Location     Type
  4973 ;;                  1    wreg      void 
  4974 ;; Registers used:
  4975 ;;		wreg, status,2, status,0, cstack
  4976 ;; Tracked objects:
  4977 ;;		On entry : 0/0
  4978 ;;		On exit  : 0/0
  4979 ;;		Unchanged: 0/0
  4980 ;; Data sizes:     COMRAM   BANK0   BANK1  BANK4l
  4981 ;;      Params:         0       0       0       0
  4982 ;;      Locals:         0       0       0       0
  4983 ;;      Temps:          0       0       0       0
  4984 ;;      Totals:         0       0       0       0
  4985 ;;Total ram usage:        0 bytes
  4986 ;; Hardware stack levels used:    1
  4987 ;; Hardware stack levels required when called:    1
  4988 ;; This function calls:
  4989 ;;		_USBCheckHIDRequest
  4990 ;; This function is called by:
  4991 ;;		_USER_USB_CALLBACK_EVENT_HANDLER
  4992 ;; This function uses a non-reentrant model
  4993 ;;
  4994                           
  4995                           	psect	text27
  4996  001B0A                     __ptext27:
  4997                           	opt stack 0
  4998  001B0A                     _USBCBCheckOtherReq:
  4999                           	opt stack 27
  5000                           
  5001                           ;usbcallback.c: 239: USBCheckHIDRequest();
  5002                           
  5003                           ;incstack = 0
  5004  001B0A  EC2A  F008         	call	_USBCheckHIDRequest	;wreg free
  5005  001B0E  0012               	return		;funcret
  5006  001B10                     __end_of_USBCBCheckOtherReq:
  5007                           	opt stack 0
  5008                           tblptru	equ	0xFF8
  5009                           tblptrh	equ	0xFF7
  5010                           tblptrl	equ	0xFF6
  5011                           tablat	equ	0xFF5
  5012                           prodh	equ	0xFF4
  5013                           prodl	equ	0xFF3
  5014                           postinc0	equ	0xFEE
  5015                           wreg	equ	0xFE8
  5016                           indf1	equ	0xFE7
  5017                           postdec1	equ	0xFE5
  5018                           fsr1h	equ	0xFE2
  5019                           fsr1l	equ	0xFE1
  5020                           indf2	equ	0xFDF
  5021                           postinc2	equ	0xFDE
  5022                           postdec2	equ	0xFDD
  5023                           fsr2h	equ	0xFDA
  5024                           fsr2l	equ	0xFD9
  5025                           status	equ	0xFD8
  5026                           
  5027 ;; *************** function _USBCheckHIDRequest *****************
  5028 ;; Defined at:
  5029 ;;		line 164 in file "usb_function_hid.c"
  5030 ;; Parameters:    Size  Location     Type
  5031 ;;		None
  5032 ;; Auto vars:     Size  Location     Type
  5033 ;;		None
  5034 ;; Return value:  Size  Location     Type
  5035 ;;                  1    wreg      void 
  5036 ;; Registers used:
  5037 ;;		wreg, status,2, status,0
  5038 ;; Tracked objects:
  5039 ;;		On entry : 0/0
  5040 ;;		On exit  : 0/0
  5041 ;;		Unchanged: 0/0
  5042 ;; Data sizes:     COMRAM   BANK0   BANK1  BANK4l
  5043 ;;      Params:         0       0       0       0
  5044 ;;      Locals:         0       0       0       0
  5045 ;;      Temps:          0       0       0       0
  5046 ;;      Totals:         0       0       0       0
  5047 ;;Total ram usage:        0 bytes
  5048 ;; Hardware stack levels used:    1
  5049 ;; This function calls:
  5050 ;;		Nothing
  5051 ;; This function is called by:
  5052 ;;		_USBCBCheckOtherReq
  5053 ;; This function uses a non-reentrant model
  5054 ;;
  5055                           
  5056                           	psect	text28
  5057  001054                     __ptext28:
  5058                           	opt stack 0
  5059  001054                     _USBCheckHIDRequest:
  5060                           	opt stack 27
  5061                           
  5062                           ;usb_function_hid.c: 166: if(SetupPkt.Recipient != (0x01)) return;
  5063                           
  5064                           ;incstack = 0
  5065  001054  0105               	movlb	5	; () banked
  5066  001056  5100               	movf	0,w,b	;volatile
  5067  001058  0B1F               	andlw	31
  5068  00105A  06E8               	decf	wreg,f,c
  5069  00105C  A4D8               	btfss	status,2,c
  5070  00105E  0012               	return	
  5071                           
  5072                           ; BSR set to: 5
  5073                           ;usb_function_hid.c: 167: if(SetupPkt.bIntfID != 0x00) return;
  5074                           
  5075                           ; BSR set to: 5
  5076                           
  5077                           ; BSR set to: 5
  5078  001060  0105               	movlb	5	; () banked
  5079  001062  5104               	movf	4,w,b	;volatile
  5080  001064  A4D8               	btfss	status,2,c
  5081  001066  0012               	return	
  5082                           
  5083                           ; BSR set to: 5
  5084                           ;usb_function_hid.c: 174: if(SetupPkt.bRequest == 6)
  5085                           
  5086                           ; BSR set to: 5
  5087                           
  5088                           ; BSR set to: 5
  5089  001068  0E06               	movlw	6
  5090  00106A  0105               	movlb	5	; () banked
  5091  00106C  1901               	xorwf	1,w,b	;volatile
  5092  00106E  B4D8               	btfsc	status,2,c
  5093  001070  D01D               	goto	l2437
  5094  001072  D027               	goto	l2439
  5095  001074                     l2417:
  5096                           
  5097                           ; BSR set to: 5
  5098                           ;usb_function_hid.c: 179: if(USBActiveConfiguration == 1)
  5099  001074  0435               	decf	_USBActiveConfiguration,w,c
  5100  001076  A4D8               	btfss	status,2,c
  5101  001078  D024               	goto	l2439
  5102                           
  5103                           ; BSR set to: 5
  5104                           ;usb_function_hid.c: 180: {
  5105                           ;usb_function_hid.c: 181: { inPipes[0].pSrc.bRom = (const BYTE*)&configDescriptor1 + 18;
      +                           inPipes[0].wCount.Val = sizeof(USB_HID_DSC)+3; inPipes[0].info.Val = 0x40 | 0x80 | 0x00
      +                          ; };
  5106  00107A  0E79               	movlw	low (_configDescriptor1+18)
  5107  00107C  6E09               	movwf	_inPipes,c
  5108  00107E  0E05               	movlw	high (_configDescriptor1+18)
  5109  001080  6E0A               	movwf	_inPipes+1,c
  5110                           
  5111                           ; BSR set to: 5
  5112  001082  0E00               	movlw	0
  5113  001084  6E0E               	movwf	_inPipes+5,c
  5114  001086  0E09               	movlw	9
  5115  001088  D00D               	goto	L6
  5116  00108A                     l2423:
  5117                           
  5118                           ; BSR set to: 5
  5119  00108A  0EC0               	movlw	192
  5120  00108C  6E0C               	movwf	_inPipes+3,c
  5121                           
  5122                           ; BSR set to: 5
  5123                           ;usb_function_hid.c: 185: }
  5124                           ;usb_function_hid.c: 186: break;
  5125  00108E  D019               	goto	l2439
  5126  001090                     l2425:
  5127                           
  5128                           ; BSR set to: 5
  5129                           ;usb_function_hid.c: 188: if(USBActiveConfiguration == 1)
  5130  001090  0435               	decf	_USBActiveConfiguration,w,c
  5131  001092  A4D8               	btfss	status,2,c
  5132  001094  D016               	goto	l2439
  5133                           
  5134                           ; BSR set to: 5
  5135                           ;usb_function_hid.c: 189: {
  5136                           ;usb_function_hid.c: 190: { inPipes[0].pSrc.bRom = (const BYTE*)&hid_rpt01; inPipes[0].w
      +                          Count.Val = sizeof(hid_rpt01); inPipes[0].info.Val = 0x40 | 0x80 | 0x00; };
  5137  001096  0E90               	movlw	low _hid_rpt01
  5138  001098  6E09               	movwf	_inPipes,c
  5139  00109A  0E05               	movlw	high _hid_rpt01
  5140  00109C  6E0A               	movwf	_inPipes+1,c
  5141                           
  5142                           ; BSR set to: 5
  5143  00109E  0E00               	movlw	0
  5144  0010A0  6E0E               	movwf	_inPipes+5,c
  5145  0010A2  0E1D               	movlw	29
  5146  0010A4                     L6:
  5147  0010A4  6E0D               	movwf	_inPipes+4,c
  5148  0010A6  D7F1               	goto	l2423
  5149  0010A8                     l2433:
  5150                           
  5151                           ; BSR set to: 5
  5152                           ;usb_function_hid.c: 197: inPipes[0].info.Val = 0x00 | 0x80;
  5153  0010A8  0E80               	movlw	128
  5154  0010AA  D7F0               	goto	L7
  5155  0010AC                     l2437:
  5156                           
  5157                           ; BSR set to: 5
  5158  0010AC  0105               	movlb	5	; () banked
  5159  0010AE  5103               	movf	3,w,b	;volatile
  5160                           
  5161                           ; Switch size 1, requested type "space"
  5162                           ; Number of cases is 3, Range of values is 33 to 35
  5163                           ; switch strategies available:
  5164                           ; Name         Instructions Cycles
  5165                           ; simple_byte           10     6 (average)
  5166                           ;	Chosen strategy is simple_byte
  5167  0010B0  0A21               	xorlw	33	; case 33
  5168  0010B2  B4D8               	btfsc	status,2,c
  5169  0010B4  D7DF               	goto	l2417
  5170  0010B6  0A03               	xorlw	3	; case 34
  5171  0010B8  B4D8               	btfsc	status,2,c
  5172  0010BA  D7EA               	goto	l2425
  5173  0010BC  0A01               	xorlw	1	; case 35
  5174  0010BE  B4D8               	btfsc	status,2,c
  5175  0010C0  D7F3               	goto	l2433
  5176  0010C2                     l2439:
  5177                           
  5178                           ; BSR set to: 5
  5179                           ;usb_function_hid.c: 200: }
  5180                           ;usb_function_hid.c: 202: if(SetupPkt.RequestType != (0x20>>5))
  5181  0010C2  0105               	movlb	5	; () banked
  5182  0010C4  3900               	swapf	0,w,b	;volatile
  5183  0010C6  32E8               	rrcf	wreg,f,c
  5184  0010C8  0B03               	andlw	3
  5185  0010CA  06E8               	decf	wreg,f,c
  5186  0010CC  A4D8               	btfss	status,2,c
  5187  0010CE  0012               	return	
  5188  0010D0  D020               	goto	l2465
  5189  0010D2                     l2443:
  5190                           
  5191                           ; BSR set to: 5
  5192                           ;usb_function_hid.c: 220: { inPipes[0].pSrc.bRam = (BYTE*)&idle_rate; inPipes[0].wCount.
      +                          Val = 1; inPipes[0].info.Val = 0x40 | 0x80 | 0x01; };
  5193  0010D2  0E39               	movlw	low _idle_rate
  5194  0010D4  6E09               	movwf	_inPipes,c
  5195  0010D6  0E00               	movlw	high _idle_rate
  5196  0010D8  6E0A               	movwf	_inPipes+1,c
  5197                           
  5198                           ; BSR set to: 5
  5199  0010DA  0E00               	movlw	0
  5200  0010DC  6E0E               	movwf	_inPipes+5,c
  5201  0010DE  0E01               	movlw	1
  5202  0010E0  6E0D               	movwf	_inPipes+4,c
  5203                           
  5204                           ; BSR set to: 5
  5205  0010E2  0EC1               	movlw	193
  5206  0010E4  6E0C               	movwf	_inPipes+3,c
  5207                           
  5208                           ;usb_function_hid.c: 224: break;
  5209  0010E6  0012               	return	
  5210  0010E8                     l2449:
  5211                           
  5212                           ; BSR set to: 5
  5213                           ;usb_function_hid.c: 226: inPipes[0].info.Val = 0x00 | 0x80;
  5214  0010E8  0E80               	movlw	128
  5215  0010EA  6E0C               	movwf	_inPipes+3,c
  5216                           
  5217                           ; BSR set to: 5
  5218                           ;usb_function_hid.c: 227: idle_rate = SetupPkt.W_Value.byte.HB;
  5219  0010EC  C503 F039          	movff	1283,_idle_rate	;volatile
  5220                           
  5221                           ;usb_function_hid.c: 228: break;
  5222  0010F0  0012               	return	
  5223  0010F2                     l2453:
  5224                           
  5225                           ; BSR set to: 5
  5226                           ;usb_function_hid.c: 230: { inPipes[0].pSrc.bRam = (BYTE*)&active_protocol; inPipes[0].w
      +                          Count.Val = 1; inPipes[0].info.Val = 0x00 | 0x80 | 0x01; };
  5227  0010F2  0E38               	movlw	low _active_protocol
  5228  0010F4  6E09               	movwf	_inPipes,c
  5229  0010F6  0E00               	movlw	high _active_protocol
  5230  0010F8  6E0A               	movwf	_inPipes+1,c
  5231                           
  5232                           ; BSR set to: 5
  5233  0010FA  0E00               	movlw	0
  5234  0010FC  6E0E               	movwf	_inPipes+5,c
  5235  0010FE  0E01               	movlw	1
  5236  001100  6E0D               	movwf	_inPipes+4,c
  5237                           
  5238                           ; BSR set to: 5
  5239  001102  0E81               	movlw	129
  5240  001104  6E0C               	movwf	_inPipes+3,c
  5241                           
  5242                           ;usb_function_hid.c: 234: break;
  5243  001106  0012               	return	
  5244  001108                     l2459:
  5245                           
  5246                           ; BSR set to: 5
  5247                           ;usb_function_hid.c: 236: inPipes[0].info.Val = 0x00 | 0x80;
  5248  001108  0E80               	movlw	128
  5249  00110A  6E0C               	movwf	_inPipes+3,c
  5250                           
  5251                           ; BSR set to: 5
  5252                           ;usb_function_hid.c: 237: active_protocol = SetupPkt.W_Value.byte.LB;
  5253  00110C  C502 F038          	movff	1282,_active_protocol	;volatile
  5254                           
  5255                           ; BSR set to: 5
  5256                           ;usb_function_hid.c: 239: }
  5257                           
  5258                           ;usb_function_hid.c: 238: break;
  5259  001110  0012               	return	
  5260  001112                     l2465:
  5261                           
  5262                           ; BSR set to: 5
  5263  001112  0105               	movlb	5	; () banked
  5264  001114  5101               	movf	1,w,b	;volatile
  5265                           
  5266                           ; Switch size 1, requested type "space"
  5267                           ; Number of cases is 6, Range of values is 1 to 11
  5268                           ; switch strategies available:
  5269                           ; Name         Instructions Cycles
  5270                           ; simple_byte           19    10 (average)
  5271                           ;	Chosen strategy is simple_byte
  5272  001116  0A01               	xorlw	1	; case 1
  5273  001118  B4D8               	btfsc	status,2,c
  5274  00111A  0012               	return	
  5275  00111C  0A03               	xorlw	3	; case 2
  5276  00111E  B4D8               	btfsc	status,2,c
  5277  001120  D7D8               	goto	l2443
  5278  001122  0A01               	xorlw	1	; case 3
  5279  001124  B4D8               	btfsc	status,2,c
  5280  001126  D7E5               	goto	l2453
  5281  001128  0A0A               	xorlw	10	; case 9
  5282  00112A  B4D8               	btfsc	status,2,c
  5283  00112C  0012               	return	
  5284  00112E  0A03               	xorlw	3	; case 10
  5285  001130  B4D8               	btfsc	status,2,c
  5286  001132  D7DA               	goto	l2449
  5287  001134  0A01               	xorlw	1	; case 11
  5288  001136  A4D8               	btfss	status,2,c
  5289  001138  0012               	return	
  5290  00113A  D7E6               	goto	l2459
  5291  00113C                     __end_of_USBCheckHIDRequest:
  5292                           	opt stack 0
  5293                           tblptru	equ	0xFF8
  5294                           tblptrh	equ	0xFF7
  5295                           tblptrl	equ	0xFF6
  5296                           tablat	equ	0xFF5
  5297                           prodh	equ	0xFF4
  5298                           prodl	equ	0xFF3
  5299                           postinc0	equ	0xFEE
  5300                           wreg	equ	0xFE8
  5301                           indf1	equ	0xFE7
  5302                           postdec1	equ	0xFE5
  5303                           fsr1h	equ	0xFE2
  5304                           fsr1l	equ	0xFE1
  5305                           indf2	equ	0xFDF
  5306                           postinc2	equ	0xFDE
  5307                           postdec2	equ	0xFDD
  5308                           fsr2h	equ	0xFDA
  5309                           fsr2l	equ	0xFD9
  5310                           status	equ	0xFD8
  5311                           
  5312 ;; *************** function _USBStdGetStatusHandler *****************
  5313 ;; Defined at:
  5314 ;;		line 1825 in file "usb_device.c"
  5315 ;; Parameters:    Size  Location     Type
  5316 ;;		None
  5317 ;; Auto vars:     Size  Location     Type
  5318 ;;  p               2    1[COMRAM] PTR struct __BDT
  5319 ;;		 -> BDT(32), 
  5320 ;; Return value:  Size  Location     Type
  5321 ;;                  1    wreg      void 
  5322 ;; Registers used:
  5323 ;;		wreg, fsr2l, fsr2h, status,2, status,0, prodl, prodh
  5324 ;; Tracked objects:
  5325 ;;		On entry : 0/0
  5326 ;;		On exit  : 0/0
  5327 ;;		Unchanged: 0/0
  5328 ;; Data sizes:     COMRAM   BANK0   BANK1  BANK4l
  5329 ;;      Params:         0       0       0       0
  5330 ;;      Locals:         2       0       0       0
  5331 ;;      Temps:          1       0       0       0
  5332 ;;      Totals:         3       0       0       0
  5333 ;;Total ram usage:        3 bytes
  5334 ;; Hardware stack levels used:    1
  5335 ;; This function calls:
  5336 ;;		Nothing
  5337 ;; This function is called by:
  5338 ;;		_USBCheckStdRequest
  5339 ;; This function uses a non-reentrant model
  5340 ;;
  5341                           
  5342                           	psect	text29
  5343  00138C                     __ptext29:
  5344                           	opt stack 0
  5345  00138C                     _USBStdGetStatusHandler:
  5346                           	opt stack 26
  5347                           
  5348                           ;usb_device.c: 1827: CtrlTrfData[0] = 0;
  5349                           
  5350                           ; BSR set to: 5
  5351                           ;incstack = 0
  5352  00138C  0E00               	movlw	0
  5353  00138E  0105               	movlb	5	; () banked
  5354  001390  6F20               	movwf	32,b	;volatile
  5355                           
  5356                           ;usb_device.c: 1828: CtrlTrfData[1] = 0;
  5357  001392  0E00               	movlw	0
  5358  001394  0105               	movlb	5	; () banked
  5359  001396  6F21               	movwf	33,b	;volatile
  5360                           
  5361                           ;usb_device.c: 1830: switch(SetupPkt.Recipient)
  5362  001398  D034               	goto	l2615
  5363  00139A                     l255:
  5364                           
  5365                           ; BSR set to: 5
  5366                           ;usb_device.c: 1838: if(1 == 1)
  5367  00139A  8E0C               	bsf	_inPipes+3,7,c
  5368                           
  5369                           ; BSR set to: 5
  5370                           ;usb_device.c: 1839: {
  5371                           ;usb_device.c: 1840: CtrlTrfData[0]|=0x01;
  5372  00139C  0105               	movlb	5	; () banked
  5373  00139E  8120               	bsf	32,0,b	;volatile
  5374                           
  5375                           ; BSR set to: 5
  5376                           ;usb_device.c: 1841: }
  5377                           ;usb_device.c: 1843: if(RemoteWakeup == TRUE)
  5378                           
  5379                           ; BSR set to: 5
  5380  0013A0  0431               	decf	_RemoteWakeup,w,c
  5381  0013A2  A4D8               	btfss	status,2,c
  5382  0013A4  D03A               	goto	l258
  5383                           
  5384                           ; BSR set to: 5
  5385                           ;usb_device.c: 1844: {
  5386                           ;usb_device.c: 1845: CtrlTrfData[0]|=0x02;
  5387  0013A6  0105               	movlb	5	; () banked
  5388  0013A8  8320               	bsf	32,1,b	;volatile
  5389                           
  5390                           ; BSR set to: 5
  5391                           ;usb_device.c: 1846: }
  5392                           ;usb_device.c: 1847: break;
  5393  0013AA  D037               	goto	l258
  5394  0013AC                     l259:
  5395                           
  5396                           ; BSR set to: 5
  5397                           ;usb_device.c: 1849: inPipes[0].info.bits.busy = 1;
  5398  0013AC  8E0C               	bsf	_inPipes+3,7,c
  5399                           
  5400                           ;usb_device.c: 1850: break;
  5401  0013AE  D035               	goto	l258
  5402  0013B0                     l260:
  5403                           
  5404                           ; BSR set to: 5
  5405                           ;usb_device.c: 1852: inPipes[0].info.bits.busy = 1;
  5406  0013B0  8E0C               	bsf	_inPipes+3,7,c
  5407                           
  5408                           ;usb_device.c: 1856: {
  5409                           ;usb_device.c: 1857: BDT_ENTRY *p;
  5410                           ;usb_device.c: 1859: if(SetupPkt.EPDir == 0)
  5411  0013B2  0105               	movlb	5	; () banked
  5412  0013B4  BF04               	btfsc	4,7,b	;volatile
  5413  0013B6  D00B               	goto	l2607
  5414                           
  5415                           ; BSR set to: 5
  5416                           ;usb_device.c: 1860: {
  5417                           ;usb_device.c: 1861: p = (BDT_ENTRY*)pBDTEntryOut[SetupPkt.EPNum];
  5418  0013B8  0105               	movlb	5	; () banked
  5419  0013BA  5104               	movf	4,w,b	;volatile
  5420  0013BC  0B0F               	andlw	15
  5421  0013BE  6E3A               	movwf	??_USBStdGetStatusHandler& (0+255),c
  5422  0013C0  503A               	movf	??_USBStdGetStatusHandler,w,c
  5423  0013C2  0D02               	mullw	2
  5424  0013C4  0E13               	movlw	low _pBDTEntryOut
  5425  0013C6  24F3               	addwf	prodl,w,c
  5426  0013C8  6ED9               	movwf	fsr2l,c
  5427  0013CA  0E00               	movlw	high _pBDTEntryOut
  5428  0013CC  D00A               	goto	L8
  5429  0013CE                     l2607:
  5430                           
  5431                           ; BSR set to: 5
  5432                           ;usb_device.c: 1863: else
  5433                           ;usb_device.c: 1864: {
  5434                           ;usb_device.c: 1865: p = (BDT_ENTRY*)pBDTEntryIn[SetupPkt.EPNum];
  5435  0013CE  0105               	movlb	5	; () banked
  5436  0013D0  5104               	movf	4,w,b	;volatile
  5437  0013D2  0B0F               	andlw	15
  5438  0013D4  6E3A               	movwf	??_USBStdGetStatusHandler& (0+255),c
  5439  0013D6  503A               	movf	??_USBStdGetStatusHandler,w,c
  5440  0013D8  0D02               	mullw	2
  5441  0013DA  0E0F               	movlw	low _pBDTEntryIn
  5442  0013DC  24F3               	addwf	prodl,w,c
  5443  0013DE  6ED9               	movwf	fsr2l,c
  5444  0013E0  0E00               	movlw	high _pBDTEntryIn
  5445  0013E2                     L8:
  5446  0013E2  20F4               	addwfc	prodh,w,c
  5447  0013E4  6EDA               	movwf	fsr2h,c
  5448  0013E6  CFDE F03B          	movff	postinc2,USBStdGetStatusHandler@p
  5449  0013EA  CFDD F03C          	movff	postdec2,USBStdGetStatusHandler@p+1
  5450                           
  5451                           ; BSR set to: 5
  5452                           ;usb_device.c: 1866: }
  5453                           ;usb_device.c: 1868: if(p->STAT.Val & 0x04)
  5454                           
  5455                           ; BSR set to: 5
  5456  0013EE  C03B  FFD9         	movff	USBStdGetStatusHandler@p,fsr2l
  5457  0013F2  C03C  FFDA         	movff	USBStdGetStatusHandler@p+1,fsr2h
  5458  0013F6  A4DF               	btfss	indf2,2,c
  5459  0013F8  D010               	goto	l258
  5460                           
  5461                           ; BSR set to: 5
  5462                           ;usb_device.c: 1869: CtrlTrfData[0]=0x01;
  5463  0013FA  0E01               	movlw	1
  5464  0013FC  0105               	movlb	5	; () banked
  5465  0013FE  6F20               	movwf	32,b	;volatile
  5466                           
  5467                           ; BSR set to: 5
  5468                           ;usb_device.c: 1871: }
  5469                           ;usb_device.c: 1872: }
  5470                           
  5471                           ; BSR set to: 5
  5472                           ;usb_device.c: 1870: break;
  5473  001400  D00C               	goto	l258
  5474  001402                     l2615:
  5475                           
  5476                           ; BSR set to: 5
  5477  001402  0105               	movlb	5	; () banked
  5478  001404  5100               	movf	0,w,b	;volatile
  5479  001406  0B1F               	andlw	31
  5480                           
  5481                           ; Switch size 1, requested type "space"
  5482                           ; Number of cases is 3, Range of values is 0 to 2
  5483                           ; switch strategies available:
  5484                           ; Name         Instructions Cycles
  5485                           ; simple_byte           10     6 (average)
  5486                           ;	Chosen strategy is simple_byte
  5487  001408  0A00               	xorlw	0	; case 0
  5488  00140A  B4D8               	btfsc	status,2,c
  5489  00140C  D7C6               	goto	l255
  5490  00140E  0A01               	xorlw	1	; case 1
  5491  001410  B4D8               	btfsc	status,2,c
  5492  001412  D7CC               	goto	l259
  5493  001414  0A03               	xorlw	3	; case 2
  5494  001416  B4D8               	btfsc	status,2,c
  5495  001418  D7CB               	goto	l260
  5496  00141A                     l258:
  5497                           
  5498                           ; BSR set to: 5
  5499                           ;usb_device.c: 1874: if(inPipes[0].info.bits.busy == 1)
  5500  00141A  AE0C               	btfss	_inPipes+3,7,c
  5501  00141C  0012               	return	
  5502                           
  5503                           ; BSR set to: 5
  5504                           ;usb_device.c: 1875: {
  5505                           ;usb_device.c: 1876: inPipes[0].pSrc.bRam = (BYTE*)&CtrlTrfData;
  5506  00141E  0E20               	movlw	32
  5507  001420  6E09               	movwf	_inPipes,c
  5508  001422  0E05               	movlw	5
  5509  001424  6E0A               	movwf	_inPipes+1,c
  5510                           
  5511                           ; BSR set to: 5
  5512                           ;usb_device.c: 1877: inPipes[0].info.bits.ctrl_trf_mem = 0x01;
  5513  001426  800C               	bsf	_inPipes+3,0,c
  5514                           
  5515                           ; BSR set to: 5
  5516                           ;usb_device.c: 1878: inPipes[0].wCount.v[0] = 2;
  5517  001428  0E02               	movlw	2
  5518  00142A  6E0D               	movwf	_inPipes+4,c
  5519  00142C  0012               	return	
  5520  00142E                     __end_of_USBStdGetStatusHandler:
  5521                           	opt stack 0
  5522                           tblptru	equ	0xFF8
  5523                           tblptrh	equ	0xFF7
  5524                           tblptrl	equ	0xFF6
  5525                           tablat	equ	0xFF5
  5526                           prodh	equ	0xFF4
  5527                           prodl	equ	0xFF3
  5528                           postinc0	equ	0xFEE
  5529                           wreg	equ	0xFE8
  5530                           indf1	equ	0xFE7
  5531                           postdec1	equ	0xFE5
  5532                           fsr1h	equ	0xFE2
  5533                           fsr1l	equ	0xFE1
  5534                           indf2	equ	0xFDF
  5535                           postinc2	equ	0xFDE
  5536                           postdec2	equ	0xFDD
  5537                           fsr2h	equ	0xFDA
  5538                           fsr2l	equ	0xFD9
  5539                           status	equ	0xFD8
  5540                           
  5541 ;; *************** function _USBStdGetDscHandler *****************
  5542 ;; Defined at:
  5543 ;;		line 1763 in file "usb_device.c"
  5544 ;; Parameters:    Size  Location     Type
  5545 ;;		None
  5546 ;; Auto vars:     Size  Location     Type
  5547 ;;		None
  5548 ;; Return value:  Size  Location     Type
  5549 ;;                  1    wreg      void 
  5550 ;; Registers used:
  5551 ;;		wreg, fsr1l, fsr1h, status,2, status,0, tblptrl, tblptrh, tblptru, prodl, prodh
  5552 ;; Tracked objects:
  5553 ;;		On entry : 0/0
  5554 ;;		On exit  : 0/0
  5555 ;;		Unchanged: 0/0
  5556 ;; Data sizes:     COMRAM   BANK0   BANK1  BANK4l
  5557 ;;      Params:         0       0       0       0
  5558 ;;      Locals:         0       0       0       0
  5559 ;;      Temps:          2       0       0       0
  5560 ;;      Totals:         2       0       0       0
  5561 ;;Total ram usage:        2 bytes
  5562 ;; Hardware stack levels used:    1
  5563 ;; This function calls:
  5564 ;;		Nothing
  5565 ;; This function is called by:
  5566 ;;		_USBCheckStdRequest
  5567 ;; This function uses a non-reentrant model
  5568 ;;
  5569                           
  5570                           	psect	text30
  5571  000E7A                     __ptext30:
  5572                           	opt stack 0
  5573  000E7A                     _USBStdGetDscHandler:
  5574                           	opt stack 26
  5575                           
  5576                           ;usb_device.c: 1765: if(SetupPkt.bmRequestType == 0x80)
  5577                           
  5578                           ; BSR set to: 5
  5579                           ;incstack = 0
  5580  000E7A  0E80               	movlw	128
  5581  000E7C  0105               	movlb	5	; () banked
  5582  000E7E  1900               	xorwf	0,w,b	;volatile
  5583  000E80  A4D8               	btfss	status,2,c
  5584  000E82  0012               	return	
  5585                           
  5586                           ; BSR set to: 5
  5587                           ;usb_device.c: 1766: {
  5588                           ;usb_device.c: 1767: inPipes[0].info.Val = 0x00 | 0x80 | 0x40;
  5589  000E84  0EC0               	movlw	192
  5590  000E86  6E0C               	movwf	_inPipes+3,c
  5591                           
  5592                           ;usb_device.c: 1769: switch(SetupPkt.bDescriptorType)
  5593  000E88  D064               	goto	l2581
  5594  000E8A                     l2561:
  5595                           
  5596                           ; BSR set to: 5
  5597                           ;usb_device.c: 1775: inPipes[0].pSrc.bRom = (const BYTE*)&device_dsc;
  5598  000E8A  0EAD               	movlw	low _device_dsc
  5599  000E8C  6E09               	movwf	_inPipes,c
  5600  000E8E  0E05               	movlw	high _device_dsc
  5601  000E90  6E0A               	movwf	_inPipes+1,c
  5602                           
  5603                           ; BSR set to: 5
  5604                           ;usb_device.c: 1777: inPipes[0].wCount.Val = sizeof(device_dsc);
  5605  000E92  0E00               	movlw	0
  5606  000E94  6E0E               	movwf	_inPipes+5,c
  5607  000E96  0E12               	movlw	18
  5608  000E98  6E0D               	movwf	_inPipes+4,c
  5609                           
  5610                           ;usb_device.c: 1778: break;
  5611  000E9A  0012               	return	
  5612  000E9C                     l2565:
  5613                           
  5614                           ; BSR set to: 5
  5615                           ;usb_device.c: 1783: inPipes[0].pSrc.bRom = *(USB_CD_Ptr+SetupPkt.bDscIndex);
  5616  000E9C  0105               	movlb	5	; () banked
  5617  000E9E  5102               	movf	2,w,b	;volatile
  5618  000EA0  0D02               	mullw	2
  5619  000EA2  0E07               	movlw	low _USB_CD_Ptr
  5620  000EA4  24F3               	addwf	prodl,w,c
  5621  000EA6  6EF6               	movwf	tblptrl,c
  5622  000EA8  0E05               	movlw	high _USB_CD_Ptr
  5623  000EAA  20F4               	addwfc	prodh,w,c
  5624  000EAC  6EF7               	movwf	tblptrh,c
  5625  000EAE                     	if	0	;There are less than 3 active tblptr bytes
  5626  000EAE                     	endif
  5627  000EAE  0009               	tblrd		*+
  5628  000EB0  CFF5 F009          	movff	tablat,_inPipes
  5629  000EB4  000A               	tblrd		*-
  5630  000EB6  CFF5 F00A          	movff	tablat,_inPipes+1
  5631                           
  5632                           ; BSR set to: 5
  5633                           ;usb_device.c: 1785: inPipes[0].wCount.Val = *(inPipes[0].pSrc.wRom+1);
  5634  000EBA  0E02               	movlw	2
  5635  000EBC  2409               	addwf	_inPipes,w,c
  5636  000EBE  6E3A               	movwf	??_USBStdGetDscHandler& (0+255),c
  5637  000EC0  0E00               	movlw	0
  5638  000EC2  200A               	addwfc	_inPipes+1,w,c
  5639  000EC4  6E3B               	movwf	(??_USBStdGetDscHandler+1)& (0+255),c
  5640  000EC6  C03A  FFF6         	movff	??_USBStdGetDscHandler,tblptrl
  5641  000ECA  C03B  FFF7         	movff	??_USBStdGetDscHandler+1,tblptrh
  5642  000ECE  6AF8               	clrf	tblptru,c
  5643  000ED0  0E04               	movlw	(high __ramtop+-1)
  5644  000ED2  64F7               	cpfsgt	tblptrh,c
  5645  000ED4  D007               	bra	u1737
  5646  000ED6  0009               	tblrd		*+
  5647  000ED8  CFF5 F00D          	movff	tablat,_inPipes+4
  5648  000EDC  0009               	tblrd		*+
  5649  000EDE  CFF5 F00E          	movff	tablat,_inPipes+5
  5650  000EE2  D008               	bra	u1730
  5651  000EE4                     u1737:
  5652  000EE4  CFF6 FFE1          	movff	tblptrl,fsr1l
  5653  000EE8  CFF7 FFE2          	movff	tblptrh,fsr1h
  5654  000EEC  CFE6 F00D          	movff	postinc1,_inPipes+4
  5655  000EF0  CFE6 F00E          	movff	postinc1,_inPipes+5
  5656  000EF4                     u1730:
  5657                           
  5658                           ;usb_device.c: 1786: break;
  5659  000EF4  0012               	return	
  5660  000EF6                     l2569:
  5661                           
  5662                           ;usb_device.c: 1791: if(SetupPkt.bDscIndex<3)
  5663  000EF6  0E03               	movlw	3
  5664  000EF8  0105               	movlb	5	; () banked
  5665  000EFA  6102               	cpfslt	2,b	;volatile
  5666  000EFC  D024               	goto	l2575
  5667                           
  5668                           ; BSR set to: 5
  5669                           ;usb_device.c: 1792: {
  5670                           ;usb_device.c: 1794: inPipes[0].pSrc.bRom = *(USB_SD_Ptr+SetupPkt.bDscIndex);
  5671  000EFE  0105               	movlb	5	; () banked
  5672  000F00  5102               	movf	2,w,b	;volatile
  5673  000F02  0D02               	mullw	2
  5674  000F04  0E01               	movlw	low _USB_SD_Ptr
  5675  000F06  24F3               	addwf	prodl,w,c
  5676  000F08  6EF6               	movwf	tblptrl,c
  5677  000F0A  0E05               	movlw	high _USB_SD_Ptr
  5678  000F0C  20F4               	addwfc	prodh,w,c
  5679  000F0E  6EF7               	movwf	tblptrh,c
  5680  000F10                     	if	0	;There are less than 3 active tblptr bytes
  5681  000F10                     	endif
  5682  000F10  0009               	tblrd		*+
  5683  000F12  CFF5 F009          	movff	tablat,_inPipes
  5684  000F16  000A               	tblrd		*-
  5685  000F18  CFF5 F00A          	movff	tablat,_inPipes+1
  5686                           
  5687                           ; BSR set to: 5
  5688                           ;usb_device.c: 1796: inPipes[0].wCount.Val = *inPipes[0].pSrc.bRom;
  5689  000F1C  C009  FFF6         	movff	_inPipes,tblptrl
  5690  000F20  C00A  FFF7         	movff	_inPipes+1,tblptrh
  5691  000F24  6AF8               	clrf	tblptru,c
  5692  000F26  0E04               	movlw	(high __ramtop+-1)
  5693  000F28  64F7               	cpfsgt	tblptrh,c
  5694  000F2A  D003               	bra	u1757
  5695  000F2C  0008               	tblrd		*
  5696  000F2E  50F5               	movf	tablat,w,c
  5697  000F30  D005               	bra	u1750
  5698  000F32                     u1757:
  5699  000F32  CFF6 FFE1          	movff	tblptrl,fsr1l
  5700  000F36  CFF7 FFE2          	movff	tblptrh,fsr1h
  5701  000F3A  50E7               	movf	indf1,w,c
  5702  000F3C                     u1750:
  5703  000F3C  6E3A               	movwf	??_USBStdGetDscHandler& (0+255),c
  5704  000F3E  503A               	movf	??_USBStdGetDscHandler,w,c
  5705  000F40  6E0D               	movwf	_inPipes+4,c
  5706  000F42  6A0E               	clrf	_inPipes+5,c
  5707                           
  5708                           ;usb_device.c: 1797: }
  5709  000F44  0012               	return	
  5710  000F46                     l2575:
  5711                           
  5712                           ;usb_device.c: 1798: else
  5713                           ;usb_device.c: 1799: {
  5714                           ;usb_device.c: 1800: inPipes[0].info.Val = 0;
  5715  000F46  0E00               	movlw	0
  5716  000F48  6E0C               	movwf	_inPipes+3,c
  5717                           
  5718                           ;usb_device.c: 1801: }
  5719                           ;usb_device.c: 1802: break;
  5720  000F4A  0012               	return	
  5721  000F4C                     l2577:
  5722                           
  5723                           ;usb_device.c: 1804: inPipes[0].info.Val = 0;
  5724  000F4C  0E00               	movlw	0
  5725  000F4E  6E0C               	movwf	_inPipes+3,c
  5726                           
  5727                           ;usb_device.c: 1806: }
  5728                           
  5729                           ;usb_device.c: 1805: break;
  5730  000F50  0012               	return	
  5731  000F52                     l2581:
  5732  000F52  0105               	movlb	5	; () banked
  5733  000F54  5103               	movf	3,w,b	;volatile
  5734                           
  5735                           ; Switch size 1, requested type "space"
  5736                           ; Number of cases is 3, Range of values is 1 to 3
  5737                           ; switch strategies available:
  5738                           ; Name         Instructions Cycles
  5739                           ; simple_byte           10     6 (average)
  5740                           ;	Chosen strategy is simple_byte
  5741  000F56  0A01               	xorlw	1	; case 1
  5742  000F58  B4D8               	btfsc	status,2,c
  5743  000F5A  D797               	goto	l2561
  5744  000F5C  0A03               	xorlw	3	; case 2
  5745  000F5E  B4D8               	btfsc	status,2,c
  5746  000F60  D79D               	goto	l2565
  5747  000F62  0A01               	xorlw	1	; case 3
  5748  000F64  B4D8               	btfsc	status,2,c
  5749  000F66  D7C7               	goto	l2569
  5750  000F68  D7F1               	goto	l2577
  5751  000F6A                     __end_of_USBStdGetDscHandler:
  5752                           	opt stack 0
  5753                           tblptru	equ	0xFF8
  5754                           tblptrh	equ	0xFF7
  5755                           tblptrl	equ	0xFF6
  5756                           tablat	equ	0xFF5
  5757                           prodh	equ	0xFF4
  5758                           prodl	equ	0xFF3
  5759                           postinc0	equ	0xFEE
  5760                           wreg	equ	0xFE8
  5761                           indf1	equ	0xFE7
  5762                           postinc1	equ	0xFE6
  5763                           postdec1	equ	0xFE5
  5764                           fsr1h	equ	0xFE2
  5765                           fsr1l	equ	0xFE1
  5766                           indf2	equ	0xFDF
  5767                           postinc2	equ	0xFDE
  5768                           postdec2	equ	0xFDD
  5769                           fsr2h	equ	0xFDA
  5770                           fsr2l	equ	0xFD9
  5771                           status	equ	0xFD8
  5772                           
  5773 ;; *************** function _USBStdFeatureReqHandler *****************
  5774 ;; Defined at:
  5775 ;;		line 1624 in file "usb_device.c"
  5776 ;; Parameters:    Size  Location     Type
  5777 ;;		None
  5778 ;; Auto vars:     Size  Location     Type
  5779 ;;  p               2    3[COMRAM] PTR struct __BDT
  5780 ;;		 -> BDT(32), 
  5781 ;;  pUEP            2    1[COMRAM] PTR unsigned int 
  5782 ;;		 -> UEP0(1), 
  5783 ;; Return value:  Size  Location     Type
  5784 ;;                  1    wreg      void 
  5785 ;; Registers used:
  5786 ;;		wreg, fsr2l, fsr2h, status,2, status,0, prodl, prodh
  5787 ;; Tracked objects:
  5788 ;;		On entry : 0/0
  5789 ;;		On exit  : 0/0
  5790 ;;		Unchanged: 0/0
  5791 ;; Data sizes:     COMRAM   BANK0   BANK1  BANK4l
  5792 ;;      Params:         0       0       0       0
  5793 ;;      Locals:         4       0       0       0
  5794 ;;      Temps:          1       0       0       0
  5795 ;;      Totals:         5       0       0       0
  5796 ;;Total ram usage:        5 bytes
  5797 ;; Hardware stack levels used:    1
  5798 ;; This function calls:
  5799 ;;		Nothing
  5800 ;; This function is called by:
  5801 ;;		_USBCheckStdRequest
  5802 ;; This function uses a non-reentrant model
  5803 ;;
  5804                           
  5805                           	psect	text31
  5806  000C7E                     __ptext31:
  5807                           	opt stack 0
  5808  000C7E                     _USBStdFeatureReqHandler:
  5809                           	opt stack 26
  5810                           
  5811                           ;usb_device.c: 1626: BDT_ENTRY *p;
  5812                           ;usb_device.c: 1630: unsigned int* pUEP;
  5813                           ;usb_device.c: 1664: if((SetupPkt.bFeature == 1)&&
  5814                           ;usb_device.c: 1665: (SetupPkt.Recipient == (0x00)))
  5815                           
  5816                           ;incstack = 0
  5817  000C7E  0105               	movlb	5	; () banked
  5818  000C80  0502               	decf	2,w,b	;volatile
  5819  000C82  A4D8               	btfss	status,2,c
  5820  000C84  D010               	goto	l229
  5821                           
  5822                           ; BSR set to: 5
  5823  000C86  0105               	movlb	5	; () banked
  5824  000C88  5100               	movf	0,w,b	;volatile
  5825  000C8A  0B1F               	andlw	31
  5826  000C8C  0900               	iorlw	0
  5827  000C8E  A4D8               	btfss	status,2,c
  5828  000C90  D00A               	goto	l229
  5829                           
  5830                           ; BSR set to: 5
  5831                           ;usb_device.c: 1666: {
  5832                           ;usb_device.c: 1667: inPipes[0].info.bits.busy = 1;
  5833  000C92  8E0C               	bsf	_inPipes+3,7,c
  5834                           
  5835                           ; BSR set to: 5
  5836                           ;usb_device.c: 1668: if(SetupPkt.bRequest == 3)
  5837  000C94  0E03               	movlw	3
  5838  000C96  0105               	movlb	5	; () banked
  5839  000C98  1901               	xorwf	1,w,b	;volatile
  5840  000C9A  A4D8               	btfss	status,2,c
  5841  000C9C  D002               	goto	l2633
  5842                           
  5843                           ; BSR set to: 5
  5844                           ;usb_device.c: 1669: RemoteWakeup = TRUE;
  5845  000C9E  0E01               	movlw	1
  5846  000CA0  D001               	goto	L9
  5847  000CA2                     l2633:
  5848                           
  5849                           ; BSR set to: 5
  5850                           ;usb_device.c: 1670: else
  5851                           ;usb_device.c: 1671: RemoteWakeup = FALSE;
  5852  000CA2  0E00               	movlw	0
  5853  000CA4                     L9:
  5854  000CA4  6E31               	movwf	_RemoteWakeup,c
  5855  000CA6                     l229:
  5856                           
  5857                           ; BSR set to: 5
  5858                           ;usb_device.c: 1672: }
  5859                           ;usb_device.c: 1674: if((SetupPkt.bFeature == 0)&&
  5860                           ;usb_device.c: 1675: (SetupPkt.Recipient == (0x02))&&
  5861                           ;usb_device.c: 1676: (SetupPkt.EPNum != 0))
  5862  000CA6  0105               	movlb	5	; () banked
  5863  000CA8  5102               	movf	2,w,b	;volatile
  5864  000CAA  A4D8               	btfss	status,2,c
  5865  000CAC  0012               	return	
  5866                           
  5867                           ; BSR set to: 5
  5868  000CAE  0105               	movlb	5	; () banked
  5869  000CB0  5100               	movf	0,w,b	;volatile
  5870  000CB2  0B1F               	andlw	31
  5871  000CB4  0A02               	xorlw	2
  5872  000CB6  A4D8               	btfss	status,2,c
  5873  000CB8  0012               	return	
  5874                           
  5875                           ; BSR set to: 5
  5876  000CBA  0105               	movlb	5	; () banked
  5877  000CBC  5104               	movf	4,w,b	;volatile
  5878  000CBE  0B0F               	andlw	15
  5879  000CC0  0900               	iorlw	0
  5880  000CC2  B4D8               	btfsc	status,2,c
  5881  000CC4  0012               	return	
  5882                           
  5883                           ; BSR set to: 5
  5884                           ;usb_device.c: 1677: {
  5885                           ;usb_device.c: 1678: inPipes[0].info.bits.busy = 1;
  5886  000CC6  8E0C               	bsf	_inPipes+3,7,c
  5887                           
  5888                           ;usb_device.c: 1681: if(SetupPkt.EPDir == 0)
  5889  000CC8  0105               	movlb	5	; () banked
  5890  000CCA  BF04               	btfsc	4,7,b	;volatile
  5891  000CCC  D00B               	goto	l2643
  5892                           
  5893                           ; BSR set to: 5
  5894                           ;usb_device.c: 1682: {
  5895                           ;usb_device.c: 1683: p = (BDT_ENTRY*)pBDTEntryOut[SetupPkt.EPNum];
  5896  000CCE  0105               	movlb	5	; () banked
  5897  000CD0  5104               	movf	4,w,b	;volatile
  5898  000CD2  0B0F               	andlw	15
  5899  000CD4  6E3A               	movwf	??_USBStdFeatureReqHandler& (0+255),c
  5900  000CD6  503A               	movf	??_USBStdFeatureReqHandler,w,c
  5901  000CD8  0D02               	mullw	2
  5902  000CDA  0E13               	movlw	low _pBDTEntryOut
  5903  000CDC  24F3               	addwf	prodl,w,c
  5904  000CDE  6ED9               	movwf	fsr2l,c
  5905  000CE0  0E00               	movlw	high _pBDTEntryOut
  5906  000CE2  D00A               	goto	L10
  5907  000CE4                     l2643:
  5908                           
  5909                           ; BSR set to: 5
  5910                           ;usb_device.c: 1685: else
  5911                           ;usb_device.c: 1686: {
  5912                           ;usb_device.c: 1687: p = (BDT_ENTRY*)pBDTEntryIn[SetupPkt.EPNum];
  5913  000CE4  0105               	movlb	5	; () banked
  5914  000CE6  5104               	movf	4,w,b	;volatile
  5915  000CE8  0B0F               	andlw	15
  5916  000CEA  6E3A               	movwf	??_USBStdFeatureReqHandler& (0+255),c
  5917  000CEC  503A               	movf	??_USBStdFeatureReqHandler,w,c
  5918  000CEE  0D02               	mullw	2
  5919  000CF0  0E0F               	movlw	low _pBDTEntryIn
  5920  000CF2  24F3               	addwf	prodl,w,c
  5921  000CF4  6ED9               	movwf	fsr2l,c
  5922  000CF6  0E00               	movlw	high _pBDTEntryIn
  5923  000CF8                     L10:
  5924  000CF8  20F4               	addwfc	prodh,w,c
  5925  000CFA  6EDA               	movwf	fsr2h,c
  5926  000CFC  CFDE F03D          	movff	postinc2,USBStdFeatureReqHandler@p
  5927  000D00  CFDD F03E          	movff	postdec2,USBStdFeatureReqHandler@p+1
  5928                           
  5929                           ; BSR set to: 5
  5930                           ;usb_device.c: 1688: }
  5931                           ;usb_device.c: 1691: if(SetupPkt.bRequest == 3)
  5932                           
  5933                           ; BSR set to: 5
  5934  000D04  0E03               	movlw	3
  5935  000D06  0105               	movlb	5	; () banked
  5936  000D08  1901               	xorwf	1,w,b	;volatile
  5937  000D0A  A4D8               	btfss	status,2,c
  5938  000D0C  D007               	goto	l2649
  5939                           
  5940                           ; BSR set to: 5
  5941                           ;usb_device.c: 1692: {
  5942                           ;usb_device.c: 1694: p->STAT.Val = 0x80|0x04;
  5943  000D0E  C03D  FFD9         	movff	USBStdFeatureReqHandler@p,fsr2l
  5944  000D12  C03E  FFDA         	movff	USBStdFeatureReqHandler@p+1,fsr2h
  5945  000D16  0E84               	movlw	132
  5946  000D18  6EDF               	movwf	indf2,c
  5947                           
  5948                           ;usb_device.c: 1695: }
  5949  000D1A  0012               	return	
  5950  000D1C                     l2649:
  5951                           
  5952                           ; BSR set to: 5
  5953                           ;usb_device.c: 1696: else
  5954                           ;usb_device.c: 1697: {
  5955                           ;usb_device.c: 1704: pUEP = (unsigned int*)(&UEP0+SetupPkt.EPNum);
  5956  000D1C  0105               	movlb	5	; () banked
  5957  000D1E  5104               	movf	4,w,b	;volatile
  5958  000D20  0B0F               	andlw	15
  5959  000D22  6E3A               	movwf	??_USBStdFeatureReqHandler& (0+255),c
  5960  000D24  503A               	movf	??_USBStdFeatureReqHandler,w,c
  5961  000D26  0D01               	mullw	1
  5962  000D28  0E70               	movlw	112
  5963  000D2A  24F3               	addwf	prodl,w,c
  5964  000D2C  6E3B               	movwf	USBStdFeatureReqHandler@pUEP,c
  5965  000D2E  0E0F               	movlw	15
  5966  000D30  20F4               	addwfc	prodh,w,c
  5967  000D32  6E3C               	movwf	USBStdFeatureReqHandler@pUEP+1,c
  5968                           
  5969                           ; BSR set to: 5
  5970                           ;usb_device.c: 1708: *pUEP &= ~0x0001;
  5971  000D34  C03B  FFD9         	movff	USBStdFeatureReqHandler@pUEP,fsr2l
  5972  000D38  C03C  FFDA         	movff	USBStdFeatureReqHandler@pUEP+1,fsr2h
  5973  000D3C  0EFE               	movlw	254
  5974  000D3E  16DE               	andwf	postinc2,f,c
  5975  000D40  0EFF               	movlw	255
  5976  000D42  16DD               	andwf	postdec2,f,c
  5977                           
  5978                           ; BSR set to: 5
  5979                           ;usb_device.c: 1710: if(SetupPkt.EPDir == 1)
  5980  000D44  0105               	movlb	5	; () banked
  5981  000D46  AF04               	btfss	4,7,b	;volatile
  5982  000D48  D00F               	goto	l2661
  5983                           
  5984                           ; BSR set to: 5
  5985                           ;usb_device.c: 1711: {
  5986                           ;usb_device.c: 1716: p->STAT.Val = 0x00|0x00;
  5987  000D4A  C03D  FFD9         	movff	USBStdFeatureReqHandler@p,fsr2l
  5988  000D4E  C03E  FFDA         	movff	USBStdFeatureReqHandler@p+1,fsr2h
  5989  000D52  0E00               	movlw	0
  5990  000D54  6EDF               	movwf	indf2,c
  5991                           
  5992                           ; BSR set to: 5
  5993                           ;usb_device.c: 1718: ((BYTE_VAL*)&p)->Val ^= 0x0004;
  5994  000D56  0E04               	movlw	4
  5995  000D58  1A3D               	xorwf	USBStdFeatureReqHandler@p,f,c
  5996                           
  5997                           ; BSR set to: 5
  5998                           ;usb_device.c: 1719: p->STAT.Val = 0x00|0x40;
  5999  000D5A  C03D  FFD9         	movff	USBStdFeatureReqHandler@p,fsr2l
  6000  000D5E  C03E  FFDA         	movff	USBStdFeatureReqHandler@p+1,fsr2h
  6001  000D62  0E40               	movlw	64
  6002  000D64  6EDF               	movwf	indf2,c
  6003                           
  6004                           ;usb_device.c: 1723: }
  6005  000D66  0012               	return	
  6006  000D68                     l2661:
  6007                           
  6008                           ; BSR set to: 5
  6009                           ;usb_device.c: 1724: else
  6010                           ;usb_device.c: 1725: {
  6011                           ;usb_device.c: 1733: p->STAT.Val = 0x80|0x00|0x08;
  6012  000D68  C03D  FFD9         	movff	USBStdFeatureReqHandler@p,fsr2l
  6013  000D6C  C03E  FFDA         	movff	USBStdFeatureReqHandler@p+1,fsr2h
  6014  000D70  0E88               	movlw	136
  6015  000D72  6EDF               	movwf	indf2,c
  6016                           
  6017                           ; BSR set to: 5
  6018                           ;usb_device.c: 1735: ((BYTE_VAL*)&p)->Val ^= 0x0004;
  6019  000D74  0E04               	movlw	4
  6020  000D76  1A3D               	xorwf	USBStdFeatureReqHandler@p,f,c
  6021                           
  6022                           ; BSR set to: 5
  6023                           ;usb_device.c: 1736: p->STAT.Val = 0x80|0x40|0x08;
  6024  000D78  C03D  FFD9         	movff	USBStdFeatureReqHandler@p,fsr2l
  6025  000D7C  C03E  FFDA         	movff	USBStdFeatureReqHandler@p+1,fsr2h
  6026  000D80  0EC8               	movlw	200
  6027  000D82  6EDF               	movwf	indf2,c
  6028                           
  6029                           ; BSR set to: 5
  6030                           
  6031                           ; BSR set to: 5
  6032  000D84  0012               	return	
  6033  000D86                     __end_of_USBStdFeatureReqHandler:
  6034                           	opt stack 0
  6035                           tblptru	equ	0xFF8
  6036                           tblptrh	equ	0xFF7
  6037                           tblptrl	equ	0xFF6
  6038                           tablat	equ	0xFF5
  6039                           prodh	equ	0xFF4
  6040                           prodl	equ	0xFF3
  6041                           postinc0	equ	0xFEE
  6042                           wreg	equ	0xFE8
  6043                           indf1	equ	0xFE7
  6044                           postinc1	equ	0xFE6
  6045                           postdec1	equ	0xFE5
  6046                           fsr1h	equ	0xFE2
  6047                           fsr1l	equ	0xFE1
  6048                           indf2	equ	0xFDF
  6049                           postinc2	equ	0xFDE
  6050                           postdec2	equ	0xFDD
  6051                           fsr2h	equ	0xFDA
  6052                           fsr2l	equ	0xFD9
  6053                           status	equ	0xFD8
  6054                           
  6055 ;; *************** function _USBCtrlTrfOutHandler *****************
  6056 ;; Defined at:
  6057 ;;		line 1391 in file "usb_device.c"
  6058 ;; Parameters:    Size  Location     Type
  6059 ;;		None
  6060 ;; Auto vars:     Size  Location     Type
  6061 ;;		None
  6062 ;; Return value:  Size  Location     Type
  6063 ;;                  1    wreg      void 
  6064 ;; Registers used:
  6065 ;;		wreg, fsr1l, fsr1h, fsr2l, fsr2h, status,2, status,0, prodl, prodh, cstack
  6066 ;; Tracked objects:
  6067 ;;		On entry : 0/0
  6068 ;;		On exit  : 0/0
  6069 ;;		Unchanged: 0/0
  6070 ;; Data sizes:     COMRAM   BANK0   BANK1  BANK4l
  6071 ;;      Params:         0       0       0       0
  6072 ;;      Locals:         0       0       0       0
  6073 ;;      Temps:          0       0       0       0
  6074 ;;      Totals:         0       0       0       0
  6075 ;;Total ram usage:        0 bytes
  6076 ;; Hardware stack levels used:    1
  6077 ;; Hardware stack levels required when called:    1
  6078 ;; This function calls:
  6079 ;;		_USBCtrlTrfRxService
  6080 ;;		_USBPrepareForNextSetupTrf
  6081 ;; This function is called by:
  6082 ;;		_USBCtrlEPService
  6083 ;; This function uses a non-reentrant model
  6084 ;;
  6085                           
  6086                           	psect	text32
  6087  00195A                     __ptext32:
  6088                           	opt stack 0
  6089  00195A                     _USBCtrlTrfOutHandler:
  6090                           	opt stack 27
  6091                           
  6092                           ;usb_device.c: 1393: if(controlTransferState == 2)
  6093                           
  6094                           ; BSR set to: 5
  6095                           ;incstack = 0
  6096  00195A  0E02               	movlw	2
  6097  00195C  1833               	xorwf	_controlTransferState,w,c
  6098  00195E  A4D8               	btfss	status,2,c
  6099  001960  D003               	goto	l2837
  6100                           
  6101                           ;usb_device.c: 1394: {
  6102                           ;usb_device.c: 1395: USBCtrlTrfRxService();
  6103  001962  ECC3  F006         	call	_USBCtrlTrfRxService	;wreg free
  6104                           
  6105                           ;usb_device.c: 1396: }
  6106  001966  0012               	return	
  6107  001968                     l2837:
  6108                           
  6109                           ;usb_device.c: 1397: else
  6110                           ;usb_device.c: 1398: {
  6111                           ;usb_device.c: 1404: USBPrepareForNextSetupTrf();
  6112  001968  EC0E  F00D         	call	_USBPrepareForNextSetupTrf	;wreg free
  6113                           
  6114                           ;usb_device.c: 1405: if(BothEP0OutUOWNsSet == FALSE)
  6115  00196C  5030               	movf	_BothEP0OutUOWNsSet,w,c
  6116  00196E  A4D8               	btfss	status,2,c
  6117  001970  D019               	goto	l2845
  6118                           
  6119                           ;usb_device.c: 1406: {
  6120                           ;usb_device.c: 1407: pBDTEntryEP0OutNext->CNT = 8;
  6121  001972  EE20 F001          	lfsr	2,1
  6122  001976  502A               	movf	_pBDTEntryEP0OutNext,w,c
  6123  001978  26D9               	addwf	fsr2l,f,c
  6124  00197A  502B               	movf	_pBDTEntryEP0OutNext+1,w,c
  6125  00197C  22DA               	addwfc	fsr2h,f,c
  6126  00197E  0E08               	movlw	8
  6127  001980  6EDF               	movwf	indf2,c
  6128                           
  6129                           ;usb_device.c: 1408: pBDTEntryEP0OutNext->ADR = (BYTE*)&SetupPkt;
  6130  001982  EE20 F002          	lfsr	2,2
  6131  001986  502A               	movf	_pBDTEntryEP0OutNext,w,c
  6132  001988  26D9               	addwf	fsr2l,f,c
  6133  00198A  502B               	movf	_pBDTEntryEP0OutNext+1,w,c
  6134  00198C  22DA               	addwfc	fsr2h,f,c
  6135  00198E  0E00               	movlw	0
  6136  001990  6EDE               	movwf	postinc2,c
  6137  001992  0E05               	movlw	5
  6138  001994  6EDD               	movwf	postdec2,c
  6139                           
  6140                           ;usb_device.c: 1409: pBDTEntryEP0OutNext->STAT.Val = 0x80|0x00|0x08|0x04;
  6141  001996  C02A  FFD9         	movff	_pBDTEntryEP0OutNext,fsr2l
  6142  00199A  C02B  FFDA         	movff	_pBDTEntryEP0OutNext+1,fsr2h
  6143  00199E  0E8C               	movlw	140
  6144  0019A0  6EDF               	movwf	indf2,c
  6145                           
  6146                           ;usb_device.c: 1410: }
  6147  0019A2  0012               	return	
  6148  0019A4                     l2845:
  6149                           
  6150                           ;usb_device.c: 1411: else
  6151                           ;usb_device.c: 1412: {
  6152                           ;usb_device.c: 1413: BothEP0OutUOWNsSet = FALSE;
  6153  0019A4  0E00               	movlw	0
  6154  0019A6  6E30               	movwf	_BothEP0OutUOWNsSet,c
  6155  0019A8  0012               	return	
  6156  0019AA                     __end_of_USBCtrlTrfOutHandler:
  6157                           	opt stack 0
  6158                           tblptru	equ	0xFF8
  6159                           tblptrh	equ	0xFF7
  6160                           tblptrl	equ	0xFF6
  6161                           tablat	equ	0xFF5
  6162                           prodh	equ	0xFF4
  6163                           prodl	equ	0xFF3
  6164                           postinc0	equ	0xFEE
  6165                           wreg	equ	0xFE8
  6166                           indf1	equ	0xFE7
  6167                           postinc1	equ	0xFE6
  6168                           postdec1	equ	0xFE5
  6169                           fsr1h	equ	0xFE2
  6170                           fsr1l	equ	0xFE1
  6171                           indf2	equ	0xFDF
  6172                           postinc2	equ	0xFDE
  6173                           postdec2	equ	0xFDD
  6174                           fsr2h	equ	0xFDA
  6175                           fsr2l	equ	0xFD9
  6176                           status	equ	0xFD8
  6177                           
  6178 ;; *************** function _USBCtrlTrfRxService *****************
  6179 ;; Defined at:
  6180 ;;		line 2152 in file "usb_device.c"
  6181 ;; Parameters:    Size  Location     Type
  6182 ;;		None
  6183 ;; Auto vars:     Size  Location     Type
  6184 ;;  byteToRead      1    3[COMRAM] unsigned char 
  6185 ;;  i               1    2[COMRAM] unsigned char 
  6186 ;; Return value:  Size  Location     Type
  6187 ;;                  1    wreg      void 
  6188 ;; Registers used:
  6189 ;;		wreg, fsr1l, fsr1h, fsr2l, fsr2h, status,2, status,0, prodl, prodh
  6190 ;; Tracked objects:
  6191 ;;		On entry : 0/0
  6192 ;;		On exit  : 0/0
  6193 ;;		Unchanged: 0/0
  6194 ;; Data sizes:     COMRAM   BANK0   BANK1  BANK4l
  6195 ;;      Params:         0       0       0       0
  6196 ;;      Locals:         2       0       0       0
  6197 ;;      Temps:          2       0       0       0
  6198 ;;      Totals:         4       0       0       0
  6199 ;;Total ram usage:        4 bytes
  6200 ;; Hardware stack levels used:    1
  6201 ;; This function calls:
  6202 ;;		Nothing
  6203 ;; This function is called by:
  6204 ;;		_USBCtrlTrfOutHandler
  6205 ;; This function uses a non-reentrant model
  6206 ;;
  6207                           
  6208                           	psect	text33
  6209  000D86                     __ptext33:
  6210                           	opt stack 0
  6211  000D86                     _USBCtrlTrfRxService:
  6212                           	opt stack 27
  6213                           
  6214                           ;usb_device.c: 2154: BYTE byteToRead;
  6215                           ;usb_device.c: 2155: BYTE i;
  6216                           ;usb_device.c: 2157: byteToRead = pBDTEntryEP0OutCurrent->CNT;
  6217                           
  6218                           ;incstack = 0
  6219  000D86  EE20 F001          	lfsr	2,1
  6220  000D8A  5028               	movf	_pBDTEntryEP0OutCurrent,w,c
  6221  000D8C  26D9               	addwf	fsr2l,f,c
  6222  000D8E  5029               	movf	_pBDTEntryEP0OutCurrent+1,w,c
  6223  000D90  22DA               	addwfc	fsr2h,f,c
  6224  000D92  50DF               	movf	indf2,w,c
  6225  000D94  6E3D               	movwf	USBCtrlTrfRxService@byteToRead,c
  6226                           
  6227                           ;usb_device.c: 2162: if(byteToRead > outPipes[0].wCount.Val)
  6228  000D96  503D               	movf	USBCtrlTrfRxService@byteToRead,w,c
  6229  000D98  5C05               	subwf	_outPipes+4,w,c
  6230  000D9A  0E00               	movlw	0
  6231  000D9C  5806               	subwfb	_outPipes+5,w,c
  6232  000D9E  B0D8               	btfsc	status,0,c
  6233  000DA0  D003               	goto	l2775
  6234                           
  6235                           ;usb_device.c: 2163: {
  6236                           ;usb_device.c: 2164: byteToRead = outPipes[0].wCount.Val;
  6237  000DA2  C005  F03D         	movff	_outPipes+4,USBCtrlTrfRxService@byteToRead
  6238                           
  6239                           ;usb_device.c: 2165: }
  6240  000DA6  D00D               	goto	l2777
  6241  000DA8                     l2775:
  6242                           
  6243                           ;usb_device.c: 2166: else
  6244                           ;usb_device.c: 2167: {
  6245                           ;usb_device.c: 2168: outPipes[0].wCount.Val = outPipes[0].wCount.Val - byteToRead;
  6246  000DA8  503D               	movf	USBCtrlTrfRxService@byteToRead,w,c
  6247  000DAA  6E3A               	movwf	??_USBCtrlTrfRxService& (0+255),c
  6248  000DAC  6A3B               	clrf	(??_USBCtrlTrfRxService+1)& (0+255),c
  6249  000DAE  1E3A               	comf	??_USBCtrlTrfRxService,f,c
  6250  000DB0  1E3B               	comf	??_USBCtrlTrfRxService+1,f,c
  6251  000DB2  4A3A               	infsnz	??_USBCtrlTrfRxService,f,c
  6252  000DB4  2A3B               	incf	??_USBCtrlTrfRxService+1,f,c
  6253  000DB6  5005               	movf	_outPipes+4,w,c
  6254  000DB8  243A               	addwf	??_USBCtrlTrfRxService,w,c
  6255  000DBA  6E05               	movwf	_outPipes+4,c
  6256  000DBC  5006               	movf	_outPipes+5,w,c
  6257  000DBE  203B               	addwfc	??_USBCtrlTrfRxService+1,w,c
  6258  000DC0  6E06               	movwf	_outPipes+5,c
  6259  000DC2                     l2777:
  6260                           
  6261                           ;usb_device.c: 2169: }
  6262                           ;usb_device.c: 2171: for(i=0;i<byteToRead;i++)
  6263  000DC2  0E00               	movlw	0
  6264  000DC4  6E3C               	movwf	USBCtrlTrfRxService@i,c
  6265  000DC6  D011               	goto	l2785
  6266  000DC8                     l2779:
  6267                           
  6268                           ;usb_device.c: 2172: {
  6269                           ;usb_device.c: 2173: *outPipes[0].pDst.bRam++ = CtrlTrfData[i];
  6270  000DC8  503C               	movf	USBCtrlTrfRxService@i,w,c
  6271  000DCA  0D01               	mullw	1
  6272  000DCC  0E20               	movlw	32
  6273  000DCE  24F3               	addwf	prodl,w,c
  6274  000DD0  6ED9               	movwf	fsr2l,c
  6275  000DD2  0E05               	movlw	5
  6276  000DD4  20F4               	addwfc	prodh,w,c
  6277  000DD6  6EDA               	movwf	fsr2h,c
  6278  000DD8  C001  FFE1         	movff	_outPipes,fsr1l
  6279  000DDC  C002  FFE2         	movff	_outPipes+1,fsr1h
  6280  000DE0  CFDF FFE7          	movff	indf2,indf1
  6281  000DE4  4A01               	infsnz	_outPipes,f,c
  6282  000DE6  2A02               	incf	_outPipes+1,f,c
  6283  000DE8  2A3C               	incf	USBCtrlTrfRxService@i,f,c
  6284  000DEA                     l2785:
  6285  000DEA  503D               	movf	USBCtrlTrfRxService@byteToRead,w,c
  6286  000DEC  5C3C               	subwf	USBCtrlTrfRxService@i,w,c
  6287  000DEE  A0D8               	btfss	status,0,c
  6288  000DF0  D7EB               	goto	l2779
  6289                           
  6290                           ;usb_device.c: 2174: }
  6291                           ;usb_device.c: 2177: if(outPipes[0].wCount.Val > 0)
  6292  000DF2  5005               	movf	_outPipes+4,w,c
  6293  000DF4  1006               	iorwf	_outPipes+5,w,c
  6294  000DF6  B4D8               	btfsc	status,2,c
  6295  000DF8  D026               	goto	l2797
  6296                           
  6297                           ;usb_device.c: 2178: {
  6298                           ;usb_device.c: 2184: pBDTEntryEP0OutNext->CNT = 8;
  6299  000DFA  EE20 F001          	lfsr	2,1
  6300  000DFE  502A               	movf	_pBDTEntryEP0OutNext,w,c
  6301  000E00  26D9               	addwf	fsr2l,f,c
  6302  000E02  502B               	movf	_pBDTEntryEP0OutNext+1,w,c
  6303  000E04  22DA               	addwfc	fsr2h,f,c
  6304  000E06  0E08               	movlw	8
  6305  000E08  6EDF               	movwf	indf2,c
  6306                           
  6307                           ;usb_device.c: 2185: pBDTEntryEP0OutNext->ADR = (BYTE*)&CtrlTrfData;
  6308  000E0A  EE20 F002          	lfsr	2,2
  6309  000E0E  502A               	movf	_pBDTEntryEP0OutNext,w,c
  6310  000E10  26D9               	addwf	fsr2l,f,c
  6311  000E12  502B               	movf	_pBDTEntryEP0OutNext+1,w,c
  6312  000E14  22DA               	addwfc	fsr2h,f,c
  6313  000E16  0E20               	movlw	32
  6314  000E18  6EDE               	movwf	postinc2,c
  6315  000E1A  0E05               	movlw	5
  6316  000E1C  6EDD               	movwf	postdec2,c
  6317                           
  6318                           ;usb_device.c: 2186: if(pBDTEntryEP0OutCurrent->STAT.DTS == 0)
  6319  000E1E  C028  FFD9         	movff	_pBDTEntryEP0OutCurrent,fsr2l
  6320  000E22  C029  FFDA         	movff	_pBDTEntryEP0OutCurrent+1,fsr2h
  6321  000E26  BCDF               	btfsc	indf2,6,c
  6322  000E28  D007               	goto	l2795
  6323                           
  6324                           ;usb_device.c: 2187: {
  6325                           ;usb_device.c: 2188: pBDTEntryEP0OutNext->STAT.Val = 0x80|0x40|0x08;
  6326  000E2A  C02A  FFD9         	movff	_pBDTEntryEP0OutNext,fsr2l
  6327  000E2E  C02B  FFDA         	movff	_pBDTEntryEP0OutNext+1,fsr2h
  6328  000E32  0EC8               	movlw	200
  6329  000E34  6EDF               	movwf	indf2,c
  6330                           
  6331                           ;usb_device.c: 2189: }
  6332  000E36  0012               	return	
  6333  000E38                     l2795:
  6334                           
  6335                           ;usb_device.c: 2190: else
  6336                           ;usb_device.c: 2191: {
  6337                           ;usb_device.c: 2192: pBDTEntryEP0OutNext->STAT.Val = 0x80|0x00|0x08;
  6338  000E38  C02A  FFD9         	movff	_pBDTEntryEP0OutNext,fsr2l
  6339  000E3C  C02B  FFDA         	movff	_pBDTEntryEP0OutNext+1,fsr2h
  6340  000E40  0E88               	movlw	136
  6341  000E42  6EDF               	movwf	indf2,c
  6342                           
  6343                           ;usb_device.c: 2193: }
  6344                           ;usb_device.c: 2194: }
  6345  000E44  0012               	return	
  6346  000E46                     l2797:
  6347                           
  6348                           ;usb_device.c: 2195: else
  6349                           ;usb_device.c: 2196: {
  6350                           ;usb_device.c: 2197: pBDTEntryEP0OutNext->CNT = 8;
  6351  000E46  EE20 F001          	lfsr	2,1
  6352  000E4A  502A               	movf	_pBDTEntryEP0OutNext,w,c
  6353  000E4C  26D9               	addwf	fsr2l,f,c
  6354  000E4E  502B               	movf	_pBDTEntryEP0OutNext+1,w,c
  6355  000E50  22DA               	addwfc	fsr2h,f,c
  6356  000E52  0E08               	movlw	8
  6357  000E54  6EDF               	movwf	indf2,c
  6358                           
  6359                           ;usb_device.c: 2198: pBDTEntryEP0OutNext->ADR = (BYTE*)&SetupPkt;
  6360  000E56  EE20 F002          	lfsr	2,2
  6361  000E5A  502A               	movf	_pBDTEntryEP0OutNext,w,c
  6362  000E5C  26D9               	addwf	fsr2l,f,c
  6363  000E5E  502B               	movf	_pBDTEntryEP0OutNext+1,w,c
  6364  000E60  22DA               	addwfc	fsr2h,f,c
  6365  000E62  0E00               	movlw	0
  6366  000E64  6EDE               	movwf	postinc2,c
  6367  000E66  0E05               	movlw	5
  6368  000E68  6EDD               	movwf	postdec2,c
  6369                           
  6370                           ;usb_device.c: 2202: pBDTEntryEP0OutNext->STAT.Val = 0x80|0x04;
  6371  000E6A  C02A  FFD9         	movff	_pBDTEntryEP0OutNext,fsr2l
  6372  000E6E  C02B  FFDA         	movff	_pBDTEntryEP0OutNext+1,fsr2h
  6373  000E72  0E84               	movlw	132
  6374  000E74  6EDF               	movwf	indf2,c
  6375                           
  6376                           ;usb_device.c: 2207: }
  6377                           ;usb_device.c: 2208: outPipes[0].info.bits.busy = 0;
  6378  000E76  9E04               	bcf	_outPipes+3,7,c
  6379  000E78  0012               	return	
  6380  000E7A                     __end_of_USBCtrlTrfRxService:
  6381                           	opt stack 0
  6382                           tblptru	equ	0xFF8
  6383                           tblptrh	equ	0xFF7
  6384                           tblptrl	equ	0xFF6
  6385                           tablat	equ	0xFF5
  6386                           prodh	equ	0xFF4
  6387                           prodl	equ	0xFF3
  6388                           postinc0	equ	0xFEE
  6389                           wreg	equ	0xFE8
  6390                           indf1	equ	0xFE7
  6391                           postinc1	equ	0xFE6
  6392                           postdec1	equ	0xFE5
  6393                           fsr1h	equ	0xFE2
  6394                           fsr1l	equ	0xFE1
  6395                           indf2	equ	0xFDF
  6396                           postinc2	equ	0xFDE
  6397                           postdec2	equ	0xFDD
  6398                           fsr2h	equ	0xFDA
  6399                           fsr2l	equ	0xFD9
  6400                           status	equ	0xFD8
  6401                           
  6402 ;; *************** function _USBCtrlTrfInHandler *****************
  6403 ;; Defined at:
  6404 ;;		line 1441 in file "usb_device.c"
  6405 ;; Parameters:    Size  Location     Type
  6406 ;;		None
  6407 ;; Auto vars:     Size  Location     Type
  6408 ;;  lastDTS         1    4[COMRAM] unsigned char 
  6409 ;; Return value:  Size  Location     Type
  6410 ;;                  1    wreg      void 
  6411 ;; Registers used:
  6412 ;;		wreg, fsr1l, fsr1h, fsr2l, fsr2h, status,2, status,0, tblptrl, tblptrh, tblptru, cstack
  6413 ;; Tracked objects:
  6414 ;;		On entry : 0/0
  6415 ;;		On exit  : 0/0
  6416 ;;		Unchanged: 0/0
  6417 ;; Data sizes:     COMRAM   BANK0   BANK1  BANK4l
  6418 ;;      Params:         0       0       0       0
  6419 ;;      Locals:         1       0       0       0
  6420 ;;      Temps:          0       0       0       0
  6421 ;;      Totals:         1       0       0       0
  6422 ;;Total ram usage:        1 bytes
  6423 ;; Hardware stack levels used:    1
  6424 ;; Hardware stack levels required when called:    1
  6425 ;; This function calls:
  6426 ;;		_USBCtrlTrfTxService
  6427 ;;		_USBPrepareForNextSetupTrf
  6428 ;; This function is called by:
  6429 ;;		_USBCtrlEPService
  6430 ;; This function uses a non-reentrant model
  6431 ;;
  6432                           
  6433                           	psect	text34
  6434  0015E4                     __ptext34:
  6435                           	opt stack 0
  6436  0015E4                     _USBCtrlTrfInHandler:
  6437                           	opt stack 27
  6438                           
  6439                           ;usb_device.c: 1443: BYTE lastDTS;
  6440                           ;usb_device.c: 1445: lastDTS = pBDTEntryIn[0]->STAT.DTS;
  6441                           
  6442                           ;incstack = 0
  6443  0015E4  C00F  FFD9         	movff	_pBDTEntryIn,fsr2l
  6444  0015E8  C010  FFDA         	movff	_pBDTEntryIn+1,fsr2h
  6445  0015EC  0E00               	movlw	0
  6446  0015EE  BCDF               	btfsc	indf2,6,c
  6447  0015F0  0E01               	movlw	1
  6448  0015F2  6E3E               	movwf	USBCtrlTrfInHandler@lastDTS,c
  6449                           
  6450                           ;usb_device.c: 1448: ((BYTE_VAL*)&pBDTEntryIn[0])->Val ^= 0x0004;
  6451  0015F4  0E04               	movlw	4
  6452  0015F6  1A0F               	xorwf	_pBDTEntryIn,f,c
  6453                           
  6454                           ;usb_device.c: 1451: if(USBDeviceState == ADR_PENDING_STATE)
  6455  0015F8  0E08               	movlw	8
  6456  0015FA  1832               	xorwf	_USBDeviceState,w,c
  6457  0015FC  A4D8               	btfss	status,2,c
  6458  0015FE  D009               	goto	l2861
  6459                           
  6460                           ;usb_device.c: 1452: {
  6461                           ;usb_device.c: 1453: UADDR = SetupPkt.bDevADR.Val;
  6462  001600  C502 FF6E          	movff	1282,3950	;volatile
  6463                           
  6464                           ;usb_device.c: 1454: if(UADDR > 0)
  6465  001604  506E               	movf	3950,w,c	;volatile
  6466  001606  B4D8               	btfsc	status,2,c
  6467  001608  D002               	goto	l2859
  6468                           
  6469                           ;usb_device.c: 1455: {
  6470                           ;usb_device.c: 1456: USBDeviceState=ADDRESS_STATE;
  6471  00160A  0E10               	movlw	16
  6472  00160C  D001               	goto	L11
  6473  00160E                     l2859:
  6474                           
  6475                           ;usb_device.c: 1458: else
  6476                           ;usb_device.c: 1459: {
  6477                           ;usb_device.c: 1460: USBDeviceState=DEFAULT_STATE;
  6478  00160E  0E04               	movlw	4
  6479  001610                     L11:
  6480  001610  6E32               	movwf	_USBDeviceState,c
  6481  001612                     l2861:
  6482                           
  6483                           ;usb_device.c: 1461: }
  6484                           ;usb_device.c: 1462: }
  6485                           ;usb_device.c: 1465: if(controlTransferState == 1)
  6486  001612  0433               	decf	_controlTransferState,w,c
  6487  001614  A4D8               	btfss	status,2,c
  6488  001616  D028               	goto	l2877
  6489                           
  6490                           ;usb_device.c: 1466: {
  6491                           ;usb_device.c: 1467: pBDTEntryIn[0]->ADR = (BYTE *)CtrlTrfData;
  6492  001618  EE20 F002          	lfsr	2,2
  6493  00161C  500F               	movf	_pBDTEntryIn,w,c
  6494  00161E  26D9               	addwf	fsr2l,f,c
  6495  001620  5010               	movf	_pBDTEntryIn+1,w,c
  6496  001622  22DA               	addwfc	fsr2h,f,c
  6497  001624  0E20               	movlw	32
  6498  001626  6EDE               	movwf	postinc2,c
  6499  001628  0E05               	movlw	5
  6500  00162A  6EDD               	movwf	postdec2,c
  6501                           
  6502                           ;usb_device.c: 1468: USBCtrlTrfTxService();
  6503  00162C  ECB7  F005         	call	_USBCtrlTrfTxService	;wreg free
  6504                           
  6505                           ;usb_device.c: 1471: if(shortPacketStatus == 2)
  6506  001630  0E02               	movlw	2
  6507  001632  1834               	xorwf	_shortPacketStatus,w,c
  6508  001634  A4D8               	btfss	status,2,c
  6509  001636  D007               	goto	l2871
  6510                           
  6511                           ;usb_device.c: 1472: {
  6512                           ;usb_device.c: 1475: pBDTEntryIn[0]->STAT.Val = 0x80|0x04;
  6513  001638  C00F  FFD9         	movff	_pBDTEntryIn,fsr2l
  6514  00163C  C010  FFDA         	movff	_pBDTEntryIn+1,fsr2h
  6515  001640  0E84               	movlw	132
  6516  001642  6EDF               	movwf	indf2,c
  6517                           
  6518                           ;usb_device.c: 1476: }
  6519  001644  0012               	return	
  6520  001646                     l2871:
  6521                           
  6522                           ;usb_device.c: 1477: else
  6523                           ;usb_device.c: 1478: {
  6524                           ;usb_device.c: 1479: if(lastDTS == 0)
  6525  001646  503E               	movf	USBCtrlTrfInHandler@lastDTS,w,c
  6526  001648  A4D8               	btfss	status,2,c
  6527  00164A  D007               	goto	l2875
  6528                           
  6529                           ;usb_device.c: 1480: {
  6530                           ;usb_device.c: 1481: pBDTEntryIn[0]->STAT.Val = 0x80|0x40|0x08;
  6531  00164C  C00F  FFD9         	movff	_pBDTEntryIn,fsr2l
  6532  001650  C010  FFDA         	movff	_pBDTEntryIn+1,fsr2h
  6533  001654  0EC8               	movlw	200
  6534  001656  6EDF               	movwf	indf2,c
  6535                           
  6536                           ;usb_device.c: 1482: }
  6537  001658  0012               	return	
  6538  00165A                     l2875:
  6539                           
  6540                           ;usb_device.c: 1483: else
  6541                           ;usb_device.c: 1484: {
  6542                           ;usb_device.c: 1485: pBDTEntryIn[0]->STAT.Val = 0x80|0x00|0x08;
  6543  00165A  C00F  FFD9         	movff	_pBDTEntryIn,fsr2l
  6544  00165E  C010  FFDA         	movff	_pBDTEntryIn+1,fsr2h
  6545  001662  0E88               	movlw	136
  6546  001664  6EDF               	movwf	indf2,c
  6547                           
  6548                           ;usb_device.c: 1486: }
  6549                           ;usb_device.c: 1487: }
  6550                           ;usb_device.c: 1488: }
  6551  001666  0012               	return	
  6552  001668                     l2877:
  6553                           
  6554                           ;usb_device.c: 1489: else
  6555                           ;usb_device.c: 1490: {
  6556                           ;usb_device.c: 1491: USBPrepareForNextSetupTrf();
  6557  001668  EC0E  F00D         	call	_USBPrepareForNextSetupTrf	;wreg free
  6558  00166C  0012               	return	
  6559  00166E                     __end_of_USBCtrlTrfInHandler:
  6560                           	opt stack 0
  6561                           tblptru	equ	0xFF8
  6562                           tblptrh	equ	0xFF7
  6563                           tblptrl	equ	0xFF6
  6564                           tablat	equ	0xFF5
  6565                           prodh	equ	0xFF4
  6566                           prodl	equ	0xFF3
  6567                           postinc0	equ	0xFEE
  6568                           wreg	equ	0xFE8
  6569                           indf1	equ	0xFE7
  6570                           postinc1	equ	0xFE6
  6571                           postdec1	equ	0xFE5
  6572                           fsr1h	equ	0xFE2
  6573                           fsr1l	equ	0xFE1
  6574                           indf2	equ	0xFDF
  6575                           postinc2	equ	0xFDE
  6576                           postdec2	equ	0xFDD
  6577                           fsr2h	equ	0xFDA
  6578                           fsr2l	equ	0xFD9
  6579                           status	equ	0xFD8
  6580                           
  6581 ;; *************** function _USBPrepareForNextSetupTrf *****************
  6582 ;; Defined at:
  6583 ;;		line 1513 in file "usb_device.c"
  6584 ;; Parameters:    Size  Location     Type
  6585 ;;		None
  6586 ;; Auto vars:     Size  Location     Type
  6587 ;;  p               2    0[COMRAM] PTR struct __BDT
  6588 ;;		 -> RAM(1279), 
  6589 ;; Return value:  Size  Location     Type
  6590 ;;                  1    wreg      void 
  6591 ;; Registers used:
  6592 ;;		wreg, fsr2l, fsr2h, status,2, status,0
  6593 ;; Tracked objects:
  6594 ;;		On entry : 0/0
  6595 ;;		On exit  : 0/0
  6596 ;;		Unchanged: 0/0
  6597 ;; Data sizes:     COMRAM   BANK0   BANK1  BANK4l
  6598 ;;      Params:         0       0       0       0
  6599 ;;      Locals:         2       0       0       0
  6600 ;;      Temps:          0       0       0       0
  6601 ;;      Totals:         2       0       0       0
  6602 ;;Total ram usage:        2 bytes
  6603 ;; Hardware stack levels used:    1
  6604 ;; This function calls:
  6605 ;;		Nothing
  6606 ;; This function is called by:
  6607 ;;		_USBCtrlTrfOutHandler
  6608 ;;		_USBCtrlTrfInHandler
  6609 ;; This function uses a non-reentrant model
  6610 ;;
  6611                           
  6612                           	psect	text35
  6613  001A1C                     __ptext35:
  6614                           	opt stack 0
  6615  001A1C                     _USBPrepareForNextSetupTrf:
  6616                           	opt stack 27
  6617                           
  6618                           ;usb_device.c: 1515: controlTransferState = 0;
  6619                           
  6620                           ;incstack = 0
  6621  001A1C  0E00               	movlw	0
  6622  001A1E  6E33               	movwf	_controlTransferState,c
  6623                           
  6624                           ;usb_device.c: 1522: pBDTEntryIn[0]->STAT.Val = 0x00;
  6625  001A20  C00F  FFD9         	movff	_pBDTEntryIn,fsr2l
  6626  001A24  C010  FFDA         	movff	_pBDTEntryIn+1,fsr2h
  6627  001A28  0E00               	movlw	0
  6628  001A2A  6EDF               	movwf	indf2,c
  6629                           
  6630                           ;usb_device.c: 1523: {
  6631                           ;usb_device.c: 1524: BDT_ENTRY* p;
  6632                           ;usb_device.c: 1526: p = (BDT_ENTRY*)(((unsigned int)pBDTEntryIn[0])^0x0004);
  6633  001A2C  0E04               	movlw	4
  6634  001A2E  180F               	xorwf	_pBDTEntryIn,w,c
  6635  001A30  6E3A               	movwf	USBPrepareForNextSetupTrf@p,c
  6636  001A32  5010               	movf	_pBDTEntryIn+1,w,c
  6637  001A34  6E3B               	movwf	USBPrepareForNextSetupTrf@p+1,c
  6638                           
  6639                           ;usb_device.c: 1527: p->STAT.Val = 0x00;
  6640  001A36  C03A  FFD9         	movff	USBPrepareForNextSetupTrf@p,fsr2l
  6641  001A3A  C03B  FFDA         	movff	USBPrepareForNextSetupTrf@p+1,fsr2h
  6642  001A3E  0E00               	movlw	0
  6643  001A40  6EDF               	movwf	indf2,c
  6644                           
  6645                           ;usb_device.c: 1528: }
  6646                           ;usb_device.c: 1533: if(outPipes[0].info.bits.busy == 1)
  6647  001A42  AE04               	btfss	_outPipes+3,7,c
  6648  001A44  0012               	return	
  6649                           
  6650                           ;usb_device.c: 1538: }
  6651                           ;usb_device.c: 1539: outPipes[0].info.bits.busy = 0;
  6652  001A46  9E04               	bcf	_outPipes+3,7,c
  6653  001A48  0012               	return	
  6654  001A4A                     __end_of_USBPrepareForNextSetupTrf:
  6655                           	opt stack 0
  6656                           tblptru	equ	0xFF8
  6657                           tblptrh	equ	0xFF7
  6658                           tblptrl	equ	0xFF6
  6659                           tablat	equ	0xFF5
  6660                           prodh	equ	0xFF4
  6661                           prodl	equ	0xFF3
  6662                           postinc0	equ	0xFEE
  6663                           wreg	equ	0xFE8
  6664                           indf1	equ	0xFE7
  6665                           postinc1	equ	0xFE6
  6666                           postdec1	equ	0xFE5
  6667                           fsr1h	equ	0xFE2
  6668                           fsr1l	equ	0xFE1
  6669                           indf2	equ	0xFDF
  6670                           postinc2	equ	0xFDE
  6671                           postdec2	equ	0xFDD
  6672                           fsr2h	equ	0xFDA
  6673                           fsr2l	equ	0xFD9
  6674                           status	equ	0xFD8
  6675                           
  6676 ;; *************** function _USBCtrlTrfTxService *****************
  6677 ;; Defined at:
  6678 ;;		line 2057 in file "usb_device.c"
  6679 ;; Parameters:    Size  Location     Type
  6680 ;;		None
  6681 ;; Auto vars:     Size  Location     Type
  6682 ;;  byteToSend      2    2[COMRAM] struct .
  6683 ;; Return value:  Size  Location     Type
  6684 ;;                  1    wreg      void 
  6685 ;; Registers used:
  6686 ;;		wreg, fsr1l, fsr1h, fsr2l, fsr2h, status,2, status,0, tblptrl, tblptrh, tblptru
  6687 ;; Tracked objects:
  6688 ;;		On entry : 0/0
  6689 ;;		On exit  : 0/0
  6690 ;;		Unchanged: 0/0
  6691 ;; Data sizes:     COMRAM   BANK0   BANK1  BANK4l
  6692 ;;      Params:         0       0       0       0
  6693 ;;      Locals:         2       0       0       0
  6694 ;;      Temps:          2       0       0       0
  6695 ;;      Totals:         4       0       0       0
  6696 ;;Total ram usage:        4 bytes
  6697 ;; Hardware stack levels used:    1
  6698 ;; This function calls:
  6699 ;;		Nothing
  6700 ;; This function is called by:
  6701 ;;		_USBCtrlTrfInHandler
  6702 ;;		_USBCtrlEPServiceComplete
  6703 ;; This function uses a non-reentrant model
  6704 ;;
  6705                           
  6706                           	psect	text36
  6707  000B6E                     __ptext36:
  6708                           	opt stack 0
  6709  000B6E                     _USBCtrlTrfTxService:
  6710                           	opt stack 26
  6711                           
  6712                           ;usb_device.c: 2059: WORD_VAL byteToSend;
  6713                           ;usb_device.c: 2064: if(inPipes[0].wCount.Val < 8)
  6714                           
  6715                           ;incstack = 0
  6716  000B6E  500E               	movf	_inPipes+5,w,c
  6717  000B70  E113               	bnz	l2519
  6718  000B72  0E08               	movlw	8
  6719  000B74  5C0D               	subwf	_inPipes+4,w,c
  6720  000B76  B0D8               	btfsc	status,0,c
  6721  000B78  D00F               	goto	l2519
  6722                           
  6723                           ;usb_device.c: 2065: {
  6724                           ;usb_device.c: 2066: byteToSend.Val = inPipes[0].wCount.Val;
  6725  000B7A  C00D  F03C         	movff	_inPipes+4,USBCtrlTrfTxService@byteToSend
  6726  000B7E  C00E  F03D         	movff	_inPipes+5,USBCtrlTrfTxService@byteToSend+1
  6727                           
  6728                           ;usb_device.c: 2069: if(shortPacketStatus == 0)
  6729  000B82  5034               	movf	_shortPacketStatus,w,c
  6730  000B84  A4D8               	btfss	status,2,c
  6731  000B86  D002               	goto	l2515
  6732                           
  6733                           ;usb_device.c: 2070: {
  6734                           ;usb_device.c: 2071: shortPacketStatus = 1;
  6735  000B88  0E01               	movlw	1
  6736  000B8A  D004               	goto	L12
  6737  000B8C                     l2515:
  6738                           
  6739                           ;usb_device.c: 2073: else if(shortPacketStatus == 1)
  6740  000B8C  0434               	decf	_shortPacketStatus,w,c
  6741  000B8E  A4D8               	btfss	status,2,c
  6742  000B90  D007               	goto	l2521
  6743                           
  6744                           ;usb_device.c: 2074: {
  6745                           ;usb_device.c: 2075: shortPacketStatus = 2;
  6746  000B92  0E02               	movlw	2
  6747  000B94                     L12:
  6748  000B94  6E34               	movwf	_shortPacketStatus,c
  6749                           
  6750                           ;usb_device.c: 2076: }
  6751                           ;usb_device.c: 2078: }
  6752  000B96  D004               	goto	l2521
  6753  000B98                     l2519:
  6754                           
  6755                           ;usb_device.c: 2079: else
  6756                           ;usb_device.c: 2080: {
  6757                           ;usb_device.c: 2081: byteToSend.Val = 8;
  6758  000B98  0E00               	movlw	0
  6759  000B9A  6E3D               	movwf	USBCtrlTrfTxService@byteToSend+1,c
  6760  000B9C  0E08               	movlw	8
  6761  000B9E  6E3C               	movwf	USBCtrlTrfTxService@byteToSend,c
  6762  000BA0                     l2521:
  6763                           
  6764                           ;usb_device.c: 2082: }
  6765                           ;usb_device.c: 2088: pBDTEntryIn[0]->STAT.BC9 = 0;
  6766  000BA0  C00F  FFD9         	movff	_pBDTEntryIn,fsr2l
  6767  000BA4  C010  FFDA         	movff	_pBDTEntryIn+1,fsr2h
  6768  000BA8  92DF               	bcf	indf2,1,c
  6769                           
  6770                           ;usb_device.c: 2089: pBDTEntryIn[0]->STAT.BC8 = 0;
  6771  000BAA  C00F  FFD9         	movff	_pBDTEntryIn,fsr2l
  6772  000BAE  C010  FFDA         	movff	_pBDTEntryIn+1,fsr2h
  6773  000BB2  90DF               	bcf	indf2,0,c
  6774                           
  6775                           ;usb_device.c: 2093: pBDTEntryIn[0]->STAT.Val |= byteToSend.byte.HB;
  6776  000BB4  C00F  FFD9         	movff	_pBDTEntryIn,fsr2l
  6777  000BB8  C010  FFDA         	movff	_pBDTEntryIn+1,fsr2h
  6778  000BBC  503D               	movf	USBCtrlTrfTxService@byteToSend+1,w,c
  6779  000BBE  12DF               	iorwf	indf2,f,c
  6780                           
  6781                           ;usb_device.c: 2094: pBDTEntryIn[0]->CNT = byteToSend.byte.LB;
  6782  000BC0  EE20 F001          	lfsr	2,1
  6783  000BC4  500F               	movf	_pBDTEntryIn,w,c
  6784  000BC6  26D9               	addwf	fsr2l,f,c
  6785  000BC8  5010               	movf	_pBDTEntryIn+1,w,c
  6786  000BCA  22DA               	addwfc	fsr2h,f,c
  6787  000BCC  C03C  FFDF         	movff	USBCtrlTrfTxService@byteToSend,indf2
  6788                           
  6789                           ;usb_device.c: 2104: inPipes[0].wCount.Val = inPipes[0].wCount.Val - byteToSend.Val;
  6790  000BD0  C03C  F03A         	movff	USBCtrlTrfTxService@byteToSend,??_USBCtrlTrfTxService
  6791  000BD4  C03D  F03B         	movff	USBCtrlTrfTxService@byteToSend+1,??_USBCtrlTrfTxService+1
  6792  000BD8  1E3A               	comf	??_USBCtrlTrfTxService,f,c
  6793  000BDA  1E3B               	comf	??_USBCtrlTrfTxService+1,f,c
  6794  000BDC  4A3A               	infsnz	??_USBCtrlTrfTxService,f,c
  6795  000BDE  2A3B               	incf	??_USBCtrlTrfTxService+1,f,c
  6796  000BE0  500D               	movf	_inPipes+4,w,c
  6797  000BE2  243A               	addwf	??_USBCtrlTrfTxService,w,c
  6798  000BE4  6E0D               	movwf	_inPipes+4,c
  6799  000BE6  500E               	movf	_inPipes+5,w,c
  6800  000BE8  203B               	addwfc	??_USBCtrlTrfTxService+1,w,c
  6801  000BEA  6E0E               	movwf	_inPipes+5,c
  6802                           
  6803                           ;usb_device.c: 2106: pDst = ( BYTE*)CtrlTrfData;
  6804  000BEC  0E20               	movlw	32
  6805  000BEE  6E2C               	movwf	_pDst,c
  6806  000BF0  0E05               	movlw	5
  6807  000BF2  6E2D               	movwf	_pDst+1,c
  6808                           
  6809                           ;usb_device.c: 2108: if(inPipes[0].info.bits.ctrl_trf_mem == 0x00)
  6810  000BF4  A00C               	btfss	_inPipes+3,0,c
  6811  000BF6  D01D               	goto	l2545
  6812  000BF8  D03D               	goto	l2555
  6813  000BFA                     l2537:
  6814                           
  6815                           ;usb_device.c: 2111: {
  6816                           ;usb_device.c: 2112: *pDst++ = *inPipes[0].pSrc.bRom++;
  6817  000BFA  C009  FFF6         	movff	_inPipes,tblptrl
  6818  000BFE  C00A  FFF7         	movff	_inPipes+1,tblptrh
  6819  000C02  6AF8               	clrf	tblptru,c
  6820  000C04  C02C  FFD9         	movff	_pDst,fsr2l
  6821  000C08  C02D  FFDA         	movff	_pDst+1,fsr2h
  6822  000C0C  0E04               	movlw	(high __ramtop+-1)
  6823  000C0E  64F7               	cpfsgt	tblptrh,c
  6824  000C10  D003               	bra	u1687
  6825  000C12  0008               	tblrd		*
  6826  000C14  50F5               	movf	tablat,w,c
  6827  000C16  D005               	bra	u1680
  6828  000C18                     u1687:
  6829  000C18  CFF6 FFE1          	movff	tblptrl,fsr1l
  6830  000C1C  CFF7 FFE2          	movff	tblptrh,fsr1h
  6831  000C20  50E7               	movf	indf1,w,c
  6832  000C22                     u1680:
  6833  000C22  6EDF               	movwf	indf2,c
  6834  000C24  4A09               	infsnz	_inPipes,f,c
  6835  000C26  2A0A               	incf	_inPipes+1,f,c
  6836  000C28  4A2C               	infsnz	_pDst,f,c
  6837  000C2A  2A2D               	incf	_pDst+1,f,c
  6838                           
  6839                           ;usb_device.c: 2113: byteToSend.Val--;
  6840  000C2C  063C               	decf	USBCtrlTrfTxService@byteToSend,f,c
  6841  000C2E  A0D8               	btfss	status,0,c
  6842  000C30  063D               	decf	USBCtrlTrfTxService@byteToSend+1,f,c
  6843  000C32                     l2545:
  6844  000C32  503C               	movf	USBCtrlTrfTxService@byteToSend,w,c
  6845  000C34  103D               	iorwf	USBCtrlTrfTxService@byteToSend+1,w,c
  6846  000C36  B4D8               	btfsc	status,2,c
  6847  000C38  0012               	return	
  6848  000C3A  D7DF               	goto	l2537
  6849  000C3C                     l2547:
  6850                           
  6851                           ;usb_device.c: 2119: {
  6852                           ;usb_device.c: 2120: *pDst++ = *inPipes[0].pSrc.bRam++;
  6853  000C3C  C009  FFF6         	movff	_inPipes,tblptrl
  6854  000C40  C00A  FFF7         	movff	_inPipes+1,tblptrh
  6855  000C44  6AF8               	clrf	tblptru,c
  6856  000C46  C02C  FFD9         	movff	_pDst,fsr2l
  6857  000C4A  C02D  FFDA         	movff	_pDst+1,fsr2h
  6858  000C4E  0E04               	movlw	(high __ramtop+-1)
  6859  000C50  64F7               	cpfsgt	tblptrh,c
  6860  000C52  D003               	bra	u1707
  6861  000C54  0008               	tblrd		*
  6862  000C56  50F5               	movf	tablat,w,c
  6863  000C58  D005               	bra	u1700
  6864  000C5A                     u1707:
  6865  000C5A  CFF6 FFE1          	movff	tblptrl,fsr1l
  6866  000C5E  CFF7 FFE2          	movff	tblptrh,fsr1h
  6867  000C62  50E7               	movf	indf1,w,c
  6868  000C64                     u1700:
  6869  000C64  6EDF               	movwf	indf2,c
  6870  000C66  4A09               	infsnz	_inPipes,f,c
  6871  000C68  2A0A               	incf	_inPipes+1,f,c
  6872  000C6A  4A2C               	infsnz	_pDst,f,c
  6873  000C6C  2A2D               	incf	_pDst+1,f,c
  6874                           
  6875                           ;usb_device.c: 2121: byteToSend.Val--;
  6876  000C6E  063C               	decf	USBCtrlTrfTxService@byteToSend,f,c
  6877  000C70  A0D8               	btfss	status,0,c
  6878  000C72  063D               	decf	USBCtrlTrfTxService@byteToSend+1,f,c
  6879  000C74                     l2555:
  6880  000C74  503C               	movf	USBCtrlTrfTxService@byteToSend,w,c
  6881  000C76  103D               	iorwf	USBCtrlTrfTxService@byteToSend+1,w,c
  6882  000C78  B4D8               	btfsc	status,2,c
  6883  000C7A  0012               	return	
  6884  000C7C  D7DF               	goto	l2547
  6885  000C7E                     __end_of_USBCtrlTrfTxService:
  6886                           	opt stack 0
  6887                           tblptru	equ	0xFF8
  6888                           tblptrh	equ	0xFF7
  6889                           tblptrl	equ	0xFF6
  6890                           tablat	equ	0xFF5
  6891                           prodh	equ	0xFF4
  6892                           prodl	equ	0xFF3
  6893                           postinc0	equ	0xFEE
  6894                           wreg	equ	0xFE8
  6895                           indf1	equ	0xFE7
  6896                           postinc1	equ	0xFE6
  6897                           postdec1	equ	0xFE5
  6898                           fsr1h	equ	0xFE2
  6899                           fsr1l	equ	0xFE1
  6900                           indf2	equ	0xFDF
  6901                           postinc2	equ	0xFDE
  6902                           postdec2	equ	0xFDD
  6903                           fsr2h	equ	0xFDA
  6904                           fsr2l	equ	0xFD9
  6905                           status	equ	0xFD8
  6906                           tblptru	equ	0xFF8
  6907                           tblptrh	equ	0xFF7
  6908                           tblptrl	equ	0xFF6
  6909                           tablat	equ	0xFF5
  6910                           prodh	equ	0xFF4
  6911                           prodl	equ	0xFF3
  6912                           postinc0	equ	0xFEE
  6913                           wreg	equ	0xFE8
  6914                           indf1	equ	0xFE7
  6915                           postinc1	equ	0xFE6
  6916                           postdec1	equ	0xFE5
  6917                           fsr1h	equ	0xFE2
  6918                           fsr1l	equ	0xFE1
  6919                           indf2	equ	0xFDF
  6920                           postinc2	equ	0xFDE
  6921                           postdec2	equ	0xFDD
  6922                           fsr2h	equ	0xFDA
  6923                           fsr2l	equ	0xFD9
  6924                           status	equ	0xFD8
  6925                           
  6926                           	psect	rparam
  6927  0000                     tblptru	equ	0xFF8
  6928                           tblptrh	equ	0xFF7
  6929                           tblptrl	equ	0xFF6
  6930                           tablat	equ	0xFF5
  6931                           prodh	equ	0xFF4
  6932                           prodl	equ	0xFF3
  6933                           postinc0	equ	0xFEE
  6934                           wreg	equ	0xFE8
  6935                           indf1	equ	0xFE7
  6936                           postinc1	equ	0xFE6
  6937                           postdec1	equ	0xFE5
  6938                           fsr1h	equ	0xFE2
  6939                           fsr1l	equ	0xFE1
  6940                           indf2	equ	0xFDF
  6941                           postinc2	equ	0xFDE
  6942                           postdec2	equ	0xFDD
  6943                           fsr2h	equ	0xFDA
  6944                           fsr2l	equ	0xFD9
  6945                           status	equ	0xFD8


Data Sizes:
    Strings     0
    Constant    194
    Data        28
    BSS         65
    Persistent  0
    Stack       0

Auto Spaces:
    Space          Size  Autos    Used
    COMRAM           95     34      92
    BANK0           160      0      35
    BANK1           239      0       0
    BANK4l           88      0       0

Pointer List with Targets:

    USER_USB_CALLBACK_EVENT_HANDLER@pdata	PTR void  size(2) Largest target is 1
		 -> USTATcopy(COMRAM[1]), NULL(NULL[0]), USBActiveConfiguration(COMRAM[1]), 

    memset@p1	PTR void  size(2) Largest target is 1
		 -> USBAlternateInterface(COMRAM[1]), UEP1(SFR[1]), 

    memset@p	PTR unsigned char  size(2) Largest target is 1
		 -> USBAlternateInterface(COMRAM[1]), UEP1(SFR[1]), 

    USBInHandle	PTR void  size(2) Largest target is 40
		 -> NULL(NULL[0]), BDT(BIGRAM_1l[32]), 

    USBOutHandle	PTR void  size(2) Largest target is 40
		 -> NULL(NULL[0]), BDT(BIGRAM_1l[32]), 

    sp__USBTransferOnePacket	PTR void  size(2) Largest target is 40
		 -> BDT(BIGRAM_1l[32]), 

    USBTransferOnePacket@handle.ADR	PTR unsigned char  size(2) Largest target is 64
		 -> ToSendDataBuffer(ABS[64]), ReceivedDataBuffer(BIGRAM_1l[64]), CtrlTrfData(ABS[8]), SetupPkt(ABS[8]), 

    USBTransferOnePacket@data	PTR unsigned char  size(2) Largest target is 64
		 -> ToSendDataBuffer(ABS[64]), ReceivedDataBuffer(BIGRAM_1l[64]), 

    USBTransferOnePacket@handle	PTR volatile struct __BDT size(2) Largest target is 40
		 -> BDT(BIGRAM_1l[32]), 

    USBEnableEndpoint@p	PTR unsigned char  size(2) Largest target is 1
		 -> UEP0(SFR[1]), 

    USBConfigureEndpoint@handle	PTR volatile struct __BDT size(2) Largest target is 40
		 -> BDT(BIGRAM_1l[32]), 

    pDst	PTR unsigned char  size(2) Largest target is 8
		 -> CtrlTrfData(ABS[8]), NULL(NULL[0]), 

    USBStdGetStatusHandler@p	PTR struct __BDT size(2) Largest target is 40
		 -> BDT(BIGRAM_1l[32]), 

    USB_SD_Ptr	const PTR const unsigned char [3] size(2) Largest target is 52
		 -> sd002(CODE[42]), sd001(CODE[52]), sd000(CODE[4]), 

    USB_CD_Ptr	const PTR const unsigned char [1] size(2) Largest target is 41
		 -> configDescriptor1(CODE[41]), 

    USBStdFeatureReqHandler@pUEP	PTR unsigned int  size(2) Largest target is 1
		 -> UEP0(SFR[1]), 

    pBDTEntryOut	PTR volatile struct __BDT[2] size(2) Largest target is 40
		 -> BDT(BIGRAM_1l[32]), 

    USBStdFeatureReqHandler@p	PTR struct __BDT size(2) Largest target is 40
		 -> BDT(BIGRAM_1l[32]), 

    USBPrepareForNextSetupTrf@p	PTR struct __BDT size(2) Largest target is 1279
		 -> RAM(DATA[1279]), 

    pBDTEntryIn.ADR	PTR unsigned char  size(2) Largest target is 64
		 -> ToSendDataBuffer(ABS[64]), ReceivedDataBuffer(BIGRAM_1l[64]), CtrlTrfData(ABS[8]), SetupPkt(ABS[8]), 

    pBDTEntryEP0OutNext.ADR	PTR unsigned char  size(2) Largest target is 64
		 -> ToSendDataBuffer(ABS[64]), ReceivedDataBuffer(BIGRAM_1l[64]), CtrlTrfData(ABS[8]), SetupPkt(ABS[8]), 

    pBDTEntryEP0OutCurrent.ADR	PTR unsigned char  size(2) Largest target is 64
		 -> ToSendDataBuffer(ABS[64]), ReceivedDataBuffer(BIGRAM_1l[64]), CtrlTrfData(ABS[8]), SetupPkt(ABS[8]), 

    pBDTEntryEP0OutNext	PTR volatile struct __BDT size(2) Largest target is 40
		 -> NULL(NULL[0]), BDT(BIGRAM_1l[32]), 

    pBDTEntryEP0OutCurrent	PTR volatile struct __BDT size(2) Largest target is 40
		 -> NULL(NULL[0]), BDT(BIGRAM_1l[32]), 

    S61$ADR	PTR unsigned char  size(2) Largest target is 64
		 -> ToSendDataBuffer(ABS[64]), ReceivedDataBuffer(BIGRAM_1l[64]), CtrlTrfData(ABS[8]), SetupPkt(ABS[8]), 

    BDT.ADR	PTR unsigned char  size(2) Largest target is 64
		 -> ToSendDataBuffer(ABS[64]), ReceivedDataBuffer(BIGRAM_1l[64]), CtrlTrfData(ABS[8]), SetupPkt(ABS[8]), 

    pBDTEntryIn	PTR volatile struct __BDT[2] size(2) Largest target is 40
		 -> BDT(BIGRAM_1l[32]), 

    S122$pFunc	PTR FTN()void  size(2) Largest target is 0

    outPipes.pFunc	PTR FTN()void  size(2) Largest target is 0

    S112$wRam	PTR unsigned short  size(2) Largest target is 0

    outPipes.pDst.wRam	PTR unsigned short  size(2) Largest target is 0

    S112$bRam	PTR unsigned char  size(2) Largest target is 0

    outPipes.pDst.bRam	PTR unsigned char  size(2) Largest target is 0

    S70$wRom	PTR const unsigned short  size(2) Largest target is 0

    inPipes.pSrc.wRom	PTR const unsigned short  size(2) Largest target is 0

    S70$wRam	PTR unsigned short  size(2) Largest target is 0

    inPipes.pSrc.wRam	PTR unsigned short  size(2) Largest target is 0

    S70$bRom	PTR const unsigned char  size(2) Largest target is 0

    inPipes.pSrc.bRom	PTR const unsigned char  size(2) Largest target is 0

    S70$bRam	PTR unsigned char  size(2) Largest target is 0

    inPipes.pSrc.bRam	PTR unsigned char  size(2) Largest target is 0

    sp__memset	PTR void  size(2) Largest target is 1
		 -> USBAlternateInterface(COMRAM[1]), UEP1(SFR[1]), 


Critical Paths under _main in COMRAM

    _main->_USBDeviceTasks
    _kodla_gonder->___awdiv
    ___awdiv->___awmod
    _USBDeviceTasks->_USBCtrlEPService
    _USBWakeFromSuspend->_USER_USB_CALLBACK_EVENT_HANDLER
    _USBSuspend->_USER_USB_CALLBACK_EVENT_HANDLER
    _USBDeviceInit->_memset
    _USBCtrlTrfSetupHandler->_USER_USB_CALLBACK_EVENT_HANDLER
    _USBCtrlEPServiceComplete->_USBCtrlTrfTxService
    _USBCheckStdRequest->_USER_USB_CALLBACK_EVENT_HANDLER
    _USBStdSetCfgHandler->_USER_USB_CALLBACK_EVENT_HANDLER
    _USBCBInitEP->_USBEnableEndpoint
    _USBEnableEndpoint->_USBConfigureEndpoint
    _USBCtrlTrfOutHandler->_USBCtrlTrfRxService
    _USBCtrlTrfInHandler->_USBCtrlTrfTxService

Critical Paths under _main in BANK0

    None.

Critical Paths under _main in BANK1

    None.

Critical Paths under _main in BANK4l

    None.

Call Graph Tables:

 ---------------------------------------------------------------------------------
 (Depth) Function   	        Calls       Base Space   Used Autos Params    Refs
 ---------------------------------------------------------------------------------
 (0) _main                                                10    10      0   31449
                                             24 COMRAM    10    10      0
                      _USBDeviceInit
                     _USBDeviceTasks
               _USBTransferOnePacket
                            ___awdiv
                            ___awmod
                       _kodla_gonder
                            _senkron
                            _uyandir
 ---------------------------------------------------------------------------------
 (1) _uyandir                                              3     3      0      68
                                              0 COMRAM     3     3      0
 ---------------------------------------------------------------------------------
 (1) _senkron                                              5     5      0     136
                                              0 COMRAM     5     5      0
 ---------------------------------------------------------------------------------
 (1) _kodla_gonder                                         6     4      2    1214
                                             14 COMRAM     6     4      2
                            ___awdiv
 ---------------------------------------------------------------------------------
 (2) ___awdiv                                              8     4      4    1012
                                              6 COMRAM     8     4      4
                            ___awmod (ARG)
 ---------------------------------------------------------------------------------
 (1) ___awmod                                              6     2      4     652
                                              0 COMRAM     6     2      4
 ---------------------------------------------------------------------------------
 (1) _USBDeviceTasks                                       2     2      0   26194
                                             22 COMRAM     2     2      0
                   _USBCtrlEPService
                      _USBDeviceInit
                    _USBStallHandler
                         _USBSuspend
                 _USBWakeFromSuspend
    _USER_USB_CALLBACK_EVENT_HANDLER
 ---------------------------------------------------------------------------------
 (2) _USBWakeFromSuspend                                   0     0      0    3937
    _USER_USB_CALLBACK_EVENT_HANDLER
 ---------------------------------------------------------------------------------
 (2) _USBSuspend                                           0     0      0    3937
    _USER_USB_CALLBACK_EVENT_HANDLER
 ---------------------------------------------------------------------------------
 (2) _USBStallHandler                                      1     1      0       0
                                              0 COMRAM     1     1      0
 ---------------------------------------------------------------------------------
 (2) _USBDeviceInit                                        1     1      0     965
                                              8 COMRAM     1     1      0
                             _memset
 ---------------------------------------------------------------------------------
 (2) _USBCtrlEPService                                     3     3      0   13372
                                             19 COMRAM     3     3      0
                _USBCtrlTrfInHandler
               _USBCtrlTrfOutHandler
             _USBCtrlTrfSetupHandler
 ---------------------------------------------------------------------------------
 (3) _USBCtrlTrfSetupHandler                               0     0      0   12984
                 _USBCheckStdRequest
           _USBCtrlEPServiceComplete
    _USER_USB_CALLBACK_EVENT_HANDLER
 ---------------------------------------------------------------------------------
 (4) _USBCtrlEPServiceComplete                             0     0      0     115
                _USBCtrlTrfTxService
 ---------------------------------------------------------------------------------
 (4) _USBCheckStdRequest                                   0     0      0    8932
            _USBStdFeatureReqHandler
                _USBStdGetDscHandler
             _USBStdGetStatusHandler
                _USBStdSetCfgHandler
    _USER_USB_CALLBACK_EVENT_HANDLER
 ---------------------------------------------------------------------------------
 (5) _USBStdSetCfgHandler                                  0     0      0    4834
    _USER_USB_CALLBACK_EVENT_HANDLER
                             _memset
 ---------------------------------------------------------------------------------
 (3) _memset                                               8     2      6     897
                                              0 COMRAM     8     2      6
 ---------------------------------------------------------------------------------
 (2) _USER_USB_CALLBACK_EVENT_HANDLER                      8     2      6    3937
                                             11 COMRAM     8     2      6
                 _USBCBCheckOtherReq
                  _USBCBErrorHandler
                        _USBCBInitEP
              _USBCBStdSetDscHandler
                       _USBCBSuspend
               _USBCBWakeFromSuspend
                  _USBCB_SOF_Handler
 ---------------------------------------------------------------------------------
 (3) _USBCB_SOF_Handler                                    0     0      0       0
 ---------------------------------------------------------------------------------
 (3) _USBCBWakeFromSuspend                                 0     0      0       0
 ---------------------------------------------------------------------------------
 (3) _USBCBSuspend                                         0     0      0       0
 ---------------------------------------------------------------------------------
 (3) _USBCBStdSetDscHandler                                0     0      0       0
 ---------------------------------------------------------------------------------
 (3) _USBCBInitEP                                          0     0      0    1779
                  _USBEnableEndpoint
               _USBTransferOnePacket
 ---------------------------------------------------------------------------------
 (1) _USBTransferOnePacket                                 7     3      4    1089
                                              0 COMRAM     7     3      4
 ---------------------------------------------------------------------------------
 (4) _USBEnableEndpoint                                    4     3      1     690
                                              7 COMRAM     4     3      1
               _USBConfigureEndpoint
 ---------------------------------------------------------------------------------
 (5) _USBConfigureEndpoint                                 7     6      1     446
                                              0 COMRAM     7     6      1
 ---------------------------------------------------------------------------------
 (3) _USBCBErrorHandler                                    0     0      0       0
 ---------------------------------------------------------------------------------
 (3) _USBCBCheckOtherReq                                   0     0      0       0
                 _USBCheckHIDRequest
 ---------------------------------------------------------------------------------
 (4) _USBCheckHIDRequest                                   0     0      0       0
 ---------------------------------------------------------------------------------
 (5) _USBStdGetStatusHandler                               3     3      0      24
                                              0 COMRAM     3     3      0
 ---------------------------------------------------------------------------------
 (5) _USBStdGetDscHandler                                  2     2      0       0
                                              0 COMRAM     2     2      0
 ---------------------------------------------------------------------------------
 (5) _USBStdFeatureReqHandler                              5     5      0     137
                                              0 COMRAM     5     5      0
 ---------------------------------------------------------------------------------
 (3) _USBCtrlTrfOutHandler                                 0     0      0     137
                _USBCtrlTrfRxService
          _USBPrepareForNextSetupTrf
 ---------------------------------------------------------------------------------
 (4) _USBCtrlTrfRxService                                  4     4      0     114
                                              0 COMRAM     4     4      0
 ---------------------------------------------------------------------------------
 (3) _USBCtrlTrfInHandler                                  1     1      0     161
                                              4 COMRAM     1     1      0
                _USBCtrlTrfTxService
          _USBPrepareForNextSetupTrf
 ---------------------------------------------------------------------------------
 (4) _USBPrepareForNextSetupTrf                            2     2      0      23
                                              0 COMRAM     2     2      0
 ---------------------------------------------------------------------------------
 (5) _USBCtrlTrfTxService                                  4     4      0     115
                                              0 COMRAM     4     4      0
 ---------------------------------------------------------------------------------
 Estimated maximum stack depth 5
 ---------------------------------------------------------------------------------

 Call Graph Graphs:

 _main (ROOT)
   _USBDeviceInit
     _memset
   _USBDeviceTasks
     _USBCtrlEPService
       _USBCtrlTrfInHandler
         _USBCtrlTrfTxService
         _USBPrepareForNextSetupTrf
       _USBCtrlTrfOutHandler
         _USBCtrlTrfRxService
         _USBPrepareForNextSetupTrf
       _USBCtrlTrfSetupHandler
         _USBCheckStdRequest
           _USBStdFeatureReqHandler
           _USBStdGetDscHandler
           _USBStdGetStatusHandler
           _USBStdSetCfgHandler
             _USER_USB_CALLBACK_EVENT_HANDLER
               _USBCBCheckOtherReq
                 _USBCheckHIDRequest
               _USBCBErrorHandler
               _USBCBInitEP
                 _USBEnableEndpoint
                   _USBConfigureEndpoint
                 _USBTransferOnePacket
               _USBCBStdSetDscHandler
               _USBCBSuspend
               _USBCBWakeFromSuspend
               _USBCB_SOF_Handler
             _memset
           _USER_USB_CALLBACK_EVENT_HANDLER
             _USBCBCheckOtherReq
               _USBCheckHIDRequest
             _USBCBErrorHandler
             _USBCBInitEP
               _USBEnableEndpoint
                 _USBConfigureEndpoint
               _USBTransferOnePacket
             _USBCBStdSetDscHandler
             _USBCBSuspend
             _USBCBWakeFromSuspend
             _USBCB_SOF_Handler
         _USBCtrlEPServiceComplete
           _USBCtrlTrfTxService
         _USER_USB_CALLBACK_EVENT_HANDLER
           _USBCBCheckOtherReq
             _USBCheckHIDRequest
           _USBCBErrorHandler
           _USBCBInitEP
             _USBEnableEndpoint
               _USBConfigureEndpoint
             _USBTransferOnePacket
           _USBCBStdSetDscHandler
           _USBCBSuspend
           _USBCBWakeFromSuspend
           _USBCB_SOF_Handler
     _USBDeviceInit
       _memset
     _USBStallHandler
     _USBSuspend
       _USER_USB_CALLBACK_EVENT_HANDLER
         _USBCBCheckOtherReq
           _USBCheckHIDRequest
         _USBCBErrorHandler
         _USBCBInitEP
           _USBEnableEndpoint
             _USBConfigureEndpoint
           _USBTransferOnePacket
         _USBCBStdSetDscHandler
         _USBCBSuspend
         _USBCBWakeFromSuspend
         _USBCB_SOF_Handler
     _USBWakeFromSuspend
       _USER_USB_CALLBACK_EVENT_HANDLER
         _USBCBCheckOtherReq
           _USBCheckHIDRequest
         _USBCBErrorHandler
         _USBCBInitEP
           _USBEnableEndpoint
             _USBConfigureEndpoint
           _USBTransferOnePacket
         _USBCBStdSetDscHandler
         _USBCBSuspend
         _USBCBWakeFromSuspend
         _USBCB_SOF_Handler
     _USER_USB_CALLBACK_EVENT_HANDLER
       _USBCBCheckOtherReq
         _USBCheckHIDRequest
       _USBCBErrorHandler
       _USBCBInitEP
         _USBEnableEndpoint
           _USBConfigureEndpoint
         _USBTransferOnePacket
       _USBCBStdSetDscHandler
       _USBCBSuspend
       _USBCBWakeFromSuspend
       _USBCB_SOF_Handler
   _USBTransferOnePacket
   ___awdiv
     ___awmod (ARG)
   ___awmod
   _kodla_gonder
     ___awdiv
       ___awmod (ARG)
   _senkron
   _uyandir

 Address spaces:
Name               Size   Autos  Total    Cost      Usage
BIGRAM             1EE      0       0      11        0.0%
BITBANK1            EF      0       0       5        0.0%
BANK1               EF      0       0       6        0.0%
BITBANK0            A0      0       0       3        0.0%
BANK0               A0      0      23       4       21.9%
BITCOMRAM           5F      0       0       0        0.0%
COMRAM              5F     22      5C       1       96.8%
BITBANK4l           58      0       0       7        0.0%
BANK4l              58      0       0       8        0.0%
BIGRAM_1l           58      0       0      10        0.0%
BITSFR_5             0      0       0      40        0.0%
SFR_5                0      0       0      40        0.0%
BITSFR_4             0      0       0      40        0.0%
SFR_4                0      0       0      40        0.0%
BITSFR_3             0      0       0      40        0.0%
SFR_3                0      0       0      40        0.0%
BITSFR_2             0      0       0      40        0.0%
SFR_2                0      0       0      40        0.0%
BITSFR_1             0      0       0      40        0.0%
SFR_1                0      0       0      40        0.0%
BITSFR               0      0       0      40        0.0%
SFR                  0      0       0      40        0.0%
STACK                0      0       0       2        0.0%
NULL                 0      0       0       0        0.0%
ABS                  0      0      7F       9        0.0%
DATA                 0      0      7F      12        0.0%
CODE                 0      0       0       0        0.0%


Microchip Technology PIC18 Macro Assembler V1.37 build -260352376 
Symbol Table                                                                                   Sat Mar 14 21:41:26 2020

                              _USB_SD_Ptr 0501                                         _a 0022  
                            ___awdiv@sign 0045                             _USBDeviceInit 14CA  
                      __CFG_FOSC$XTPLL_XT 000000                        _USBCheckHIDRequest 1054  
    USER_USB_CALLBACK_EVENT_HANDLER@event 0045      USER_USB_CALLBACK_EVENT_HANDLER@pdata 0047  
                                     l214 114C                                       l150 0B2E  
                                     l142 0A88                                       l223 119A  
                                     l136 0A54                                       l137 0A52  
                                     l260 13B0                                       l148 0B1E  
                                     l229 0CA6                                       l149 0B6A  
             __end_of_USBStdGetDscHandler 0F6A                                       l430 171E  
                                     l255 139A                                       l258 141A  
                                     l259 13AC                                       l268 0930  
                                     l524 18A0                                       l535 1378  
                                     l571 074A                                       l573 0876  
                                     l549 060E                                       l574 07DA  
                                     _BDT 000400                                       _RC0 007C10  
                                     _RB2 007C0A                                       _RC1 007C11  
                                     _RD0 007C18                                       _RC2 007C12  
                                     _SE0 007B6D                                       _UIE 000F69  
                                     _UIR 000F68                                _USBSuspend 1ACA  
                            __CFG_BORV$21 000000                              ___awmod@sign 003F  
                                     prod 000FF3                                       wreg 000FE8  
                          _USBDeviceTasks 0A36                       ?_USBCheckHIDRequest 003A  
                          _USBDeviceState 0032                    ??_USBCBWakeFromSuspend 003A  
                   ??_USBCtrlTrfRxService 003A                  USBEnableEndpoint@options 0041  
                            __CFG_WDT$OFF 000000                                      l3001 16B0  
                                    l3011 16D0                                      l3003 16B4  
                                    l3111 0B26                                      l3015 16DA  
                                    l3105 0B14                                      l3123 0B4A  
                                    l3019 16E8                                      l3125 0B66  
                                    l3037 0A5C                                      l3221 1792  
                                    l3205 103E                                      l2423 108A  
                                    l3055 0A80                                      l3047 0A74  
                                    l3151 12F4                                      l3135 1866  
                                    l3311 06AE                                      l2521 0BA0  
                                    l2433 10A8                                      l2425 1090  
                                    l2417 1074                                      l3241 17D8  
                                    l3233 17C0                                      l3225 17A0  
                                    l3217 1786                                      l3153 1310  
                                    l3137 1882                                      l3313 06B6  
                                    l2515 0B8C                                      l2443 10D2  
                                    l2363 15B2                                      l3091 0AE6  
                                    l3083 0AC2                                      l3075 0AB6  
                                    l3227 17A8                                      l3147 12E4  
                                    l3331 070E                                      l3323 06E8  
              USBConfigureEndpoint@handle 003F                                      l2453 10F2  
                                    l2437 10AC                                      l3229 17AC  
                                    l3237 17CA                                      l3165 133E  
                                    l3325 06F0                                      l2519 0B98  
                                    l2607 13CE                                      l2615 1402  
                                    l2439 10C2                                      l2703 11D2  
                                    l3167 135A                                      l3159 1326  
                                    l3335 0724                                      l2537 0BFA  
                                    l2545 0C32                                      l2633 0CA2  
                                    l2561 0E8A                                      l2449 10E8  
                                    l2465 1112                                      l2377 19D6  
                                    l2385 1444                                      l2481 16F4  
                                    l2473 1A54                                      l2721 08F2  
                                    l3097 0AF0                                      l3193 0FFC  
                                    l3177 0F74                                      l3185 0FC6  
                                    l3345 074C                                      l2547 0C3C  
                                    l2555 0C74                                      l2643 0CE4  
                                    l2459 1108                                      l3435 173A  
                                    l2491 1712                                      l2483 16FA  
                                    l3339 0738                                      l2661 0D68  
                                    l2565 0E9C                                      l2581 0F52  
                                    l3437 1768                                      l2493 1718  
                                    l2485 1700                                      l2477 1A64  
                                    l2733 0952                                      l2901 1530  
                                    l3197 100C                                      l2575 0F46  
                                    l2399 14AC                                      l2487 1706  
                                    l2903 1532                                      l3199 1028  
                                    l3367 0848                                      l2649 0D1C  
                                    l2577 0F4C                                      l2569 0EF6  
                                    l2489 170C                                      l2497 1722  
                                    l2593 182C                                      l2673 1154  
                                    l2921 1A98                                      l3369 0850  
                                    l2675 115A                                      l2819 1920  
                                    l2923 1A9A                                      l2861 1612  
                                    l2845 19A4                                      l2837 1968  
                                    l2685 1172                                      l2677 1160  
                                    l2757 09E4                                      l2941 1A16  
                                    l2871 1646                                      l2775 0DA8  
                                    l2687 1178                                      l2943 1A18  
                                    l2785 0DEA                                      l2777 0DC2  
                                    l2689 117E                                      l2961 1290  
                                    l2875 165A                                      l2859 160E  
                                    l2795 0E38                                      l2779 0DC8  
                                    l2699 11B4                                      l2971 12C0  
                                    l2877 1668                                      l2797 0E46  
                                    l2965 1298                                      l2973 12C6  
                                    l2893 150E                                      l2975 12CC  
                                    l2889 1506                                      l2993 1692  
                                    l2899 152A                                      l2987 1682  
                                    l2999 16A8                                      _ADFM 007E07  
                                    _ADON 007E10                                      _CHS0 007E12  
                                    _CHS1 007E13                                      _CHS2 007E14  
                                    u3007 05CA                                      u3017 0602  
                                    u3107 102E                                      u3027 07CE  
                                    u1700 0C64                                      u3117 1044  
                                    u3037 1888                                      u3047 18A8  
                                    u2600 1358                                      u2520 1880  
                                    u3057 1316                                      u1730 0EF4  
                                    u1707 0C5A                                      u3067 1360  
                                    u2620 1378                                      u2540 18A0  
                                    u3077 1380                                      u1750 0F3C  
                                    u3087 0FD8                                      u1680 0C22  
                                    u2560 130E                                      u1737 0EE4  
                                    u3097 0FE8                                      u2650 1026  
                                    u2820 070A                                      u1757 0F32  
                                    u1687 0C18                                      u2850 0720  
                                    u2950 083E                                      u2790 06DE  
                                    u2880 0736                                      u2958 0840  
                                    u2798 06E0                     ??_USBCtrlTrfTxService 003A  
                                    _UCFG 000F6F                                      _UEP0 000F70  
                                    _UEP1 000F71                                      _UEIE 000F6B  
                                    _UEIR 000F6A                                      _UCON 000F6D  
      __size_of_USBPrepareForNextSetupTrf 002E                                      _pDst 002C  
                                    _main 05C4                                      _senk 0060  
                                    _sayi 002E                                      fsr1h 000FE2  
                                    fsr2h 000FDA                                      indf1 000FE7  
                                    fsr1l 000FE1                                      indf2 000FDF  
                                    fsr2l 000FD9                                      _uyan 0072  
                                    prodh 000FF4                                      prodl 000FF3  
                                    start 0002                        _USBCBCheckOtherReq 1B0A  
                    ??_USBCheckHIDRequest 003A                __end_of_USBCheckStdRequest 1216  
                  ??_USBCtrlTrfOutHandler 003E                             __CFG_MCLRE$ON 000000  
                            ___param_bank 000010                 ??_USBStdFeatureReqHandler 003A  
                            _USBOutHandle 0020                  ??_USBStdGetStatusHandler 003A  
                          ?_USBDeviceInit 003A                       ?_USBCBCheckOtherReq 003A  
                           __CFG_PLLDIV$1 000000                                     _ADCS0 007E00  
                                   _ADCS1 007E01                                     _ADCS2 007E02  
                                   ?_main 003A                           __end_of___awdiv 16F2  
                         __end_of___awmod 17E2         __size_of_USBCtrlEPServiceComplete 01A0  
                         ___awdiv@divisor 0042                    __end_of_USBDeviceTasks 0B6E  
               ?_USBCtrlEPServiceComplete 003A                                     _PCFG0 007E08  
                                   _PCFG1 007E09                                     _PCFG2 007E0A  
                                   _PCFG3 007E0B                                     _UADDR 000F6E  
                         ___awdiv@counter 0044                                     _PORTB 000F81  
                                   _PORTC 000F82                                     _PORTD 000F83  
                                   _PORTE 000F84                             __CFG_USBDIV$2 000000  
                                   _TRISB 000F93                                     _TRISC 000F94  
                                   _TRISD 000F95                                     _TRISE 000F96  
                                   _USTAT 000F6C                             __CFG_PWRT$OFF 000000  
                          __CFG_FCMEN$OFF 000000                                     _sd000 05BF  
                                   _sd001 0509                                     _sd002 053D  
                                   _bolum 0024                                     _index 0026  
                                   _senk1 0069                      ??_USBCBCheckOtherReq 003A  
                        kodla_gonder@sayi 0048                                     tablat 000FF5  
                         __end_of_senkron 138C                                     status 000FD8  
                         __end_of_uyandir 18B4              __size_of_USBStdSetCfgHandler 006C  
                         __initialization 18B4                              __end_of_main 0896  
               __size_of_USBCtrlEPService 00C6                                    ??_main 0052  
                           __activetblptr 000002                           ?_USBDeviceTasks 003A  
                             ?_USBSuspend 003A                                    _ADRESH 000FC4  
                                  _ADRESL 000FC3                          ___awdiv@dividend 0040  
                                  _PKTDIS 007B6C                                    _RESUME 007B6A  
                           ?_kodla_gonder 0048                                    _SUSPND 007B69  
                          __CFG_VREGEN$ON 000000                         _shortPacketStatus 0034  
          USBConfigureEndpoint@workaround 003D                           USBDeviceTasks@i 0051  
             USBStdFeatureReqHandler@pUEP 003B                  USBTransferOnePacket@data 003B  
              USBCtrlTrfInHandler@lastDTS 003E                           ??_USBDeviceInit 0042  
                               ??___awdiv 0044                                 ??___awmod 003E  
                            ?_USBCBInitEP 003A                         _USBEnableEndpoint 19AA  
         __size_of_USBStdGetStatusHandler 00A2                                    _memset 1A4A  
                                  clear_0 18BA                                    clear_1 18C6  
                        ___awdiv@quotient 0046                           ___awmod@divisor 003C  
                         ___awmod@counter 003E                        ?_USBEnableEndpoint 0041  
                   _USBCBStdSetDscHandler 1B16                             main@tempature 005A  
           __size_of_USBTransferOnePacket 009C                              __pdataCOMRAM 005C  
                            __mediumconst 0000                                    tblptrh 000FF7  
                                  tblptrl 000FF6                                    tblptru 000FF8  
                               ??_senkron 003A                       ??_USBEnableEndpoint 0042  
                      _USBInMaxPacketSize 001E                               _CtrlTrfData 000520  
                               ??_uyandir 003A                      _controlTransferState 0033  
                          ??_kodla_gonder 004A                                __accesstop 0060  
                 __end_of__initialization 18FE                           __CFG_PBADEN$OFF 000000  
                           ___rparam_used 000001                  __size_of_USBStallHandler 0036  
                     __size_of_USBSuspend 0024                            __pcstackCOMRAM 003A  
               __end_of_USBEnableEndpoint 19E6                             __end_of_sd000 05C3  
                           __end_of_sd001 053D                             __end_of_sd002 0567  
                            __pidataBANK0 1AEE                         _USBCB_SOF_Handler 1B10  
                         _active_protocol 0038             __size_of_USBConfigureEndpoint 008A  
             __end_of_USBCtrlTrfInHandler 166E                        ?_USBCB_SOF_Handler 003A  
                     ??_USBCB_SOF_Handler 003A                  ??_USBCtrlTrfSetupHandler 004D  
                  _USBStdGetStatusHandler 138C                                __pbssBANK0 007B  
             __size_of_USBWakeFromSuspend 002A                               _pBDTEntryIn 000F  
        __end_of_USBCtrlEPServiceComplete 0A36                 __end_of_USBCB_SOF_Handler 1B12  
                    USBCtrlTrfRxService@i 003C                                   ?_memset 003A  
                  ?_USBCBStdSetDscHandler 003A                                _device_dsc 05AD  
                        _USBCtrlEPService 1216                                _gelen_veri 007B  
             __end_of_USBCtrlTrfRxService 0E7A                        _USBCheckStdRequest 113C  
                       _configDescriptor1 0567                                   _GO_DONE 007E11  
             __end_of_USBCtrlTrfTxService 0C7E                       _USBStdSetCfgHandler 17E2  
                     ?_USBCheckStdRequest 003A              __size_of_USBStdGetDscHandler 00F0  
                                 _UIEbits 000F69             __size_of_USBCBWakeFromSuspend 0002  
                                 _UIRbits 000F68                                   __Hparam 0000  
                    ?_USBStdSetCfgHandler 003A               __size_of_USBCheckHIDRequest 00E8  
                                 __Lparam 0000                         __end_of_hid_rpt01 05AD  
              __size_of_USBEnableEndpoint 003C                      ??_USBCheckStdRequest 004D  
           __size_of_USBCtrlTrfOutHandler 0050                                   ___awdiv 166E  
                        _ToSendDataBuffer 0004C0                                   ___awmod 1772  
                        ??_USBDeviceTasks 0050                         ??_USBStallHandler 003A  
                            __psmallconst 0500                                   __pcinit 18B4  
                         __size_of_memset 002C                 __end_of_configDescriptor1 0590  
                                 __ramtop 0500                      __size_of_USBCBInitEP 002A  
                                 __ptext0 05C4                                   __ptext1 184E  
                                 __ptext2 12DC                                   __ptext3 0F6A  
                                 __ptext4 166E                                   __ptext5 1772  
                                 __ptext6 0A36                                   __ptext7 1A76  
                                 __ptext8 1ACA                                   __ptext9 19E6  
                    __end_of_kodla_gonder 1054                                   _inPipes 0009  
                            ??_USBSuspend 004D                         _USBCBErrorHandler 1B18  
                        ___awmod@dividend 003A                                   _senkron 12DC  
                      ?_USBCBErrorHandler 003A                             ?_USBCBSuspend 003A  
                      __end_of_USB_CD_Ptr 0509           __size_of_USBCtrlTrfSetupHandler 0052  
                                 main@say 0054                                   _uyandir 184E  
                    end_of_initialization 18FE               __size_of_USBCBCheckOtherReq 0006  
                      __end_of_USB_SD_Ptr 0507                       _pBDTEntryEP0OutNext 002A  
                     ??_USBCBErrorHandler 003A                                   memset@c 003C  
                                 memset@n 003E                                   memset@p 0040  
                           __Lmediumconst 0000                  ?_USBStdFeatureReqHandler 003A  
              ?_USBPrepareForNextSetupTrf 003A                     ??_USBStdSetCfgHandler 004D  
              __size_of_USBCB_SOF_Handler 0002                        __end_of_USBSuspend 1AEE  
                                 postdec1 000FE5                                   postdec2 000FDD  
                                 postinc0 000FEE                                   postinc1 000FE6  
                                 postinc2 000FDE                  _USBCtrlEPServiceComplete 0896  
                      USBEnableEndpoint@p 0042                 __end_of_USBCBErrorHandler 1B1A  
                               _USBInData 0017                            ??_USBCBSuspend 003A  
                      _ReceivedDataBuffer 000480                        _BothEP0OutUOWNsSet 0030  
               USBConfigureEndpoint@EPNum 003E       USER_USB_CALLBACK_EVENT_HANDLER@size 0049  
                               _USTATcopy 0037              __end_of_USBTransferOnePacket 14CA  
       __end_of_USBPrepareForNextSetupTrf 1A4A                    _USBCtrlTrfSetupHandler 1908  
                   __end_of_USBDeviceInit 155A                             __pidataCOMRAM 1B1A  
                          __end_of_memset 1A76                       start_initialization 18B4  
                 ?_USBStdGetStatusHandler 003A             USBCtrlTrfRxService@byteToRead 003D  
            __end_of_USBConfigureEndpoint 15E4           __end_of_USBStdFeatureReqHandler 0D86  
                __end_of_USBCtrlEPService 12DC                            USBDeviceInit@i 0042  
                  _pBDTEntryEP0OutCurrent 0028                   USBTransferOnePacket@dir 003A  
                 USBTransferOnePacket@len 003D                   ??_USBCBStdSetDscHandler 003A  
                   __size_of_kodla_gonder 00EA                       _USBStdGetDscHandler 0E7A  
                             __pdataBANK0 0060                                  ??_memset 0040  
              __size_of_USBCBErrorHandler 0002                USBPrepareForNextSetupTrf@p 003A  
                  _USBActiveConfiguration 0035            __end_of_USBStdGetStatusHandler 142E  
                             __pbssCOMRAM 0001              __size_of_USBCtrlTrfInHandler 008A  
                    ?_USBStdGetDscHandler 003A                __end_of_USBWakeFromSuspend 1AA0  
                         _USBStallHandler 19E6                              _kodla_gonder 0F6A  
                            _pBDTEntryOut 0013                                 _main$1809 0056  
                               _main$1845 0058                      __end_of_USBCBSuspend 1B16  
            __end_of_USBCBWakeFromSuspend 1B14                                  ?___awdiv 0040  
                                ?___awmod 003A                                 _hid_rpt01 0590  
                               _idle_rate 0039                USBCBSendResume@delay_count 001A  
                    _USBTransferOnePacket 142E                               __smallconst 0500  
                                ?_senkron 003A              __end_of_USBCtrlTrfOutHandler 19AA  
                   ??_USBStdGetDscHandler 003A              __size_of_USBCtrlTrfRxService 00F4  
           USBConfigureEndpoint@direction 003A                                  ?_uyandir 003A  
            __size_of_USBCtrlTrfTxService 0110                __end_of_USBCheckHIDRequest 113C  
              ??_USBCtrlEPServiceComplete 003E               ??_USBPrepareForNextSetupTrf 003A  
                                _PIR2bits 000FA1                 USBCtrlEPService@setup_cnt 004F  
                        __CFG_WDTPS$32768 000000                                  _UEP0bits 000F70  
                           ??_USBCBInitEP 0045               __size_of_USBCheckStdRequest 00DA  
                                _UCONbits 000F6D                      _USBConfigureEndpoint 155A  
        __size_of_USBStdFeatureReqHandler 0108                     ?_USBTransferOnePacket 003A  
                            _RemoteWakeup 0031                __end_of_USBCBCheckOtherReq 1B10  
                 __end_of_USBStallHandler 1A1C                             senkron@a_1762 003D  
                               copy_data0 18E0               __end_of_USBStdSetCfgHandler 184E  
                          _hid_report_out 000530                        __end_of_device_dsc 05BF  
                 ?_USBCtrlTrfSetupHandler 003A                   USBStdGetStatusHandler@p 003B  
                                __Hrparam 0000                                  __Lrparam 0000  
                  USBTransferOnePacket@ep 003E                                  _SetupPkt 000500  
                   ?_USBConfigureEndpoint 003A                          __size_of___awdiv 0084  
                        __size_of___awmod 0070                          _blinkStatusValid 005C  
               _USBPrepareForNextSetupTrf 1A1C                       __end_of_USBCBInitEP 1ACA  
                 __size_of_USBDeviceTasks 0138                                  __ptext10 14CA  
                                __ptext11 1216                                  __ptext20 1B14  
                                __ptext12 1908                                  __ptext21 1B16  
                                __ptext13 0896                                  __ptext30 0E7A  
                                __ptext22 1AA0                                  __ptext14 113C  
                                __ptext31 0C7E                                  __ptext23 142E  
                                __ptext15 17E2                                  __ptext32 195A  
                                __ptext24 19AA                                  __ptext16 1A4A  
                                __ptext33 0D86                                  __ptext25 155A  
                                __ptext17 16F2                                  __ptext34 15E4  
                                __ptext26 1B18                                  __ptext18 1B10  
                                __ptext35 1A1C                                  __ptext27 1B0A  
                                __ptext19 1B12                                  __ptext36 0B6E  
                                __ptext28 1054                                  __ptext29 138C  
                        __size_of_senkron 00B0                      _USBCBWakeFromSuspend 1B12  
                        __size_of_uyandir 0066            __end_of_USBCtrlTrfSetupHandler 195A  
                           __size_of_main 02D2                         ?_USBCtrlEPService 003A  
                   __size_of_USBCBSuspend 0002                        ??_USBCtrlEPService 004D  
                     _USBCtrlTrfInHandler 15E4                                  _outPipes 0001  
                    _USBCtrlTrfOutHandler 195A            __size_of_USBCBStdSetDscHandler 0002  
           __end_of_USBCBStdSetDscHandler 1B18                    ??_USBTransferOnePacket 003E  
                           kodla_gonder@a 004C                     __CFG_CPUDIV$OSC4_PLL6 000000  
                           _hid_report_in 000570                      ?_USBCtrlTrfInHandler 003A  
           USBCtrlTrfTxService@byteToSend 003C                                  memset@p1 003A  
                            _USBCBSuspend 1B14                          ?_USBStallHandler 003A  
                USBStdFeatureReqHandler@p 003D                     ?_USBCBWakeFromSuspend 003A  
                  __size_of_USBDeviceInit 0090   __end_of_USER_USB_CALLBACK_EVENT_HANDLER 1772  
__size_of_USER_USB_CALLBACK_EVENT_HANDLER 0080         ??_USER_USB_CALLBACK_EVENT_HANDLER 004B  
        ?_USER_USB_CALLBACK_EVENT_HANDLER 0045           _USER_USB_CALLBACK_EVENT_HANDLER 16F2  
                                senkron@a 003B                    ??_USBConfigureEndpoint 003B  
                   ?_USBCtrlTrfOutHandler 003A                       _USBCtrlTrfRxService 0D86  
                             _USBCBInitEP 1AA0                        _USBWakeFromSuspend 1A76  
                 _USBStdFeatureReqHandler 0C7E                       _USBCtrlTrfTxService 0B6E  
                     ?_USBWakeFromSuspend 003A                     ??_USBCtrlTrfInHandler 003E  
                   _USBAlternateInterface 0036                                  uyandir@a 003B  
                     USBEnableEndpoint@ep 0044                      ?_USBCtrlTrfRxService 003A  
                    ?_USBCtrlTrfTxService 003A                      ??_USBWakeFromSuspend 004D  
              USBTransferOnePacket@handle 003F                                _USB_CD_Ptr 0507  
                             _USBInHandle 001C  
