

Microchip Technology PIC18 LITE Macro Assembler V1.37 build -260352376 
                                                                                               Thu Mar 19 11:19:34 2020

Microchip Technology Omniscient Code Generator v1.37 (Free mode) build 201603110536
     1                           	processor	18F8722
     2                           	fnconf	rparam,??,?,0
     3                           	opt	pw 120
     4                           	opt	lm
     5                           	psect	idataCOMRAM,global,class=CODE,delta=1
     6                           	psect	smallconst,global,reloc=2,class=SMALLCONST,delta=1
     7                           	psect	cinit,global,reloc=2,class=CODE,delta=1
     8                           	psect	bssCOMRAM,global,class=COMRAM,space=1,delta=1
     9                           	psect	dataCOMRAM,global,class=COMRAM,space=1,delta=1
    10                           	psect	bssBANK0,global,class=BANK0,space=1,delta=1
    11                           	psect	cstackCOMRAM,global,class=COMRAM,space=1,delta=1
    12                           	psect	text0,global,reloc=2,class=CODE,delta=1
    13                           	psect	text1,global,reloc=2,class=CODE,delta=1
    14                           	psect	text2,global,reloc=2,class=CODE,delta=1
    15                           	psect	text3,global,reloc=2,class=CODE,delta=1
    16                           	psect	text4,global,reloc=2,class=CODE,delta=1
    17                           	psect	text5,global,reloc=2,class=CODE,delta=1
    18                           	psect	text6,global,reloc=2,class=CODE,delta=1
    19                           	psect	text7,global,reloc=2,class=CODE,delta=1
    20                           	psect	text8,global,reloc=2,class=CODE,delta=1
    21                           	psect	text9,global,reloc=2,class=CODE,delta=1
    22                           	psect	text10,global,reloc=2,class=CODE,delta=1
    23                           	psect	text11,global,reloc=2,class=CODE,delta=1
    24                           	psect	text12,global,reloc=2,class=CODE,delta=1
    25                           	psect	text13,global,reloc=2,class=CODE,delta=1
    26                           	psect	text14,global,reloc=2,class=CODE,delta=1
    27                           	psect	text15,global,reloc=2,class=CODE,delta=1
    28                           	psect	text16,global,reloc=2,class=CODE,delta=1
    29                           	psect	text17,global,reloc=2,class=CODE,delta=1
    30                           	psect	text18,global,reloc=2,class=CODE,delta=1
    31                           	psect	text19,global,reloc=2,class=CODE,delta=1
    32                           	psect	text20,global,reloc=2,class=CODE,delta=1
    33                           	psect	text21,global,reloc=2,class=CODE,delta=1
    34                           	psect	text22,global,reloc=2,class=CODE,delta=1
    35                           	psect	text23,global,reloc=2,class=CODE,delta=1
    36                           	psect	text24,global,reloc=2,class=CODE,delta=1
    37                           	psect	text25,global,reloc=2,class=CODE,delta=1
    38                           	psect	text26,global,reloc=2,class=CODE,delta=1
    39                           	psect	text27,global,reloc=2,class=CODE,delta=1
    40                           	psect	text28,global,reloc=2,class=CODE,delta=1
    41                           	psect	text29,global,reloc=2,class=CODE,delta=1
    42                           	psect	text30,global,reloc=2,class=CODE,delta=1
    43                           	psect	text31,global,reloc=2,class=CODE,delta=1
    44                           	psect	text32,global,reloc=2,class=CODE,delta=1
    45                           	psect	intsave_regs,global,class=BIGRAM,space=1,delta=1
    46                           	psect	rparam,global,class=COMRAM,space=1,delta=1
    47  0000                     
    48                           	psect	idataCOMRAM
    49  001A4C                     __pidataCOMRAM:
    50                           	opt stack 0
    51                           
    52                           ;initializer for __x
    53  001A4C  01                 	db	1
    54                           
    55                           ;initializer for __y
    56  001A4D  01                 	db	1
    57  0000                     _ADCON0	set	4034
    58  0000                     _ADRESH	set	4036
    59  0000                     _ADRESL	set	4035
    60  0000                     _BAUDCON1bits	set	3966
    61  0000                     _BAUDCON2bits	set	3964
    62  0000                     _CCPR2L	set	4027
    63  0000                     _CCPR3L	set	4024
    64  0000                     _CCPR4L	set	3956
    65  0000                     _CCPR5L	set	3953
    66  0000                     _EEADR	set	4009
    67  0000                     _EEADRH	set	4010
    68  0000                     _EECON2	set	4007
    69  0000                     _EEDATA	set	4008
    70  0000                     _PIR1bits	set	3998
    71  0000                     _PIR3bits	set	4004
    72  0000                     _PR2	set	4043
    73  0000                     _PR4	set	3959
    74  0000                     _RCREG1	set	4014
    75  0000                     _RCREG2	set	3950
    76  0000                     _RCSTA1bits	set	4011
    77  0000                     _RCSTA2bits	set	3947
    78  0000                     _SPBRG1	set	4015
    79  0000                     _SPBRG2	set	3951
    80  0000                     _SSP2ADD	set	3941
    81  0000                     _SSP2BUF	set	3942
    82  0000                     _SSPADD	set	4040
    83  0000                     _SSPBUF	set	4041
    84  0000                     _TRISE	set	3990
    85  0000                     _TXREG1	set	4013
    86  0000                     _TXREG2	set	3949
    87  0000                     _TXSTA1bits	set	4012
    88  0000                     _TXSTA2bits	set	3948
    89  0000                     _ACKDT	set	32301
    90  0000                     _ACKDT2	set	31509
    91  0000                     _ACKEN	set	32300
    92  0000                     _ACKEN2	set	31508
    93  0000                     _ACQT0	set	32259
    94  0000                     _ACQT1	set	32260
    95  0000                     _ACQT2	set	32261
    96  0000                     _ADCS0	set	32256
    97  0000                     _ADCS1	set	32257
    98  0000                     _ADCS2	set	32258
    99  0000                     _ADFM	set	32263
   100  0000                     _ADIF	set	31990
   101  0000                     _ADON	set	32272
   102  0000                     _BF	set	32312
   103  0000                     _BF2	set	31520
   104  0000                     _CCP2M2	set	32210
   105  0000                     _CCP2M3	set	32211
   106  0000                     _CCP3M2	set	32186
   107  0000                     _CCP3M3	set	32187
   108  0000                     _CCP4M2	set	31642
   109  0000                     _CCP4M3	set	31643
   110  0000                     _CCP5M2	set	31618
   111  0000                     _CCP5M3	set	31619
   112  0000                     _CFGS	set	32054
   113  0000                     _CHS0	set	32274
   114  0000                     _CHS1	set	32275
   115  0000                     _CHS2	set	32276
   116  0000                     _CHS3	set	32277
   117  0000                     _CKE	set	32318
   118  0000                     _CKE2	set	31526
   119  0000                     _CKP	set	32308
   120  0000                     _CKP2	set	31516
   121  0000                     _DC2B0	set	32212
   122  0000                     _DC2B1	set	32213
   123  0000                     _DC3B0	set	32188
   124  0000                     _DC3B1	set	32189
   125  0000                     _DC4B0	set	31644
   126  0000                     _DC4B1	set	31645
   127  0000                     _DC5B0	set	31620
   128  0000                     _DC5B1	set	31621
   129  0000                     _EEIF	set	32012
   130  0000                     _EEPGD	set	32055
   131  0000                     _GODONE	set	32273
   132  0000                     _INTSRC	set	31967
   133  0000                     _IRCF0	set	32412
   134  0000                     _IRCF1	set	32413
   135  0000                     _IRCF2	set	32414
   136  0000                     _PCFG0	set	32264
   137  0000                     _PCFG1	set	32265
   138  0000                     _PCFG2	set	32266
   139  0000                     _PCFG3	set	32267
   140  0000                     _PEN	set	32298
   141  0000                     _PEN2	set	31506
   142  0000                     _PLLEN	set	31966
   143  0000                     _RB0	set	31752
   144  0000                     _RC1	set	31761
   145  0000                     _RCEN	set	32299
   146  0000                     _RCEN2	set	31507
   147  0000                     _RD	set	32048
   148  0000                     _RE3	set	31779
   149  0000                     _RE4	set	31780
   150  0000                     _RE5	set	31781
   151  0000                     _SEN	set	32296
   152  0000                     _SEN2	set	31504
   153  0000                     _SMP	set	32319
   154  0000                     _SMP2	set	31527
   155  0000                     _SSP2IF	set	32039
   156  0000                     _SSPEN	set	32309
   157  0000                     _SSPEN2	set	31517
   158  0000                     _SSPIF	set	31987
   159  0000                     _SSPM0	set	32304
   160  0000                     _SSPM02	set	31512
   161  0000                     _SSPM1	set	32305
   162  0000                     _SSPM12	set	31513
   163  0000                     _SSPM2	set	32306
   164  0000                     _SSPM22	set	31514
   165  0000                     _SSPM3	set	32307
   166  0000                     _SSPM32	set	31515
   167  0000                     _T2CKPS0	set	32336
   168  0000                     _T2CKPS1	set	32337
   169  0000                     _T4CKPS0	set	31664
   170  0000                     _T4CKPS1	set	31665
   171  0000                     _TMR2ON	set	32338
   172  0000                     _TMR4ON	set	31666
   173  0000                     _TRISA0	set	31888
   174  0000                     _TRISA1	set	31889
   175  0000                     _TRISB0	set	31896
   176  0000                     _TRISC1	set	31905
   177  0000                     _TRISC2	set	31906
   178  0000                     _TRISC3	set	31907
   179  0000                     _TRISC4	set	31908
   180  0000                     _TRISC5	set	31909
   181  0000                     _TRISC6	set	31910
   182  0000                     _TRISC7	set	31911
   183  0000                     _TRISD4	set	31916
   184  0000                     _TRISD5	set	31917
   185  0000                     _TRISD6	set	31918
   186  0000                     _TRISG1	set	31937
   187  0000                     _TRISG2	set	31938
   188  0000                     _TRISG3	set	31939
   189  0000                     _TRISG4	set	31940
   190  0000                     _VCFG0	set	32268
   191  0000                     _VCFG1	set	32269
   192  0000                     _WR	set	32049
   193  0000                     _WREN	set	32050
   194                           
   195                           	psect	smallconst
   196  001000                     __psmallconst:
   197                           	opt stack 0
   198  001000  00                 	db	0
   199  001001                     STR_6:
   200  001001  4E                 	db	78	;'N'
   201  001002  69                 	db	105	;'i'
   202  001003  73                 	db	115	;'s'
   203  001004  61                 	db	97	;'a'
   204  001005  20                 	db	32
   205  001006  26                 	db	38
   206  001007  20                 	db	32
   207  001008  53                 	db	83	;'S'
   208  001009  61                 	db	97	;'a'
   209  00100A  69                 	db	105	;'i'
   210  00100B  6D                 	db	109	;'m'
   211  00100C  00                 	db	0
   212  00100D                     STR_4:
   213  00100D  69                 	db	105	;'i'
   214  00100E  6C                 	db	108	;'l'
   215  00100F  6C                 	db	108	;'l'
   216  001010  65                 	db	101	;'e'
   217  001011  67                 	db	103	;'g'
   218  001012  61                 	db	97	;'a'
   219  001013  6C                 	db	108	;'l'
   220  001014  00                 	db	0
   221  001015                     STR_3:
   222  001015  45                 	db	69	;'E'
   223  001016  32                 	db	50	;'2'
   224  001017  00                 	db	0
   225  001018                     STR_1:
   226  001018  45                 	db	69	;'E'
   227  001019  00                 	db	0
   228  00101A                     STR_2:
   229  00101A  69                 	db	105	;'i'
   230  00101B  00                 	db	0
   231  0000                     
   232                           ; #config settings
   233  00101C  00                 	db	0	; dummy byte at the end
   234  0000                     
   235                           	psect	cinit
   236  0017DA                     __pcinit:
   237                           	opt stack 0
   238  0017DA                     start_initialization:
   239                           	opt stack 0
   240  0017DA                     __initialization:
   241                           	opt stack 0
   242                           
   243                           ; Clear objects allocated to BANK0 (64 bytes)
   244  0017DA  EE00  F060         	lfsr	0,__pbssBANK0
   245  0017DE  0E40               	movlw	64
   246  0017E0                     clear_0:
   247  0017E0  6AEE               	clrf	postinc0,c
   248  0017E2  06E8               	decf	wreg,f,c
   249  0017E4  E1FD               	bnz	clear_0
   250                           
   251                           ; Clear objects allocated to COMRAM (40 bytes)
   252  0017E6  EE00  F001         	lfsr	0,__pbssCOMRAM
   253  0017EA  0E28               	movlw	40
   254  0017EC                     clear_1:
   255  0017EC  6AEE               	clrf	postinc0,c
   256  0017EE  06E8               	decf	wreg,f,c
   257  0017F0  E1FD               	bnz	clear_1
   258                           
   259                           ; Initialize objects allocated to COMRAM (2 bytes)
   260                           ; load TBLPTR registers with __pidataCOMRAM
   261  0017F2  0E4C               	movlw	low __pidataCOMRAM
   262  0017F4  6EF6               	movwf	tblptrl,c
   263  0017F6  0E1A               	movlw	high __pidataCOMRAM
   264  0017F8  6EF7               	movwf	tblptrh,c
   265  0017FA  0E00               	movlw	low (__pidataCOMRAM shr (0+16))
   266  0017FC  6EF8               	movwf	tblptru,c
   267  0017FE  0009               	tblrd		*+	;fetch initializer
   268  001800  CFF5 F03F          	movff	tablat,__pdataCOMRAM
   269  001804  0009               	tblrd		*+	;fetch initializer
   270  001806  CFF5 F040          	movff	tablat,__pdataCOMRAM+1
   271  00180A                     end_of_initialization:
   272                           	opt stack 0
   273  00180A                     __end_of__initialization:
   274                           	opt stack 0
   275  00180A  0E00               	movlw	low (__Lmediumconst shr (0+16))
   276  00180C  6EF8               	movwf	tblptru,c
   277  00180E  0100               	movlb	0
   278  001810  EFAF  F008         	goto	_main	;jump to C main() function
   279                           tblptru	equ	0xFF8
   280                           tblptrh	equ	0xFF7
   281                           tblptrl	equ	0xFF6
   282                           tablat	equ	0xFF5
   283                           postinc0	equ	0xFEE
   284                           wreg	equ	0xFE8
   285                           
   286                           	psect	bssCOMRAM
   287  000001                     __pbssCOMRAM:
   288                           	opt stack 0
   289  000001                     _SD_RESP:
   290                           	opt stack 0
   291  000001                     	ds	5
   292  000006                     _time_array:
   293                           	opt stack 0
   294  000006                     	ds	3
   295  000009                     _allocated:
   296                           	opt stack 0
   297  000009                     	ds	2
   298  00000B                     _dat:
   299                           	opt stack 0
   300  00000B                     	ds	2
   301  00000D                     _temp1:
   302                           	opt stack 0
   303  00000D                     	ds	2
   304  00000F                     _temp2:
   305                           	opt stack 0
   306  00000F                     	ds	2
   307  000011                     _CARD_VERSION:
   308                           	opt stack 0
   309  000011                     	ds	1
   310  000012                     _CURRENT_MESSAGE:
   311                           	opt stack 0
   312  000012                     	ds	1
   313  000013                     _SHOWN_BYTES:
   314                           	opt stack 0
   315  000013                     	ds	1
   316  000014                     __temp_:
   317                           	opt stack 0
   318  000014                     	ds	1
   319  000015                     _cevap:
   320                           	opt stack 0
   321  000015                     	ds	1
   322  000016                     _current_value_lcd:
   323                           	opt stack 0
   324  000016                     	ds	1
   325  000017                     _dakika:
   326                           	opt stack 0
   327  000017                     	ds	1
   328  000018                     _error:
   329                           	opt stack 0
   330  000018                     	ds	1
   331  000019                     _nisa:
   332                           	opt stack 0
   333  000019                     	ds	1
   334  00001A                     _saat:
   335                           	opt stack 0
   336  00001A                     	ds	1
   337  00001B                     _saniye:
   338                           	opt stack 0
   339  00001B                     	ds	1
   340  00001C                     _t_i:
   341                           	opt stack 0
   342  00001C                     	ds	1
   343  00001D                     _threshold:
   344                           	opt stack 0
   345  00001D                     	ds	1
   346  00001E                     _unnecessary:
   347                           	opt stack 0
   348  00001E                     	ds	1
   349  00001F                     _number_array:
   350                           	opt stack 0
   351  00001F                     	ds	5
   352  000024                     _zaman:
   353                           	opt stack 0
   354  000024                     	ds	5
   355                           tblptru	equ	0xFF8
   356                           tblptrh	equ	0xFF7
   357                           tblptrl	equ	0xFF6
   358                           tablat	equ	0xFF5
   359                           postinc0	equ	0xFEE
   360                           wreg	equ	0xFE8
   361                           
   362                           	psect	dataCOMRAM
   363  00003F                     __pdataCOMRAM:
   364                           	opt stack 0
   365  00003F                     __x:
   366                           	opt stack 0
   367  00003F                     	ds	1
   368  000040                     __y:
   369                           	opt stack 0
   370  000040                     	ds	1
   371                           tblptru	equ	0xFF8
   372                           tblptrh	equ	0xFF7
   373                           tblptrl	equ	0xFF6
   374                           tablat	equ	0xFF5
   375                           postinc0	equ	0xFEE
   376                           wreg	equ	0xFE8
   377                           
   378                           	psect	bssBANK0
   379  000060                     __pbssBANK0:
   380                           	opt stack 0
   381  000060                     _buff:
   382                           	opt stack 0
   383  000060                     	ds	64
   384                           tblptru	equ	0xFF8
   385                           tblptrh	equ	0xFF7
   386                           tblptrl	equ	0xFF6
   387                           tablat	equ	0xFF5
   388                           postinc0	equ	0xFEE
   389                           wreg	equ	0xFE8
   390                           
   391                           	psect	cstackCOMRAM
   392  000029                     __pcstackCOMRAM:
   393                           	opt stack 0
   394  000029                     ??_DELAY100:
   395  000029                     ??_load_shift_data_lcd:
   396  000029                     ??_ADC_init:
   397  000029                     ??_SPI_init:
   398  000029                     ??_I2C2_Start:
   399  000029                     ?_ADC_read:
   400                           	opt stack 0
   401  000029                     DELAY@number:
   402                           	opt stack 0
   403  000029                     SPI_write@received:
   404                           	opt stack 0
   405  000029                     I2C2_data_send@data:
   406                           	opt stack 0
   407  000029                     UART1_byte_send@data:
   408                           	opt stack 0
   409  000029                     UART2_byte_send@data:
   410                           	opt stack 0
   411  000029                     EEPROM_read_byte@address:
   412                           	opt stack 0
   413  000029                     EEPROM_write_byte@address:
   414                           	opt stack 0
   415  000029                     PWM3_set_value@value:
   416                           	opt stack 0
   417  000029                     PWM4_set_value@value:
   418                           	opt stack 0
   419  000029                     PWM5_set_value@value:
   420                           	opt stack 0
   421                           
   422                           ; 2 bytes @ 0x0
   423  000029                     	ds	1
   424  00002A                     DELAY@k:
   425                           	opt stack 0
   426  00002A                     DELAY100@number:
   427                           	opt stack 0
   428  00002A                     SPI_write@data:
   429                           	opt stack 0
   430                           
   431                           ; 1 bytes @ 0x1
   432  00002A                     	ds	1
   433  00002B                     ??_ADC_read:
   434  00002B                     ??_PWM3_set_value:
   435  00002B                     ??_PWM4_set_value:
   436  00002B                     ??_PWM5_set_value:
   437  00002B                     DELAY100@k:
   438                           	opt stack 0
   439  00002B                     load_shift_data_lcd@data:
   440                           	opt stack 0
   441  00002B                     EEPROM_write_byte@value:
   442                           	opt stack 0
   443  00002B                     SDCARD_send_command@param:
   444                           	opt stack 0
   445  00002B                     SDCARD_bir_sektor_oku@adres:
   446                           	opt stack 0
   447                           
   448                           ; 4 bytes @ 0x2
   449  00002B                     	ds	1
   450  00002C                     load_shift_data_lcd@a:
   451                           	opt stack 0
   452                           
   453                           ; 1 bytes @ 0x3
   454  00002C                     	ds	1
   455  00002D                     shift_reg_set_pin_lcd@value:
   456                           	opt stack 0
   457  00002D                     ADC_read@val:
   458                           	opt stack 0
   459                           
   460                           ; 2 bytes @ 0x4
   461  00002D                     	ds	1
   462  00002E                     ??_shift_reg_set_pin_lcd:
   463                           
   464                           ; 1 bytes @ 0x5
   465  00002E                     	ds	1
   466  00002F                     ADC_read@channel_number:
   467                           	opt stack 0
   468  00002F                     SDCARD_send_command@crc:
   469                           	opt stack 0
   470  00002F                     SDCARD_bir_sektor_oku@buff:
   471                           	opt stack 0
   472                           
   473                           ; 2 bytes @ 0x6
   474  00002F                     	ds	1
   475  000030                     shift_reg_set_pin_lcd@pin_number:
   476                           	opt stack 0
   477  000030                     SDCARD_send_command@command:
   478                           	opt stack 0
   479                           
   480                           ; 1 bytes @ 0x7
   481  000030                     	ds	1
   482  000031                     lcd_info@data_type:
   483                           	opt stack 0
   484  000031                     SDCARD_send_command@response:
   485                           	opt stack 0
   486  000031                     SDCARD_bir_sektor_oku@a:
   487                           	opt stack 0
   488                           
   489                           ; 2 bytes @ 0x8
   490  000031                     	ds	1
   491  000032                     ??_lcd_info:
   492  000032                     SDCARD_send_command@j:
   493                           	opt stack 0
   494                           
   495                           ; 1 bytes @ 0x9
   496  000032                     	ds	1
   497  000033                     lcd_info@c:
   498                           	opt stack 0
   499  000033                     SDCARD_bir_sektor_oku@j:
   500                           	opt stack 0
   501                           
   502                           ; 2 bytes @ 0xA
   503  000033                     	ds	1
   504  000034                     lcd_goto@p_2:
   505                           	opt stack 0
   506                           
   507                           ; 1 bytes @ 0xB
   508  000034                     	ds	1
   509  000035                     lcd_goto@p_1:
   510                           	opt stack 0
   511  000035                     SDCARD_bir_sektor_oku@k:
   512                           	opt stack 0
   513                           
   514                           ; 2 bytes @ 0xC
   515  000035                     	ds	1
   516  000036                     ??_lcd_clear:
   517  000036                     lcd_yaz@data:
   518                           	opt stack 0
   519                           
   520                           ; 1 bytes @ 0xD
   521  000036                     	ds	1
   522  000037                     ??_LCD_init:
   523  000037                     lcd_write@s:
   524                           	opt stack 0
   525                           
   526                           ; 2 bytes @ 0xE
   527  000037                     	ds	2
   528  000039                     ??_lcd_write:
   529                           
   530                           ; 1 bytes @ 0x10
   531  000039                     	ds	1
   532  00003A                     SDCARD_baslat@a:
   533                           	opt stack 0
   534                           
   535                           ; 2 bytes @ 0x11
   536  00003A                     	ds	2
   537  00003C                     ??_main:
   538                           
   539                           ; 1 bytes @ 0x13
   540  00003C                     	ds	1
   541  00003D                     main@c:
   542                           	opt stack 0
   543                           
   544                           ; 2 bytes @ 0x14
   545  00003D                     	ds	2
   546                           tblptru	equ	0xFF8
   547                           tblptrh	equ	0xFF7
   548                           tblptrl	equ	0xFF6
   549                           tablat	equ	0xFF5
   550                           postinc0	equ	0xFEE
   551                           wreg	equ	0xFE8
   552                           
   553 ;;
   554 ;;Main: autosize = 0, tempsize = 1, incstack = 0, save=0
   555 ;;
   556 ;; *************** function _main *****************
   557 ;; Defined at:
   558 ;;		line 83 in file "PIC18F8722.c"
   559 ;; Parameters:    Size  Location     Type
   560 ;;		None
   561 ;; Auto vars:     Size  Location     Type
   562 ;;  c               2   20[COMRAM] int 
   563 ;; Return value:  Size  Location     Type
   564 ;;                  1    wreg      void 
   565 ;; Registers used:
   566 ;;		wreg, fsr0l, fsr0h, fsr2l, fsr2h, status,2, status,0, tblptrl, tblptrh, tblptru, cstack
   567 ;; Tracked objects:
   568 ;;		On entry : 0/0
   569 ;;		On exit  : 0/0
   570 ;;		Unchanged: 0/0
   571 ;; Data sizes:     COMRAM   BANK0   BANK1   BANK2   BANK3   BANK4   BANK5   BANK6   BANK7   BANK8   BANK9  BANK10  BANK1
      +1  BANK12  BANK13  BANK14  BANK15
   572 ;;      Params:         0       0       0       0       0       0       0       0       0       0       0       0       
      +0       0       0       0       0
   573 ;;      Locals:         2       0       0       0       0       0       0       0       0       0       0       0       
      +0       0       0       0       0
   574 ;;      Temps:          1       0       0       0       0       0       0       0       0       0       0       0       
      +0       0       0       0       0
   575 ;;      Totals:         3       0       0       0       0       0       0       0       0       0       0       0       
      +0       0       0       0       0
   576 ;;Total ram usage:        3 bytes
   577 ;; Hardware stack levels required when called:    7
   578 ;; This function calls:
   579 ;;		_ADC_init
   580 ;;		_ADC_read
   581 ;;		_DELAY
   582 ;;		_DELAY100
   583 ;;		_EEPROM_read_byte
   584 ;;		_EEPROM_write_byte
   585 ;;		_I2C2_Start
   586 ;;		_I2C2_Stop
   587 ;;		_I2C2_data_send
   588 ;;		_I2C2_initialize
   589 ;;		_LCD_init
   590 ;;		_PWM4_initialize
   591 ;;		_PWM4_set_value
   592 ;;		_PWM5_initialize
   593 ;;		_PWM5_set_value
   594 ;;		_SDCARD_baslat
   595 ;;		_SDCARD_bir_sektor_oku
   596 ;;		_SPI_init
   597 ;;		_UART1_byte_send
   598 ;;		_UART1_init
   599 ;;		_UART2_byte_send
   600 ;;		_UART2_init
   601 ;;		_lcd_write
   602 ;; This function is called by:
   603 ;;		Startup code after reset
   604 ;; This function uses a non-reentrant model
   605 ;;
   606                           
   607                           	psect	text0
   608  00115E                     __ptext0:
   609                           	opt stack 0
   610  00115E                     _main:
   611                           	opt stack 24
   612                           
   613                           ;PIC18F8722.c: 87: INTSRC = 1;
   614                           
   615                           ;incstack = 0
   616  00115E  8E9B               	bsf	3995,7,c	;volatile
   617                           
   618                           ;PIC18F8722.c: 91: PLLEN = 0;
   619  001160  9C9B               	bcf	3995,6,c	;volatile
   620                           
   621                           ;PIC18F8722.c: 110: IRCF2 = 1; IRCF1 = 1; IRCF0 = 0;
   622  001162  8CD3               	bsf	4051,6,c	;volatile
   623  001164  8AD3               	bsf	4051,5,c	;volatile
   624  001166  98D3               	bcf	4051,4,c	;volatile
   625                           
   626                           ;PIC18F8722.c: 111: TRISB0 = 0;
   627  001168  9093               	bcf	3987,0,c	;volatile
   628                           
   629                           ;PIC18F8722.c: 112: TRISE = 0;
   630  00116A  0E00               	movlw	0
   631  00116C  6E96               	movwf	3990,c	;volatile
   632                           
   633                           ;PIC18F8722.c: 113: TRISC1 = 0;
   634  00116E  9294               	bcf	3988,1,c	;volatile
   635                           
   636                           ;PIC18F8722.c: 114: RC1 = 1;
   637  001170  8282               	bsf	3970,1,c	;volatile
   638                           
   639                           ;PIC18F8722.c: 115: ADC_init();
   640  001172  EC6D  F00B         	call	_ADC_init	;wreg free
   641                           
   642                           ;PIC18F8722.c: 116: LCD_init();
   643  001176  EC3C  F00A         	call	_LCD_init	;wreg free
   644                           
   645                           ;PIC18F8722.c: 117: PWM4_initialize();
   646  00117A  ECBD  F00C         	call	_PWM4_initialize	;wreg free
   647                           
   648                           ;PIC18F8722.c: 118: PWM5_initialize();
   649  00117E  ECAF  F00C         	call	_PWM5_initialize	;wreg free
   650                           
   651                           ;PIC18F8722.c: 119: I2C2_initialize();
   652  001182  ECA0  F00C         	call	_I2C2_initialize	;wreg free
   653                           
   654                           ;PIC18F8722.c: 120: SPI_init();
   655  001186  EC56  F00C         	call	_SPI_init	;wreg free
   656                           
   657                           ;PIC18F8722.c: 121: UART1_init();
   658  00118A  ECE6  F00C         	call	_UART1_init	;wreg free
   659                           
   660                           ;PIC18F8722.c: 122: UART2_init();
   661  00118E  ECD9  F00C         	call	_UART2_init	;wreg free
   662                           
   663                           ;PIC18F8722.c: 124: DELAY(150);
   664  001192  0E96               	movlw	150
   665  001194  ECCB  F00C         	call	_DELAY
   666                           
   667                           ;PIC18F8722.c: 125: DELAY100(6);
   668  001198  0E06               	movlw	6
   669  00119A  EC8F  F00C         	call	_DELAY100
   670                           
   671                           ;PIC18F8722.c: 126: PWM4_set_value(750);
   672  00119E  0E02               	movlw	2
   673  0011A0  6E2A               	movwf	PWM4_set_value@value+1,c
   674  0011A2  0EEE               	movlw	238
   675  0011A4  6E29               	movwf	PWM4_set_value@value,c
   676  0011A6  ECCE  F00B         	call	_PWM4_set_value	;wreg free
   677                           
   678                           ;PIC18F8722.c: 127: PWM5_set_value(500);
   679  0011AA  0E01               	movlw	1
   680  0011AC  6E2A               	movwf	PWM5_set_value@value+1,c
   681  0011AE  0EF4               	movlw	244
   682  0011B0  6E29               	movwf	PWM5_set_value@value,c
   683  0011B2  EC90  F00B         	call	_PWM5_set_value	;wreg free
   684                           
   685                           ;PIC18F8722.c: 128: lcd_write("Nisa & Saim");
   686  0011B6  0E01               	movlw	low STR_6
   687  0011B8  6E37               	movwf	lcd_write@s,c
   688  0011BA  0E10               	movlw	high STR_6
   689  0011BC  6E38               	movwf	lcd_write@s+1,c
   690  0011BE  EC8C  F00A         	call	_lcd_write	;wreg free
   691                           
   692                           ;PIC18F8722.c: 129: for(int c = 0; c < 15;c++)
   693  0011C2  0E00               	movlw	0
   694  0011C4  6E3E               	movwf	main@c+1,c
   695  0011C6  0E00               	movlw	0
   696  0011C8  6E3D               	movwf	main@c,c
   697  0011CA                     l2833:
   698  0011CA  BE3E               	btfsc	main@c+1,7,c
   699  0011CC  D006               	goto	l2837
   700  0011CE  503E               	movf	main@c+1,w,c
   701  0011D0  E10F               	bnz	l2843
   702  0011D2  0E0F               	movlw	15
   703  0011D4  5C3D               	subwf	main@c,w,c
   704  0011D6  B0D8               	btfsc	status,0,c
   705  0011D8  D00B               	goto	l2843
   706  0011DA                     l2837:
   707                           
   708                           ;PIC18F8722.c: 130: EEPROM_write_byte(c, c);
   709  0011DA  C03D  F029         	movff	main@c,EEPROM_write_byte@address
   710  0011DE  C03E  F02A         	movff	main@c+1,EEPROM_write_byte@address+1
   711  0011E2  C03D  F02B         	movff	main@c,EEPROM_write_byte@value
   712  0011E6  EC6A  F00C         	call	_EEPROM_write_byte	;wreg free
   713  0011EA  4A3D               	infsnz	main@c,f,c
   714  0011EC  2A3E               	incf	main@c+1,f,c
   715  0011EE  D7ED               	goto	l2833
   716  0011F0                     l2843:
   717                           
   718                           ;PIC18F8722.c: 132: dat = EEPROM_read_byte(14);
   719  0011F0  0E00               	movlw	0
   720  0011F2  6E2A               	movwf	EEPROM_read_byte@address+1,c
   721  0011F4  0E0E               	movlw	14
   722  0011F6  6E29               	movwf	EEPROM_read_byte@address,c
   723  0011F8  ECFF  F00C         	call	_EEPROM_read_byte	;wreg free
   724  0011FC  6E3C               	movwf	??_main& (0+255),c
   725  0011FE  503C               	movf	??_main,w,c
   726  001200  6E0B               	movwf	_dat,c
   727  001202  6A0C               	clrf	_dat+1,c
   728                           
   729                           ;PIC18F8722.c: 135: SDCARD_baslat ( ) ;
   730  001204  EC0F  F008         	call	_SDCARD_baslat	;wreg free
   731                           
   732                           ;PIC18F8722.c: 137: SDCARD_bir_sektor_oku( 0 , buff) ;
   733  001208  0E00               	movlw	0
   734  00120A  6E2B               	movwf	SDCARD_bir_sektor_oku@adres,c
   735  00120C  0E00               	movlw	0
   736  00120E  6E2C               	movwf	SDCARD_bir_sektor_oku@adres+1,c
   737  001210  0E00               	movlw	0
   738  001212  6E2D               	movwf	SDCARD_bir_sektor_oku@adres+2,c
   739  001214  0E00               	movlw	0
   740  001216  6E2E               	movwf	SDCARD_bir_sektor_oku@adres+3,c
   741  001218  0E60               	movlw	low _buff
   742  00121A  6E2F               	movwf	SDCARD_bir_sektor_oku@buff,c
   743  00121C  0E00               	movlw	high _buff
   744  00121E  6E30               	movwf	SDCARD_bir_sektor_oku@buff+1,c
   745  001220  ECCA  F009         	call	_SDCARD_bir_sektor_oku	;wreg free
   746  001224                     l2849:
   747                           
   748                           ;PIC18F8722.c: 141: {
   749                           ;PIC18F8722.c: 144: temp1 = ADC_read(0);
   750  001224  0E00               	movlw	0
   751  001226  ECF5  F00A         	call	_ADC_read
   752  00122A  C029  F00D         	movff	?_ADC_read,_temp1
   753  00122E  C02A  F00E         	movff	?_ADC_read+1,_temp1+1
   754                           
   755                           ;PIC18F8722.c: 145: temp2 = ADC_read(1);
   756  001232  0E01               	movlw	1
   757  001234  ECF5  F00A         	call	_ADC_read
   758  001238  C029  F00F         	movff	?_ADC_read,_temp2
   759  00123C  C02A  F010         	movff	?_ADC_read+1,_temp2+1
   760                           
   761                           ;PIC18F8722.c: 146: RB0 = ~RB0;
   762  001240  B081               	btfsc	3969,0,c	;volatile
   763  001242  D002               	goto	u1950
   764  001244  8081               	bsf	3969,0,c	;volatile
   765  001246  D001               	goto	l2855
   766  001248                     u1950:
   767  001248  9081               	bcf	3969,0,c	;volatile
   768  00124A                     l2855:
   769                           
   770                           ;PIC18F8722.c: 147: UART1_byte_send('S');
   771  00124A  0E53               	movlw	83
   772  00124C  EC1B  F00D         	call	_UART1_byte_send
   773                           
   774                           ;PIC18F8722.c: 148: UART2_byte_send('N');
   775  001250  0E4E               	movlw	78
   776  001252  EC15  F00D         	call	_UART2_byte_send
   777                           
   778                           ;PIC18F8722.c: 151: I2C2_Start();
   779  001256  ECF3  F00C         	call	_I2C2_Start	;wreg free
   780                           
   781                           ;PIC18F8722.c: 152: _delay((unsigned long)((1)*(4000000/4000.0)));
   782  00125A  0EFA               	movlw	250
   783  00125C                     u1977:
   784  00125C  F000               	nop	
   785  00125E  2EE8               	decfsz	wreg,f,c
   786  001260  D7FD               	goto	u1977
   787                           
   788                           ;PIC18F8722.c: 153: I2C2_data_send(0b01010101);
   789  001262  0E55               	movlw	85
   790  001264  EC7D  F00C         	call	_I2C2_data_send
   791                           
   792                           ;PIC18F8722.c: 154: _delay((unsigned long)((1)*(4000000/4000.0)));
   793  001268  0EFA               	movlw	250
   794  00126A                     u1987:
   795  00126A  F000               	nop	
   796  00126C  2EE8               	decfsz	wreg,f,c
   797  00126E  D7FD               	goto	u1987
   798                           
   799                           ;PIC18F8722.c: 155: I2C2_Stop();
   800  001270  EC21  F00D         	call	_I2C2_Stop	;wreg free
   801                           
   802                           ;PIC18F8722.c: 156: _delay((unsigned long)((1)*(4000000/4000.0)));
   803  001274  0EFA               	movlw	250
   804  001276                     u1997:
   805  001276  F000               	nop	
   806  001278  2EE8               	decfsz	wreg,f,c
   807  00127A  D7FD               	goto	u1997
   808                           
   809                           ;PIC18F8722.c: 159: DELAY100(10);
   810  00127C  0E0A               	movlw	10
   811  00127E  EC8F  F00C         	call	_DELAY100
   812  001282  D7D0               	goto	l2849
   813  001284                     __end_of_main:
   814                           	opt stack 0
   815                           tblptru	equ	0xFF8
   816                           tblptrh	equ	0xFF7
   817                           tblptrl	equ	0xFF6
   818                           tablat	equ	0xFF5
   819                           postinc0	equ	0xFEE
   820                           wreg	equ	0xFE8
   821                           status	equ	0xFD8
   822                           
   823 ;; *************** function _UART2_init *****************
   824 ;; Defined at:
   825 ;;		line 79 in file "EUART.h"
   826 ;; Parameters:    Size  Location     Type
   827 ;;		None
   828 ;; Auto vars:     Size  Location     Type
   829 ;;		None
   830 ;; Return value:  Size  Location     Type
   831 ;;                  1    wreg      void 
   832 ;; Registers used:
   833 ;;		wreg, status,2
   834 ;; Tracked objects:
   835 ;;		On entry : 0/0
   836 ;;		On exit  : 0/0
   837 ;;		Unchanged: 0/0
   838 ;; Data sizes:     COMRAM   BANK0   BANK1   BANK2   BANK3   BANK4   BANK5   BANK6   BANK7   BANK8   BANK9  BANK10  BANK1
      +1  BANK12  BANK13  BANK14  BANK15
   839 ;;      Params:         0       0       0       0       0       0       0       0       0       0       0       0       
      +0       0       0       0       0
   840 ;;      Locals:         0       0       0       0       0       0       0       0       0       0       0       0       
      +0       0       0       0       0
   841 ;;      Temps:          0       0       0       0       0       0       0       0       0       0       0       0       
      +0       0       0       0       0
   842 ;;      Totals:         0       0       0       0       0       0       0       0       0       0       0       0       
      +0       0       0       0       0
   843 ;;Total ram usage:        0 bytes
   844 ;; Hardware stack levels used:    1
   845 ;; This function calls:
   846 ;;		Nothing
   847 ;; This function is called by:
   848 ;;		_main
   849 ;; This function uses a non-reentrant model
   850 ;;
   851                           
   852                           	psect	text1
   853  0019B2                     __ptext1:
   854                           	opt stack 0
   855  0019B2                     _UART2_init:
   856                           	opt stack 30
   857                           
   858                           ;EUART.h: 82: TRISG2 = 1 ;
   859                           
   860                           ;incstack = 0
   861  0019B2  8498               	bsf	3992,2,c	;volatile
   862                           
   863                           ;EUART.h: 85: TRISG1 = 0 ;
   864  0019B4  9298               	bcf	3992,1,c	;volatile
   865                           
   866                           ;EUART.h: 88: TXSTA2bits.SYNC = 0 ;
   867  0019B6  986C               	bcf	3948,4,c	;volatile
   868                           
   869                           ;EUART.h: 90: TXSTA2bits.BRGH = 1;
   870  0019B8  846C               	bsf	3948,2,c	;volatile
   871                           
   872                           ;EUART.h: 91: TXSTA2bits.TXEN = 1 ;
   873  0019BA  8A6C               	bsf	3948,5,c	;volatile
   874                           
   875                           ;EUART.h: 92: BAUDCON2bits.BRG16 =0;
   876  0019BC  967C               	bcf	3964,3,c	;volatile
   877                           
   878                           ;EUART.h: 93: SPBRG2 = 25 ;
   879  0019BE  0E19               	movlw	25
   880  0019C0  6E6F               	movwf	3951,c	;volatile
   881                           
   882                           ;EUART.h: 95: RCSTA2bits.CREN = 1 ;
   883  0019C2  886B               	bsf	3947,4,c	;volatile
   884                           
   885                           ;EUART.h: 97: RCSTA2bits.SPEN = 1 ;
   886  0019C4  8E6B               	bsf	3947,7,c	;volatile
   887                           
   888                           ;EUART.h: 98: PIR3bits.TX2IF = 0;
   889  0019C6  98A4               	bcf	4004,4,c	;volatile
   890                           
   891                           ;EUART.h: 103: RCREG2;
   892  0019C8  506E               	movf	3950,w,c	;volatile
   893  0019CA  0012               	return		;funcret
   894  0019CC                     __end_of_UART2_init:
   895                           	opt stack 0
   896                           tblptru	equ	0xFF8
   897                           tblptrh	equ	0xFF7
   898                           tblptrl	equ	0xFF6
   899                           tablat	equ	0xFF5
   900                           postinc0	equ	0xFEE
   901                           wreg	equ	0xFE8
   902                           status	equ	0xFD8
   903                           
   904 ;; *************** function _UART2_byte_send *****************
   905 ;; Defined at:
   906 ;;		line 62 in file "EUART.h"
   907 ;; Parameters:    Size  Location     Type
   908 ;;  data            1    wreg     unsigned char 
   909 ;; Auto vars:     Size  Location     Type
   910 ;;  data            1    0[COMRAM] unsigned char 
   911 ;; Return value:  Size  Location     Type
   912 ;;                  1    wreg      void 
   913 ;; Registers used:
   914 ;;		wreg
   915 ;; Tracked objects:
   916 ;;		On entry : 0/0
   917 ;;		On exit  : 0/0
   918 ;;		Unchanged: 0/0
   919 ;; Data sizes:     COMRAM   BANK0   BANK1   BANK2   BANK3   BANK4   BANK5   BANK6   BANK7   BANK8   BANK9  BANK10  BANK1
      +1  BANK12  BANK13  BANK14  BANK15
   920 ;;      Params:         0       0       0       0       0       0       0       0       0       0       0       0       
      +0       0       0       0       0
   921 ;;      Locals:         1       0       0       0       0       0       0       0       0       0       0       0       
      +0       0       0       0       0
   922 ;;      Temps:          0       0       0       0       0       0       0       0       0       0       0       0       
      +0       0       0       0       0
   923 ;;      Totals:         1       0       0       0       0       0       0       0       0       0       0       0       
      +0       0       0       0       0
   924 ;;Total ram usage:        1 bytes
   925 ;; Hardware stack levels used:    1
   926 ;; This function calls:
   927 ;;		Nothing
   928 ;; This function is called by:
   929 ;;		_main
   930 ;; This function uses a non-reentrant model
   931 ;;
   932                           
   933                           	psect	text2
   934  001A2A                     __ptext2:
   935                           	opt stack 0
   936  001A2A                     _UART2_byte_send:
   937                           	opt stack 30
   938                           
   939                           ;incstack = 0
   940                           ;UART2_byte_send@data stored from wreg
   941  001A2A  6E29               	movwf	UART2_byte_send@data,c
   942  001A2C                     l647:
   943  001A2C  A8A4               	btfss	4004,4,c	;volatile
   944  001A2E  D7FE               	goto	l647
   945                           
   946                           ;EUART.h: 65: TXREG2 = data ;
   947  001A30  C029  FF6D         	movff	UART2_byte_send@data,3949	;volatile
   948  001A34  0012               	return		;funcret
   949  001A36                     __end_of_UART2_byte_send:
   950                           	opt stack 0
   951                           tblptru	equ	0xFF8
   952                           tblptrh	equ	0xFF7
   953                           tblptrl	equ	0xFF6
   954                           tablat	equ	0xFF5
   955                           postinc0	equ	0xFEE
   956                           wreg	equ	0xFE8
   957                           status	equ	0xFD8
   958                           
   959 ;; *************** function _UART1_init *****************
   960 ;; Defined at:
   961 ;;		line 31 in file "EUART.h"
   962 ;; Parameters:    Size  Location     Type
   963 ;;		None
   964 ;; Auto vars:     Size  Location     Type
   965 ;;		None
   966 ;; Return value:  Size  Location     Type
   967 ;;                  1    wreg      void 
   968 ;; Registers used:
   969 ;;		wreg, status,2
   970 ;; Tracked objects:
   971 ;;		On entry : 0/0
   972 ;;		On exit  : 0/0
   973 ;;		Unchanged: 0/0
   974 ;; Data sizes:     COMRAM   BANK0   BANK1   BANK2   BANK3   BANK4   BANK5   BANK6   BANK7   BANK8   BANK9  BANK10  BANK1
      +1  BANK12  BANK13  BANK14  BANK15
   975 ;;      Params:         0       0       0       0       0       0       0       0       0       0       0       0       
      +0       0       0       0       0
   976 ;;      Locals:         0       0       0       0       0       0       0       0       0       0       0       0       
      +0       0       0       0       0
   977 ;;      Temps:          0       0       0       0       0       0       0       0       0       0       0       0       
      +0       0       0       0       0
   978 ;;      Totals:         0       0       0       0       0       0       0       0       0       0       0       0       
      +0       0       0       0       0
   979 ;;Total ram usage:        0 bytes
   980 ;; Hardware stack levels used:    1
   981 ;; This function calls:
   982 ;;		Nothing
   983 ;; This function is called by:
   984 ;;		_main
   985 ;; This function uses a non-reentrant model
   986 ;;
   987                           
   988                           	psect	text3
   989  0019CC                     __ptext3:
   990                           	opt stack 0
   991  0019CC                     _UART1_init:
   992                           	opt stack 30
   993                           
   994                           ;EUART.h: 34: TRISC7 = 1 ;
   995                           
   996                           ;incstack = 0
   997  0019CC  8E94               	bsf	3988,7,c	;volatile
   998                           
   999                           ;EUART.h: 37: TRISC6 = 0 ;
  1000  0019CE  9C94               	bcf	3988,6,c	;volatile
  1001                           
  1002                           ;EUART.h: 40: TXSTA1bits.SYNC = 0 ;
  1003  0019D0  98AC               	bcf	4012,4,c	;volatile
  1004                           
  1005                           ;EUART.h: 42: TXSTA1bits.BRGH = 1;
  1006  0019D2  84AC               	bsf	4012,2,c	;volatile
  1007                           
  1008                           ;EUART.h: 43: TXSTA1bits.TXEN = 1 ;
  1009  0019D4  8AAC               	bsf	4012,5,c	;volatile
  1010                           
  1011                           ;EUART.h: 44: BAUDCON1bits.BRG16 =0;
  1012  0019D6  967E               	bcf	3966,3,c	;volatile
  1013                           
  1014                           ;EUART.h: 45: SPBRG1 = 25 ;
  1015  0019D8  0E19               	movlw	25
  1016  0019DA  6EAF               	movwf	4015,c	;volatile
  1017                           
  1018                           ;EUART.h: 47: RCSTA1bits.CREN = 1 ;
  1019  0019DC  88AB               	bsf	4011,4,c	;volatile
  1020                           
  1021                           ;EUART.h: 49: RCSTA1bits.SPEN = 1 ;
  1022  0019DE  8EAB               	bsf	4011,7,c	;volatile
  1023                           
  1024                           ;EUART.h: 50: PIR1bits.TX1IF = 0;
  1025  0019E0  989E               	bcf	3998,4,c	;volatile
  1026                           
  1027                           ;EUART.h: 55: RCREG1;
  1028  0019E2  50AE               	movf	4014,w,c	;volatile
  1029  0019E4  0012               	return		;funcret
  1030  0019E6                     __end_of_UART1_init:
  1031                           	opt stack 0
  1032                           tblptru	equ	0xFF8
  1033                           tblptrh	equ	0xFF7
  1034                           tblptrl	equ	0xFF6
  1035                           tablat	equ	0xFF5
  1036                           postinc0	equ	0xFEE
  1037                           wreg	equ	0xFE8
  1038                           status	equ	0xFD8
  1039                           
  1040 ;; *************** function _UART1_byte_send *****************
  1041 ;; Defined at:
  1042 ;;		line 14 in file "EUART.h"
  1043 ;; Parameters:    Size  Location     Type
  1044 ;;  data            1    wreg     unsigned char 
  1045 ;; Auto vars:     Size  Location     Type
  1046 ;;  data            1    0[COMRAM] unsigned char 
  1047 ;; Return value:  Size  Location     Type
  1048 ;;                  1    wreg      void 
  1049 ;; Registers used:
  1050 ;;		wreg
  1051 ;; Tracked objects:
  1052 ;;		On entry : 0/0
  1053 ;;		On exit  : 0/0
  1054 ;;		Unchanged: 0/0
  1055 ;; Data sizes:     COMRAM   BANK0   BANK1   BANK2   BANK3   BANK4   BANK5   BANK6   BANK7   BANK8   BANK9  BANK10  BANK1
      +1  BANK12  BANK13  BANK14  BANK15
  1056 ;;      Params:         0       0       0       0       0       0       0       0       0       0       0       0       
      +0       0       0       0       0
  1057 ;;      Locals:         1       0       0       0       0       0       0       0       0       0       0       0       
      +0       0       0       0       0
  1058 ;;      Temps:          0       0       0       0       0       0       0       0       0       0       0       0       
      +0       0       0       0       0
  1059 ;;      Totals:         1       0       0       0       0       0       0       0       0       0       0       0       
      +0       0       0       0       0
  1060 ;;Total ram usage:        1 bytes
  1061 ;; Hardware stack levels used:    1
  1062 ;; This function calls:
  1063 ;;		Nothing
  1064 ;; This function is called by:
  1065 ;;		_main
  1066 ;; This function uses a non-reentrant model
  1067 ;;
  1068                           
  1069                           	psect	text4
  1070  001A36                     __ptext4:
  1071                           	opt stack 0
  1072  001A36                     _UART1_byte_send:
  1073                           	opt stack 30
  1074                           
  1075                           ;incstack = 0
  1076                           ;UART1_byte_send@data stored from wreg
  1077  001A36  6E29               	movwf	UART1_byte_send@data,c
  1078  001A38                     l632:
  1079  001A38  A89E               	btfss	3998,4,c	;volatile
  1080  001A3A  D7FE               	goto	l632
  1081                           
  1082                           ;EUART.h: 17: TXREG1 = data ;
  1083  001A3C  C029  FFAD         	movff	UART1_byte_send@data,4013	;volatile
  1084  001A40  0012               	return		;funcret
  1085  001A42                     __end_of_UART1_byte_send:
  1086                           	opt stack 0
  1087                           tblptru	equ	0xFF8
  1088                           tblptrh	equ	0xFF7
  1089                           tblptrl	equ	0xFF6
  1090                           tablat	equ	0xFF5
  1091                           postinc0	equ	0xFEE
  1092                           wreg	equ	0xFE8
  1093                           status	equ	0xFD8
  1094                           
  1095 ;; *************** function _SPI_init *****************
  1096 ;; Defined at:
  1097 ;;		line 37 in file "SPI.h"
  1098 ;; Parameters:    Size  Location     Type
  1099 ;;		None
  1100 ;; Auto vars:     Size  Location     Type
  1101 ;;		None
  1102 ;; Return value:  Size  Location     Type
  1103 ;;                  1    wreg      void 
  1104 ;; Registers used:
  1105 ;;		wreg
  1106 ;; Tracked objects:
  1107 ;;		On entry : 0/0
  1108 ;;		On exit  : 0/0
  1109 ;;		Unchanged: 0/0
  1110 ;; Data sizes:     COMRAM   BANK0   BANK1   BANK2   BANK3   BANK4   BANK5   BANK6   BANK7   BANK8   BANK9  BANK10  BANK1
      +1  BANK12  BANK13  BANK14  BANK15
  1111 ;;      Params:         0       0       0       0       0       0       0       0       0       0       0       0       
      +0       0       0       0       0
  1112 ;;      Locals:         0       0       0       0       0       0       0       0       0       0       0       0       
      +0       0       0       0       0
  1113 ;;      Temps:          1       0       0       0       0       0       0       0       0       0       0       0       
      +0       0       0       0       0
  1114 ;;      Totals:         1       0       0       0       0       0       0       0       0       0       0       0       
      +0       0       0       0       0
  1115 ;;Total ram usage:        1 bytes
  1116 ;; Hardware stack levels used:    1
  1117 ;; This function calls:
  1118 ;;		Nothing
  1119 ;; This function is called by:
  1120 ;;		_main
  1121 ;; This function uses a non-reentrant model
  1122 ;;
  1123                           
  1124                           	psect	text5
  1125  0018AC                     __ptext5:
  1126                           	opt stack 0
  1127  0018AC                     _SPI_init:
  1128                           	opt stack 30
  1129                           
  1130                           ;SPI.h: 39: TRISC3 =0;
  1131                           
  1132                           ;incstack = 0
  1133  0018AC  9694               	bcf	3988,3,c	;volatile
  1134                           
  1135                           ;SPI.h: 40: TRISC4 =1;
  1136  0018AE  8894               	bsf	3988,4,c	;volatile
  1137                           
  1138                           ;SPI.h: 41: TRISC5 = 0;
  1139  0018B0  9A94               	bcf	3988,5,c	;volatile
  1140                           
  1141                           ;SPI.h: 42: SMP = 0;
  1142  0018B2  9EC7               	bcf	4039,7,c	;volatile
  1143                           
  1144                           ;SPI.h: 43: CKE = 1;
  1145  0018B4  8CC7               	bsf	4039,6,c	;volatile
  1146                           
  1147                           ;SPI.h: 44: CKP = 0;
  1148  0018B6  98C6               	bcf	4038,4,c	;volatile
  1149                           
  1150                           ;SPI.h: 45: SSPM3 =0; SSPM2= 0; SSPM1=1;SSPM0=0;
  1151  0018B8  96C6               	bcf	4038,3,c	;volatile
  1152  0018BA  94C6               	bcf	4038,2,c	;volatile
  1153  0018BC  82C6               	bsf	4038,1,c	;volatile
  1154  0018BE  90C6               	bcf	4038,0,c	;volatile
  1155                           
  1156                           ;SPI.h: 47: _delay((unsigned long)((10)*(4000000/4000.0)));
  1157  0018C0  0E0D               	movlw	13
  1158  0018C2  6E29               	movwf	??_SPI_init& (0+255),c
  1159  0018C4  0EFC               	movlw	252
  1160  0018C6                     u2007:
  1161  0018C6  2EE8               	decfsz	wreg,f,c
  1162  0018C8  D7FE               	goto	u2007
  1163  0018CA  2E29               	decfsz	??_SPI_init& (0+255),f,c
  1164  0018CC  D7FC               	goto	u2007
  1165                           
  1166                           ;SPI.h: 48: SSPEN = 1;
  1167  0018CE  8AC6               	bsf	4038,5,c	;volatile
  1168                           
  1169                           ;SPI.h: 49: SSPIF = 0;
  1170  0018D0  969E               	bcf	3998,3,c	;volatile
  1171  0018D2  0012               	return		;funcret
  1172  0018D4                     __end_of_SPI_init:
  1173                           	opt stack 0
  1174                           tblptru	equ	0xFF8
  1175                           tblptrh	equ	0xFF7
  1176                           tblptrl	equ	0xFF6
  1177                           tablat	equ	0xFF5
  1178                           postinc0	equ	0xFEE
  1179                           wreg	equ	0xFE8
  1180                           status	equ	0xFD8
  1181                           
  1182 ;; *************** function _SDCARD_bir_sektor_oku *****************
  1183 ;; Defined at:
  1184 ;;		line 142 in file "SDCARD.h"
  1185 ;; Parameters:    Size  Location     Type
  1186 ;;  adres           4    2[COMRAM] unsigned long 
  1187 ;;  buff            2    6[COMRAM] PTR unsigned char 
  1188 ;;		 -> buff(64), 
  1189 ;; Auto vars:     Size  Location     Type
  1190 ;;  k               2   12[COMRAM] int 
  1191 ;;  j               2   10[COMRAM] int 
  1192 ;;  a               2    8[COMRAM] int 
  1193 ;; Return value:  Size  Location     Type
  1194 ;;                  1    wreg      void 
  1195 ;; Registers used:
  1196 ;;		wreg, fsr2l, fsr2h, status,2, status,0, cstack
  1197 ;; Tracked objects:
  1198 ;;		On entry : 0/0
  1199 ;;		On exit  : 0/0
  1200 ;;		Unchanged: 0/0
  1201 ;; Data sizes:     COMRAM   BANK0   BANK1   BANK2   BANK3   BANK4   BANK5   BANK6   BANK7   BANK8   BANK9  BANK10  BANK1
      +1  BANK12  BANK13  BANK14  BANK15
  1202 ;;      Params:         6       0       0       0       0       0       0       0       0       0       0       0       
      +0       0       0       0       0
  1203 ;;      Locals:         6       0       0       0       0       0       0       0       0       0       0       0       
      +0       0       0       0       0
  1204 ;;      Temps:          0       0       0       0       0       0       0       0       0       0       0       0       
      +0       0       0       0       0
  1205 ;;      Totals:        12       0       0       0       0       0       0       0       0       0       0       0       
      +0       0       0       0       0
  1206 ;;Total ram usage:       12 bytes
  1207 ;; Hardware stack levels used:    1
  1208 ;; Hardware stack levels required when called:    1
  1209 ;; This function calls:
  1210 ;;		_SPI_write
  1211 ;; This function is called by:
  1212 ;;		_main
  1213 ;; This function uses a non-reentrant model
  1214 ;;
  1215                           
  1216                           	psect	text6
  1217  001394                     __ptext6:
  1218                           	opt stack 0
  1219  001394                     _SDCARD_bir_sektor_oku:
  1220                           	opt stack 29
  1221                           
  1222                           ;SDCARD.h: 144: RC1 = 0 ;
  1223                           
  1224                           ;incstack = 0
  1225  001394  9282               	bcf	3970,1,c	;volatile
  1226                           
  1227                           ;SDCARD.h: 146: SPI_write ( 0x40 | 17 ) ;
  1228  001396  0E51               	movlw	81
  1229  001398  EC0B  F00D         	call	_SPI_write
  1230                           
  1231                           ;SDCARD.h: 148: SPI_write ( adres >> 24 ) ;
  1232  00139C  502E               	movf	SDCARD_bir_sektor_oku@adres+3,w,c
  1233  00139E  EC0B  F00D         	call	_SPI_write
  1234                           
  1235                           ;SDCARD.h: 149: SPI_write ( adres >> 16 ) ;
  1236  0013A2  502D               	movf	SDCARD_bir_sektor_oku@adres+2,w,c
  1237  0013A4  EC0B  F00D         	call	_SPI_write
  1238                           
  1239                           ;SDCARD.h: 150: SPI_write ( adres >> 8 ) ;
  1240  0013A8  502C               	movf	SDCARD_bir_sektor_oku@adres+1,w,c
  1241  0013AA  EC0B  F00D         	call	_SPI_write
  1242                           
  1243                           ;SDCARD.h: 151: SPI_write ( adres ) ;
  1244  0013AE  502B               	movf	SDCARD_bir_sektor_oku@adres,w,c
  1245  0013B0  EC0B  F00D         	call	_SPI_write
  1246                           
  1247                           ;SDCARD.h: 153: SPI_write ( 0xff ) ;
  1248  0013B4  0EFF               	movlw	255
  1249  0013B6  EC0B  F00D         	call	_SPI_write
  1250                           
  1251                           ;SDCARD.h: 155: for ( int a = 0 ; a < 11 ;a++ )
  1252  0013BA  0E00               	movlw	0
  1253  0013BC  6E32               	movwf	SDCARD_bir_sektor_oku@a+1,c
  1254  0013BE  0E00               	movlw	0
  1255  0013C0  6E31               	movwf	SDCARD_bir_sektor_oku@a,c
  1256  0013C2                     l2495:
  1257  0013C2  BE32               	btfsc	SDCARD_bir_sektor_oku@a+1,7,c
  1258  0013C4  D006               	goto	l2499
  1259  0013C6  5032               	movf	SDCARD_bir_sektor_oku@a+1,w,c
  1260  0013C8  E10E               	bnz	l2509
  1261  0013CA  0E0B               	movlw	11
  1262  0013CC  5C31               	subwf	SDCARD_bir_sektor_oku@a,w,c
  1263  0013CE  B0D8               	btfsc	status,0,c
  1264  0013D0  D00A               	goto	l2509
  1265  0013D2                     l2499:
  1266                           
  1267                           ;SDCARD.h: 156: {
  1268                           ;SDCARD.h: 157: cevap = SPI_write ( 0xff ) ;
  1269  0013D2  0EFF               	movlw	255
  1270  0013D4  EC0B  F00D         	call	_SPI_write
  1271  0013D8  6E15               	movwf	_cevap,c
  1272                           
  1273                           ;SDCARD.h: 158: if ( cevap == 0 ) break ;
  1274  0013DA  5015               	movf	_cevap,w,c
  1275  0013DC  B4D8               	btfsc	status,2,c
  1276  0013DE  D003               	goto	l2509
  1277  0013E0  4A31               	infsnz	SDCARD_bir_sektor_oku@a,f,c
  1278  0013E2  2A32               	incf	SDCARD_bir_sektor_oku@a+1,f,c
  1279  0013E4  D7EE               	goto	l2495
  1280  0013E6                     l2509:
  1281                           
  1282                           ;SDCARD.h: 160: }
  1283                           ;SDCARD.h: 165: if ( cevap == 0 )
  1284  0013E6  5015               	movf	_cevap,w,c
  1285  0013E8  A4D8               	btfss	status,2,c
  1286  0013EA  D044               	goto	l2549
  1287                           
  1288                           ;SDCARD.h: 166: {
  1289                           ;SDCARD.h: 171: for ( int j = 0 ; j < 10000 ; j ++ )
  1290  0013EC  0E00               	movlw	0
  1291  0013EE  6E34               	movwf	SDCARD_bir_sektor_oku@j+1,c
  1292  0013F0  0E00               	movlw	0
  1293  0013F2  6E33               	movwf	SDCARD_bir_sektor_oku@j,c
  1294  0013F4                     l2513:
  1295  0013F4  BE34               	btfsc	SDCARD_bir_sektor_oku@j+1,7,c
  1296  0013F6  D006               	goto	l2517
  1297  0013F8  0E10               	movlw	16
  1298  0013FA  5C33               	subwf	SDCARD_bir_sektor_oku@j,w,c
  1299  0013FC  0E27               	movlw	39
  1300  0013FE  5834               	subwfb	SDCARD_bir_sektor_oku@j+1,w,c
  1301  001400  B0D8               	btfsc	status,0,c
  1302  001402  D00B               	goto	l2527
  1303  001404                     l2517:
  1304                           
  1305                           ;SDCARD.h: 172: {
  1306                           ;SDCARD.h: 173: cevap = SPI_write ( 0xf ) ;
  1307  001404  0E0F               	movlw	15
  1308  001406  EC0B  F00D         	call	_SPI_write
  1309  00140A  6E15               	movwf	_cevap,c
  1310                           
  1311                           ;SDCARD.h: 174: if ( cevap == 0xfe ) break ;
  1312  00140C  0EFE               	movlw	254
  1313  00140E  1815               	xorwf	_cevap,w,c
  1314  001410  B4D8               	btfsc	status,2,c
  1315  001412  D003               	goto	l2527
  1316  001414  4A33               	infsnz	SDCARD_bir_sektor_oku@j,f,c
  1317  001416  2A34               	incf	SDCARD_bir_sektor_oku@j+1,f,c
  1318  001418  D7ED               	goto	l2513
  1319  00141A                     l2527:
  1320                           
  1321                           ;SDCARD.h: 175: }
  1322                           ;SDCARD.h: 178: if ( cevap == 0xfe )
  1323  00141A  0EFE               	movlw	254
  1324  00141C  1815               	xorwf	_cevap,w,c
  1325  00141E  A4D8               	btfss	status,2,c
  1326  001420  D029               	goto	l2549
  1327                           
  1328                           ;SDCARD.h: 179: {
  1329                           ;SDCARD.h: 182: for ( int k = 0 ; k < 512 ; k++ )
  1330  001422  0E00               	movlw	0
  1331  001424  6E36               	movwf	SDCARD_bir_sektor_oku@k+1,c
  1332  001426  0E00               	movlw	0
  1333  001428  6E35               	movwf	SDCARD_bir_sektor_oku@k,c
  1334  00142A                     l2531:
  1335  00142A  BE36               	btfsc	SDCARD_bir_sektor_oku@k+1,7,c
  1336  00142C  D004               	goto	l2535
  1337  00142E  0E02               	movlw	2
  1338  001430  5C36               	subwf	SDCARD_bir_sektor_oku@k+1,w,c
  1339  001432  B0D8               	btfsc	status,0,c
  1340  001434  D019               	goto	l2547
  1341  001436                     l2535:
  1342                           
  1343                           ;SDCARD.h: 183: {
  1344                           ;SDCARD.h: 184: cevap = SPI_write ( 0xff ) ;
  1345  001436  0EFF               	movlw	255
  1346  001438  EC0B  F00D         	call	_SPI_write
  1347  00143C  6E15               	movwf	_cevap,c
  1348                           
  1349                           ;SDCARD.h: 185: if ( k < 64 )
  1350  00143E  BE36               	btfsc	SDCARD_bir_sektor_oku@k+1,7,c
  1351  001440  D006               	goto	l2539
  1352  001442  5036               	movf	SDCARD_bir_sektor_oku@k+1,w,c
  1353  001444  E10E               	bnz	l2543
  1354  001446  0E40               	movlw	64
  1355  001448  5C35               	subwf	SDCARD_bir_sektor_oku@k,w,c
  1356  00144A  B0D8               	btfsc	status,0,c
  1357  00144C  D00A               	goto	l2543
  1358  00144E                     l2539:
  1359                           
  1360                           ;SDCARD.h: 186: {
  1361                           ;SDCARD.h: 187: buff [ k ] = cevap ;
  1362  00144E  5035               	movf	SDCARD_bir_sektor_oku@k,w,c
  1363  001450  242F               	addwf	SDCARD_bir_sektor_oku@buff,w,c
  1364  001452  6ED9               	movwf	fsr2l,c
  1365  001454  5036               	movf	SDCARD_bir_sektor_oku@k+1,w,c
  1366  001456  2030               	addwfc	SDCARD_bir_sektor_oku@buff+1,w,c
  1367  001458  6EDA               	movwf	fsr2h,c
  1368  00145A  C015  FFDF         	movff	_cevap,indf2
  1369                           
  1370                           ;SDCARD.h: 188: nisa = 'T';
  1371  00145E  0E54               	movlw	84
  1372  001460  6E19               	movwf	_nisa,c
  1373  001462                     l2543:
  1374  001462  4A35               	infsnz	SDCARD_bir_sektor_oku@k,f,c
  1375  001464  2A36               	incf	SDCARD_bir_sektor_oku@k+1,f,c
  1376  001466  D7E1               	goto	l2531
  1377  001468                     l2547:
  1378                           
  1379                           ;SDCARD.h: 189: }
  1380                           ;SDCARD.h: 191: }
  1381                           ;SDCARD.h: 193: SPI_write ( 0xff ) ;
  1382  001468  0EFF               	movlw	255
  1383  00146A  EC0B  F00D         	call	_SPI_write
  1384                           
  1385                           ;SDCARD.h: 194: SPI_write ( 0xff ) ;
  1386  00146E  0EFF               	movlw	255
  1387  001470  EC0B  F00D         	call	_SPI_write
  1388  001474                     l2549:
  1389                           
  1390                           ;SDCARD.h: 196: }
  1391                           ;SDCARD.h: 201: }
  1392                           ;SDCARD.h: 205: RC1 = 1 ;
  1393  001474  8282               	bsf	3970,1,c	;volatile
  1394  001476  0012               	return		;funcret
  1395  001478                     __end_of_SDCARD_bir_sektor_oku:
  1396                           	opt stack 0
  1397                           tblptru	equ	0xFF8
  1398                           tblptrh	equ	0xFF7
  1399                           tblptrl	equ	0xFF6
  1400                           tablat	equ	0xFF5
  1401                           postinc0	equ	0xFEE
  1402                           wreg	equ	0xFE8
  1403                           indf2	equ	0xFDF
  1404                           fsr2h	equ	0xFDA
  1405                           fsr2l	equ	0xFD9
  1406                           status	equ	0xFD8
  1407                           
  1408 ;; *************** function _SDCARD_baslat *****************
  1409 ;; Defined at:
  1410 ;;		line 217 in file "SDCARD.h"
  1411 ;; Parameters:    Size  Location     Type
  1412 ;;		None
  1413 ;; Auto vars:     Size  Location     Type
  1414 ;;  a               2   17[COMRAM] int 
  1415 ;; Return value:  Size  Location     Type
  1416 ;;                  1    wreg      void 
  1417 ;; Registers used:
  1418 ;;		wreg, fsr0l, fsr0h, status,2, status,0, tblptrl, tblptrh, tblptru, cstack
  1419 ;; Tracked objects:
  1420 ;;		On entry : 0/0
  1421 ;;		On exit  : 0/0
  1422 ;;		Unchanged: 0/0
  1423 ;; Data sizes:     COMRAM   BANK0   BANK1   BANK2   BANK3   BANK4   BANK5   BANK6   BANK7   BANK8   BANK9  BANK10  BANK1
      +1  BANK12  BANK13  BANK14  BANK15
  1424 ;;      Params:         0       0       0       0       0       0       0       0       0       0       0       0       
      +0       0       0       0       0
  1425 ;;      Locals:         2       0       0       0       0       0       0       0       0       0       0       0       
      +0       0       0       0       0
  1426 ;;      Temps:          0       0       0       0       0       0       0       0       0       0       0       0       
      +0       0       0       0       0
  1427 ;;      Totals:         2       0       0       0       0       0       0       0       0       0       0       0       
      +0       0       0       0       0
  1428 ;;Total ram usage:        2 bytes
  1429 ;; Hardware stack levels used:    1
  1430 ;; Hardware stack levels required when called:    6
  1431 ;; This function calls:
  1432 ;;		_DELAY
  1433 ;;		_SDCARD_send_command
  1434 ;;		_SPI_write
  1435 ;;		_lcd_write
  1436 ;; This function is called by:
  1437 ;;		_main
  1438 ;; This function uses a non-reentrant model
  1439 ;;
  1440                           
  1441                           	psect	text7
  1442  00101E                     __ptext7:
  1443                           	opt stack 0
  1444  00101E                     _SDCARD_baslat:
  1445                           	opt stack 24
  1446                           
  1447                           ;SDCARD.h: 220: DELAY ( 100 ) ;
  1448                           
  1449                           ;incstack = 0
  1450  00101E  0E64               	movlw	100
  1451  001020  ECCB  F00C         	call	_DELAY
  1452                           
  1453                           ;SDCARD.h: 222: RC1 = 1 ;
  1454  001024  8282               	bsf	3970,1,c	;volatile
  1455                           
  1456                           ;SDCARD.h: 223: for ( int a = 0 ; a < 11 ; a++ )
  1457  001026  0E00               	movlw	0
  1458  001028  6E3B               	movwf	SDCARD_baslat@a+1,c
  1459  00102A  0E00               	movlw	0
  1460  00102C  6E3A               	movwf	SDCARD_baslat@a,c
  1461  00102E                     l2557:
  1462  00102E  BE3B               	btfsc	SDCARD_baslat@a+1,7,c
  1463  001030  D006               	goto	l2561
  1464  001032  503B               	movf	SDCARD_baslat@a+1,w,c
  1465  001034  E10A               	bnz	l2567
  1466  001036  0E0B               	movlw	11
  1467  001038  5C3A               	subwf	SDCARD_baslat@a,w,c
  1468  00103A  B0D8               	btfsc	status,0,c
  1469  00103C  D006               	goto	l2567
  1470  00103E                     l2561:
  1471                           
  1472                           ;SDCARD.h: 224: SPI_write ( 0xff ) ;
  1473  00103E  0EFF               	movlw	255
  1474  001040  EC0B  F00D         	call	_SPI_write
  1475  001044  4A3A               	infsnz	SDCARD_baslat@a,f,c
  1476  001046  2A3B               	incf	SDCARD_baslat@a+1,f,c
  1477  001048  D7F2               	goto	l2557
  1478  00104A                     l2567:
  1479                           
  1480                           ;SDCARD.h: 226: DELAY ( 100 ) ;
  1481  00104A  0E64               	movlw	100
  1482  00104C  ECCB  F00C         	call	_DELAY
  1483                           
  1484                           ;SDCARD.h: 229: cevap = SDCARD_send_command(0x40, 0, 0x95);
  1485  001050  0E00               	movlw	0
  1486  001052  6E2B               	movwf	SDCARD_send_command@param,c
  1487  001054  0E00               	movlw	0
  1488  001056  6E2C               	movwf	SDCARD_send_command@param+1,c
  1489  001058  0E00               	movlw	0
  1490  00105A  6E2D               	movwf	SDCARD_send_command@param+2,c
  1491  00105C  0E00               	movlw	0
  1492  00105E  6E2E               	movwf	SDCARD_send_command@param+3,c
  1493  001060  0E95               	movlw	149
  1494  001062  6E2F               	movwf	SDCARD_send_command@crc,c
  1495  001064  0E40               	movlw	64
  1496  001066  ECC7  F00A         	call	_SDCARD_send_command
  1497  00106A  6E15               	movwf	_cevap,c
  1498                           
  1499                           ;SDCARD.h: 231: if(cevap != 0x1){ lcd_write("E");
  1500  00106C  0415               	decf	_cevap,w,c
  1501  00106E  B4D8               	btfsc	status,2,c
  1502  001070  D007               	goto	l2573
  1503  001072  0E18               	movlw	low STR_1
  1504  001074  6E37               	movwf	lcd_write@s,c
  1505  001076  0E10               	movlw	high STR_1
  1506  001078  6E38               	movwf	lcd_write@s+1,c
  1507  00107A  EC8C  F00A         	call	_lcd_write	;wreg free
  1508  00107E                     l613:
  1509  00107E  D7FF               	goto	l613
  1510  001080                     l2573:
  1511                           
  1512                           ;SDCARD.h: 236: cevap = SDCARD_send_command(0x48, 0x1aa, 0x87);
  1513  001080  0EAA               	movlw	170
  1514  001082  6E2B               	movwf	SDCARD_send_command@param,c
  1515  001084  0E01               	movlw	1
  1516  001086  6E2C               	movwf	SDCARD_send_command@param+1,c
  1517  001088  0E00               	movlw	0
  1518  00108A  6E2D               	movwf	SDCARD_send_command@param+2,c
  1519  00108C  0E00               	movlw	0
  1520  00108E  6E2E               	movwf	SDCARD_send_command@param+3,c
  1521  001090  0E87               	movlw	135
  1522  001092  6E2F               	movwf	SDCARD_send_command@crc,c
  1523  001094  0E48               	movlw	72
  1524  001096  ECC7  F00A         	call	_SDCARD_send_command
  1525  00109A  6E15               	movwf	_cevap,c
  1526                           
  1527                           ;SDCARD.h: 237: if(cevap & 4){ lcd_write("i");
  1528  00109C  A415               	btfss	_cevap,2,c
  1529  00109E  D006               	goto	l2579
  1530  0010A0  0E1A               	movlw	low STR_2
  1531  0010A2  6E37               	movwf	lcd_write@s,c
  1532  0010A4  0E10               	movlw	high STR_2
  1533  0010A6  6E38               	movwf	lcd_write@s+1,c
  1534  0010A8  EC8C  F00A         	call	_lcd_write	;wreg free
  1535  0010AC                     l2579:
  1536                           
  1537                           ;SDCARD.h: 238: }
  1538                           ;SDCARD.h: 241: cevap = SDCARD_send_command(0x77, 0, 1);
  1539  0010AC  0E00               	movlw	0
  1540  0010AE  6E2B               	movwf	SDCARD_send_command@param,c
  1541  0010B0  0E00               	movlw	0
  1542  0010B2  6E2C               	movwf	SDCARD_send_command@param+1,c
  1543  0010B4  0E00               	movlw	0
  1544  0010B6  6E2D               	movwf	SDCARD_send_command@param+2,c
  1545  0010B8  0E00               	movlw	0
  1546  0010BA  6E2E               	movwf	SDCARD_send_command@param+3,c
  1547  0010BC  0E01               	movlw	1
  1548  0010BE  6E2F               	movwf	SDCARD_send_command@crc,c
  1549  0010C0  0E77               	movlw	119
  1550  0010C2  ECC7  F00A         	call	_SDCARD_send_command
  1551  0010C6  6E15               	movwf	_cevap,c
  1552                           
  1553                           ;SDCARD.h: 243: if(cevap != 0x1){ lcd_write("E2");
  1554  0010C8  0415               	decf	_cevap,w,c
  1555  0010CA  B4D8               	btfsc	status,2,c
  1556  0010CC  D007               	goto	l2585
  1557  0010CE  0E15               	movlw	low STR_3
  1558  0010D0  6E37               	movwf	lcd_write@s,c
  1559  0010D2  0E10               	movlw	high STR_3
  1560  0010D4  6E38               	movwf	lcd_write@s+1,c
  1561  0010D6  EC8C  F00A         	call	_lcd_write	;wreg free
  1562  0010DA                     l618:
  1563  0010DA  D7FF               	goto	l618
  1564  0010DC                     l2585:
  1565                           
  1566                           ;SDCARD.h: 246: cevap = SDCARD_send_command(0x69, 0x40000000, 0x1 );
  1567  0010DC  0E00               	movlw	0
  1568  0010DE  6E2B               	movwf	SDCARD_send_command@param,c
  1569  0010E0  0E00               	movlw	0
  1570  0010E2  6E2C               	movwf	SDCARD_send_command@param+1,c
  1571  0010E4  0E00               	movlw	0
  1572  0010E6  6E2D               	movwf	SDCARD_send_command@param+2,c
  1573  0010E8  0E40               	movlw	64
  1574  0010EA  6E2E               	movwf	SDCARD_send_command@param+3,c
  1575  0010EC  0E01               	movlw	1
  1576  0010EE  6E2F               	movwf	SDCARD_send_command@crc,c
  1577  0010F0  0E69               	movlw	105
  1578  0010F2  ECC7  F00A         	call	_SDCARD_send_command
  1579  0010F6  6E15               	movwf	_cevap,c
  1580                           
  1581                           ;SDCARD.h: 248: if(cevap & 4)
  1582  0010F8  A415               	btfss	_cevap,2,c
  1583  0010FA  D019               	goto	l2597
  1584                           
  1585                           ;SDCARD.h: 249: {
  1586                           ;SDCARD.h: 250: lcd_write("illegal");
  1587  0010FC  0E0D               	movlw	low STR_4
  1588  0010FE  6E37               	movwf	lcd_write@s,c
  1589  001100  0E10               	movlw	high STR_4
  1590  001102  6E38               	movwf	lcd_write@s+1,c
  1591  001104  EC8C  F00A         	call	_lcd_write	;wreg free
  1592                           
  1593                           ;SDCARD.h: 253: cevap = 1;
  1594  001108  0E01               	movlw	1
  1595  00110A  D00D               	goto	L1
  1596  00110C                     l2593:
  1597  00110C  0E00               	movlw	0
  1598  00110E  6E2B               	movwf	SDCARD_send_command@param,c
  1599  001110  0E00               	movlw	0
  1600  001112  6E2C               	movwf	SDCARD_send_command@param+1,c
  1601  001114  0E00               	movlw	0
  1602  001116  6E2D               	movwf	SDCARD_send_command@param+2,c
  1603  001118  0E00               	movlw	0
  1604  00111A  6E2E               	movwf	SDCARD_send_command@param+3,c
  1605  00111C  0EFF               	movlw	255
  1606  00111E  6E2F               	movwf	SDCARD_send_command@crc,c
  1607  001120  0E41               	movlw	65
  1608  001122  ECC7  F00A         	call	_SDCARD_send_command
  1609  001126                     L1:
  1610  001126  6E15               	movwf	_cevap,c
  1611  001128  5015               	movf	_cevap,w,c
  1612  00112A  A4D8               	btfss	status,2,c
  1613  00112C  D7EF               	goto	l2593
  1614  00112E                     l2597:
  1615                           
  1616                           ;SDCARD.h: 255: }
  1617                           ;SDCARD.h: 258: cevap = SDCARD_send_command(0x50, 512, 1);
  1618  00112E  0E00               	movlw	0
  1619  001130  6E2B               	movwf	SDCARD_send_command@param,c
  1620  001132  0E02               	movlw	2
  1621  001134  6E2C               	movwf	SDCARD_send_command@param+1,c
  1622  001136  0E00               	movlw	0
  1623  001138  6E2D               	movwf	SDCARD_send_command@param+2,c
  1624  00113A  0E00               	movlw	0
  1625  00113C  6E2E               	movwf	SDCARD_send_command@param+3,c
  1626  00113E  0E01               	movlw	1
  1627  001140  6E2F               	movwf	SDCARD_send_command@crc,c
  1628  001142  0E50               	movlw	80
  1629  001144  ECC7  F00A         	call	_SDCARD_send_command
  1630  001148  6E15               	movwf	_cevap,c
  1631                           
  1632                           ;SDCARD.h: 260: if(cevap != 0)
  1633  00114A  5015               	movf	_cevap,w,c
  1634  00114C  B4D8               	btfsc	status,2,c
  1635  00114E  0012               	return	
  1636                           
  1637                           ;SDCARD.h: 261: {
  1638                           ;SDCARD.h: 262: lcd_write("illegal");
  1639  001150  0E0D               	movlw	low STR_4
  1640  001152  6E37               	movwf	lcd_write@s,c
  1641  001154  0E10               	movlw	high STR_4
  1642  001156  6E38               	movwf	lcd_write@s+1,c
  1643  001158  EC8C  F00A         	call	_lcd_write	;wreg free
  1644  00115C                     l626:
  1645  00115C  D7FF               	goto	l626
  1646  00115E                     __end_of_SDCARD_baslat:
  1647                           	opt stack 0
  1648                           tblptru	equ	0xFF8
  1649                           tblptrh	equ	0xFF7
  1650                           tblptrl	equ	0xFF6
  1651                           tablat	equ	0xFF5
  1652                           postinc0	equ	0xFEE
  1653                           wreg	equ	0xFE8
  1654                           indf2	equ	0xFDF
  1655                           fsr2h	equ	0xFDA
  1656                           fsr2l	equ	0xFD9
  1657                           status	equ	0xFD8
  1658                           
  1659 ;; *************** function _lcd_write *****************
  1660 ;; Defined at:
  1661 ;;		line 166 in file "ShiftLCD.h"
  1662 ;; Parameters:    Size  Location     Type
  1663 ;;  s               2   14[COMRAM] PTR const unsigned char 
  1664 ;;		 -> STR_6(12), STR_5(8), STR_4(8), STR_3(3), 
  1665 ;;		 -> STR_2(2), STR_1(2), number_array(5), 
  1666 ;; Auto vars:     Size  Location     Type
  1667 ;;		None
  1668 ;; Return value:  Size  Location     Type
  1669 ;;                  1    wreg      void 
  1670 ;; Registers used:
  1671 ;;		wreg, fsr0l, fsr0h, status,2, status,0, tblptrl, tblptrh, tblptru, cstack
  1672 ;; Tracked objects:
  1673 ;;		On entry : 0/0
  1674 ;;		On exit  : 0/0
  1675 ;;		Unchanged: 0/0
  1676 ;; Data sizes:     COMRAM   BANK0   BANK1   BANK2   BANK3   BANK4   BANK5   BANK6   BANK7   BANK8   BANK9  BANK10  BANK1
      +1  BANK12  BANK13  BANK14  BANK15
  1677 ;;      Params:         2       0       0       0       0       0       0       0       0       0       0       0       
      +0       0       0       0       0
  1678 ;;      Locals:         0       0       0       0       0       0       0       0       0       0       0       0       
      +0       0       0       0       0
  1679 ;;      Temps:          1       0       0       0       0       0       0       0       0       0       0       0       
      +0       0       0       0       0
  1680 ;;      Totals:         3       0       0       0       0       0       0       0       0       0       0       0       
      +0       0       0       0       0
  1681 ;;Total ram usage:        3 bytes
  1682 ;; Hardware stack levels used:    1
  1683 ;; Hardware stack levels required when called:    5
  1684 ;; This function calls:
  1685 ;;		_lcd_yaz
  1686 ;; This function is called by:
  1687 ;;		_SDCARD_baslat
  1688 ;;		_main
  1689 ;;		_lcd_write_number
  1690 ;; This function uses a non-reentrant model
  1691 ;;
  1692                           
  1693                           	psect	text8
  1694  001518                     __ptext8:
  1695                           	opt stack 0
  1696  001518                     _lcd_write:
  1697                           	opt stack 25
  1698                           
  1699                           ;ShiftLCD.h: 168: _delay((unsigned long)((1)*(4000000/4000.0)));
  1700                           
  1701                           ;incstack = 0
  1702  001518  0EFA               	movlw	250
  1703  00151A                     u2017:
  1704  00151A  F000               	nop	
  1705  00151C  2EE8               	decfsz	wreg,f,c
  1706  00151E  D7FD               	goto	u2017
  1707                           
  1708                           ;ShiftLCD.h: 169: while(*s){lcd_yaz(*s++); _delay((unsigned long)((1)*(4000000/4000.0)))
      +                          ;}
  1709  001520  D019               	goto	l2247
  1710  001522                     l2241:
  1711  001522  C037  FFF6         	movff	lcd_write@s,tblptrl
  1712  001526  C038  FFF7         	movff	lcd_write@s+1,tblptrh
  1713  00152A  0E00               	movlw	low (__smallconst shr (0+16))
  1714  00152C  6EF8               	movwf	tblptru,c
  1715  00152E  0E0F               	movlw	(high __ramtop+-1)
  1716  001530  64F7               	cpfsgt	tblptrh,c
  1717  001532  D003               	bra	u1237
  1718  001534  0008               	tblrd		*
  1719  001536  50F5               	movf	tablat,w,c
  1720  001538  D005               	bra	u1230
  1721  00153A                     u1237:
  1722  00153A  CFF6 FFE9          	movff	tblptrl,fsr0l
  1723  00153E  CFF7 FFEA          	movff	tblptrh,fsr0h
  1724  001542  50EF               	movf	indf0,w,c
  1725  001544                     u1230:
  1726  001544  EC26  F00C         	call	_lcd_yaz
  1727  001548  4A37               	infsnz	lcd_write@s,f,c
  1728  00154A  2A38               	incf	lcd_write@s+1,f,c
  1729  00154C  0EFA               	movlw	250
  1730  00154E                     u2027:
  1731  00154E  F000               	nop	
  1732  001550  2EE8               	decfsz	wreg,f,c
  1733  001552  D7FD               	goto	u2027
  1734  001554                     l2247:
  1735  001554  C037  FFF6         	movff	lcd_write@s,tblptrl
  1736  001558  C038  FFF7         	movff	lcd_write@s+1,tblptrh
  1737  00155C  0E00               	movlw	low (__smallconst shr (0+16))
  1738  00155E  6EF8               	movwf	tblptru,c
  1739  001560  0E0F               	movlw	(high __ramtop+-1)
  1740  001562  64F7               	cpfsgt	tblptrh,c
  1741  001564  D003               	bra	u1247
  1742  001566  0008               	tblrd		*
  1743  001568  50F5               	movf	tablat,w,c
  1744  00156A  D005               	bra	u1240
  1745  00156C                     u1247:
  1746  00156C  CFF6 FFE9          	movff	tblptrl,fsr0l
  1747  001570  CFF7 FFEA          	movff	tblptrh,fsr0h
  1748  001574  50EF               	movf	indf0,w,c
  1749  001576                     u1240:
  1750  001576  0900               	iorlw	0
  1751  001578  A4D8               	btfss	status,2,c
  1752  00157A  D7D3               	goto	l2241
  1753                           
  1754                           ;ShiftLCD.h: 170: _delay((unsigned long)((3)*(4000000/4000.0)));
  1755  00157C  0E04               	movlw	4
  1756  00157E  6E39               	movwf	??_lcd_write& (0+255),c
  1757  001580  0EE4               	movlw	228
  1758  001582                     u2037:
  1759  001582  2EE8               	decfsz	wreg,f,c
  1760  001584  D7FE               	goto	u2037
  1761  001586  2E39               	decfsz	??_lcd_write& (0+255),f,c
  1762  001588  D7FC               	goto	u2037
  1763  00158A  D000               	nop2	
  1764  00158C  0012               	return		;funcret
  1765  00158E                     __end_of_lcd_write:
  1766                           	opt stack 0
  1767                           tblptru	equ	0xFF8
  1768                           tblptrh	equ	0xFF7
  1769                           tblptrl	equ	0xFF6
  1770                           tablat	equ	0xFF5
  1771                           indf0	equ	0xFEF
  1772                           postinc0	equ	0xFEE
  1773                           fsr0h	equ	0xFEA
  1774                           fsr0l	equ	0xFE9
  1775                           wreg	equ	0xFE8
  1776                           indf2	equ	0xFDF
  1777                           fsr2h	equ	0xFDA
  1778                           fsr2l	equ	0xFD9
  1779                           status	equ	0xFD8
  1780                           
  1781 ;; *************** function _lcd_yaz *****************
  1782 ;; Defined at:
  1783 ;;		line 215 in file "ShiftLCD.h"
  1784 ;; Parameters:    Size  Location     Type
  1785 ;;  data            1    wreg     unsigned char 
  1786 ;; Auto vars:     Size  Location     Type
  1787 ;;  data            1   13[COMRAM] unsigned char 
  1788 ;; Return value:  Size  Location     Type
  1789 ;;                  1    wreg      void 
  1790 ;; Registers used:
  1791 ;;		wreg, status,2, status,0, cstack
  1792 ;; Tracked objects:
  1793 ;;		On entry : 0/0
  1794 ;;		On exit  : 0/0
  1795 ;;		Unchanged: 0/0
  1796 ;; Data sizes:     COMRAM   BANK0   BANK1   BANK2   BANK3   BANK4   BANK5   BANK6   BANK7   BANK8   BANK9  BANK10  BANK1
      +1  BANK12  BANK13  BANK14  BANK15
  1797 ;;      Params:         0       0       0       0       0       0       0       0       0       0       0       0       
      +0       0       0       0       0
  1798 ;;      Locals:         1       0       0       0       0       0       0       0       0       0       0       0       
      +0       0       0       0       0
  1799 ;;      Temps:          0       0       0       0       0       0       0       0       0       0       0       0       
      +0       0       0       0       0
  1800 ;;      Totals:         1       0       0       0       0       0       0       0       0       0       0       0       
      +0       0       0       0       0
  1801 ;;Total ram usage:        1 bytes
  1802 ;; Hardware stack levels used:    1
  1803 ;; Hardware stack levels required when called:    4
  1804 ;; This function calls:
  1805 ;;		_lcd_goto
  1806 ;;		_lcd_info
  1807 ;; This function is called by:
  1808 ;;		_lcd_write
  1809 ;;		_display_message
  1810 ;; This function uses a non-reentrant model
  1811 ;;
  1812                           
  1813                           	psect	text9
  1814  00184C                     __ptext9:
  1815                           	opt stack 0
  1816  00184C                     _lcd_yaz:
  1817                           	opt stack 25
  1818                           
  1819                           ;incstack = 0
  1820                           ;lcd_yaz@data stored from wreg
  1821  00184C  6E36               	movwf	lcd_yaz@data,c
  1822                           
  1823                           ;ShiftLCD.h: 217: lcd_info(data, 1);
  1824  00184E  0E01               	movlw	1
  1825  001850  6E31               	movwf	lcd_info@data_type,c
  1826  001852  5036               	movf	lcd_yaz@data,w,c
  1827  001854  EC42  F009         	call	_lcd_info
  1828                           
  1829                           ;ShiftLCD.h: 218: _x++;
  1830  001858  2A3F               	incf	__x,f,c
  1831                           
  1832                           ;ShiftLCD.h: 219: if(_x == 17)
  1833  00185A  0E11               	movlw	17
  1834  00185C  183F               	xorwf	__x,w,c
  1835  00185E  A4D8               	btfss	status,2,c
  1836  001860  0012               	return	
  1837                           
  1838                           ;ShiftLCD.h: 220: {
  1839                           ;ShiftLCD.h: 221: _x = 1;
  1840  001862  0E01               	movlw	1
  1841  001864  6E3F               	movwf	__x,c
  1842                           
  1843                           ;ShiftLCD.h: 222: _y++;
  1844  001866  2A40               	incf	__y,f,c
  1845                           
  1846                           ;ShiftLCD.h: 223: if(_y == 3)
  1847  001868  0E03               	movlw	3
  1848  00186A  1840               	xorwf	__y,w,c
  1849  00186C  A4D8               	btfss	status,2,c
  1850  00186E  D002               	goto	l2225
  1851                           
  1852                           ;ShiftLCD.h: 224: {
  1853                           ;ShiftLCD.h: 225: _y = 1;
  1854  001870  0E01               	movlw	1
  1855  001872  6E40               	movwf	__y,c
  1856  001874                     l2225:
  1857                           
  1858                           ;ShiftLCD.h: 226: }
  1859                           ;ShiftLCD.h: 228: lcd_goto(_y, _x);
  1860  001874  C03F  F034         	movff	__x,lcd_goto@p_2
  1861  001878  5040               	movf	__y,w,c
  1862  00187A  EC0A  F00C         	call	_lcd_goto
  1863  00187E  0012               	return	
  1864  001880                     __end_of_lcd_yaz:
  1865                           	opt stack 0
  1866                           tblptru	equ	0xFF8
  1867                           tblptrh	equ	0xFF7
  1868                           tblptrl	equ	0xFF6
  1869                           tablat	equ	0xFF5
  1870                           indf0	equ	0xFEF
  1871                           postinc0	equ	0xFEE
  1872                           fsr0h	equ	0xFEA
  1873                           fsr0l	equ	0xFE9
  1874                           wreg	equ	0xFE8
  1875                           indf2	equ	0xFDF
  1876                           fsr2h	equ	0xFDA
  1877                           fsr2l	equ	0xFD9
  1878                           status	equ	0xFD8
  1879                           
  1880 ;; *************** function _SDCARD_send_command *****************
  1881 ;; Defined at:
  1882 ;;		line 30 in file "SDCARD.h"
  1883 ;; Parameters:    Size  Location     Type
  1884 ;;  command         1    wreg     unsigned char 
  1885 ;;  param           4    2[COMRAM] unsigned long 
  1886 ;;  crc             1    6[COMRAM] unsigned char 
  1887 ;; Auto vars:     Size  Location     Type
  1888 ;;  command         1    7[COMRAM] unsigned char 
  1889 ;;  j               1    9[COMRAM] unsigned char 
  1890 ;;  response        1    8[COMRAM] unsigned char 
  1891 ;; Return value:  Size  Location     Type
  1892 ;;                  1    wreg      unsigned char 
  1893 ;; Registers used:
  1894 ;;		wreg, status,2, status,0, cstack
  1895 ;; Tracked objects:
  1896 ;;		On entry : 0/0
  1897 ;;		On exit  : 0/0
  1898 ;;		Unchanged: 0/0
  1899 ;; Data sizes:     COMRAM   BANK0   BANK1   BANK2   BANK3   BANK4   BANK5   BANK6   BANK7   BANK8   BANK9  BANK10  BANK1
      +1  BANK12  BANK13  BANK14  BANK15
  1900 ;;      Params:         5       0       0       0       0       0       0       0       0       0       0       0       
      +0       0       0       0       0
  1901 ;;      Locals:         3       0       0       0       0       0       0       0       0       0       0       0       
      +0       0       0       0       0
  1902 ;;      Temps:          0       0       0       0       0       0       0       0       0       0       0       0       
      +0       0       0       0       0
  1903 ;;      Totals:         8       0       0       0       0       0       0       0       0       0       0       0       
      +0       0       0       0       0
  1904 ;;Total ram usage:        8 bytes
  1905 ;; Hardware stack levels used:    1
  1906 ;; Hardware stack levels required when called:    1
  1907 ;; This function calls:
  1908 ;;		_DELAY
  1909 ;;		_SPI_write
  1910 ;; This function is called by:
  1911 ;;		_SDCARD_baslat
  1912 ;; This function uses a non-reentrant model
  1913 ;;
  1914                           
  1915                           	psect	text10
  1916  00158E                     __ptext10:
  1917                           	opt stack 0
  1918  00158E                     _SDCARD_send_command:
  1919                           	opt stack 28
  1920                           
  1921                           ;incstack = 0
  1922                           ;SDCARD_send_command@command stored from wreg
  1923  00158E  6E30               	movwf	SDCARD_send_command@command,c
  1924                           
  1925                           ;SDCARD.h: 32: byte response = 0;
  1926  001590  0E00               	movlw	0
  1927  001592  6E31               	movwf	SDCARD_send_command@response,c
  1928                           
  1929                           ;SDCARD.h: 33: RC1 = 0;
  1930  001594  9282               	bcf	3970,1,c	;volatile
  1931                           
  1932                           ;SDCARD.h: 35: SPI_write ( command ) ;
  1933  001596  5030               	movf	SDCARD_send_command@command,w,c
  1934  001598  EC0B  F00D         	call	_SPI_write
  1935                           
  1936                           ;SDCARD.h: 37: SPI_write ( param >> 24 ) ;
  1937  00159C  502E               	movf	SDCARD_send_command@param+3,w,c
  1938  00159E  EC0B  F00D         	call	_SPI_write
  1939                           
  1940                           ;SDCARD.h: 38: SPI_write ( param >> 16 ) ;
  1941  0015A2  502D               	movf	SDCARD_send_command@param+2,w,c
  1942  0015A4  EC0B  F00D         	call	_SPI_write
  1943                           
  1944                           ;SDCARD.h: 39: SPI_write ( param >> 8 ) ;
  1945  0015A8  502C               	movf	SDCARD_send_command@param+1,w,c
  1946  0015AA  EC0B  F00D         	call	_SPI_write
  1947                           
  1948                           ;SDCARD.h: 40: SPI_write ( param & 0xff ) ;
  1949  0015AE  502B               	movf	SDCARD_send_command@param,w,c
  1950  0015B0  EC0B  F00D         	call	_SPI_write
  1951                           
  1952                           ;SDCARD.h: 42: SPI_write ( crc ) ;
  1953  0015B4  502F               	movf	SDCARD_send_command@crc,w,c
  1954  0015B6  EC0B  F00D         	call	_SPI_write
  1955  0015BA                     l2283:
  1956  0015BA  0EFF               	movlw	255
  1957  0015BC  EC0B  F00D         	call	_SPI_write
  1958  0015C0  6E31               	movwf	SDCARD_send_command@response,c
  1959  0015C2  2831               	incf	SDCARD_send_command@response,w,c
  1960  0015C4  B4D8               	btfsc	status,2,c
  1961  0015C6  D7F9               	goto	l2283
  1962                           
  1963                           ;SDCARD.h: 46: for(byte j=0; j < 5; j++) SPI_write(0xff);
  1964  0015C8  0E00               	movlw	0
  1965  0015CA  6E32               	movwf	SDCARD_send_command@j,c
  1966  0015CC                     l2287:
  1967  0015CC  0E04               	movlw	4
  1968  0015CE  6432               	cpfsgt	SDCARD_send_command@j,c
  1969  0015D0  D001               	goto	l2291
  1970  0015D2  D005               	goto	l2297
  1971  0015D4                     l2291:
  1972  0015D4  0EFF               	movlw	255
  1973  0015D6  EC0B  F00D         	call	_SPI_write
  1974  0015DA  2A32               	incf	SDCARD_send_command@j,f,c
  1975  0015DC  D7F7               	goto	l2287
  1976  0015DE                     l2297:
  1977                           
  1978                           ;SDCARD.h: 48: DELAY(10);
  1979  0015DE  0E0A               	movlw	10
  1980  0015E0  ECCB  F00C         	call	_DELAY
  1981                           
  1982                           ;SDCARD.h: 49: RC1 = 1;
  1983  0015E4  8282               	bsf	3970,1,c	;volatile
  1984                           
  1985                           ;SDCARD.h: 50: return response;
  1986  0015E6  5031               	movf	SDCARD_send_command@response,w,c
  1987  0015E8  0012               	return	
  1988  0015EA                     __end_of_SDCARD_send_command:
  1989                           	opt stack 0
  1990                           tblptru	equ	0xFF8
  1991                           tblptrh	equ	0xFF7
  1992                           tblptrl	equ	0xFF6
  1993                           tablat	equ	0xFF5
  1994                           indf0	equ	0xFEF
  1995                           postinc0	equ	0xFEE
  1996                           fsr0h	equ	0xFEA
  1997                           fsr0l	equ	0xFE9
  1998                           wreg	equ	0xFE8
  1999                           indf2	equ	0xFDF
  2000                           fsr2h	equ	0xFDA
  2001                           fsr2l	equ	0xFD9
  2002                           status	equ	0xFD8
  2003                           
  2004 ;; *************** function _SPI_write *****************
  2005 ;; Defined at:
  2006 ;;		line 15 in file "SPI.h"
  2007 ;; Parameters:    Size  Location     Type
  2008 ;;  data            1    wreg     unsigned char 
  2009 ;; Auto vars:     Size  Location     Type
  2010 ;;  data            1    1[COMRAM] unsigned char 
  2011 ;;  received        1    0[COMRAM] unsigned char 
  2012 ;; Return value:  Size  Location     Type
  2013 ;;                  1    wreg      unsigned char 
  2014 ;; Registers used:
  2015 ;;		wreg, status,2
  2016 ;; Tracked objects:
  2017 ;;		On entry : 0/0
  2018 ;;		On exit  : 0/0
  2019 ;;		Unchanged: 0/0
  2020 ;; Data sizes:     COMRAM   BANK0   BANK1   BANK2   BANK3   BANK4   BANK5   BANK6   BANK7   BANK8   BANK9  BANK10  BANK1
      +1  BANK12  BANK13  BANK14  BANK15
  2021 ;;      Params:         0       0       0       0       0       0       0       0       0       0       0       0       
      +0       0       0       0       0
  2022 ;;      Locals:         2       0       0       0       0       0       0       0       0       0       0       0       
      +0       0       0       0       0
  2023 ;;      Temps:          0       0       0       0       0       0       0       0       0       0       0       0       
      +0       0       0       0       0
  2024 ;;      Totals:         2       0       0       0       0       0       0       0       0       0       0       0       
      +0       0       0       0       0
  2025 ;;Total ram usage:        2 bytes
  2026 ;; Hardware stack levels used:    1
  2027 ;; This function calls:
  2028 ;;		Nothing
  2029 ;; This function is called by:
  2030 ;;		_SDCARD_send_command
  2031 ;;		_SDCARD_bir_sektor_oku
  2032 ;;		_SDCARD_baslat
  2033 ;;		_SDCARD_bir_sektor_yaz
  2034 ;; This function uses a non-reentrant model
  2035 ;;
  2036                           
  2037                           	psect	text11
  2038  001A16                     __ptext11:
  2039                           	opt stack 0
  2040  001A16                     _SPI_write:
  2041                           	opt stack 29
  2042                           
  2043                           ;incstack = 0
  2044                           ;SPI_write@data stored from wreg
  2045  001A16  6E2A               	movwf	SPI_write@data,c
  2046                           
  2047                           ;SPI.h: 17: SSPBUF = data;
  2048  001A18  C02A  FFC9         	movff	SPI_write@data,4041	;volatile
  2049                           
  2050                           ;SPI.h: 18: byte received = 0;
  2051  001A1C  0E00               	movlw	0
  2052  001A1E  6E29               	movwf	SPI_write@received,c
  2053  001A20                     l409:
  2054  001A20  A0C7               	btfss	4039,0,c	;volatile
  2055  001A22  D7FE               	goto	l409
  2056                           
  2057                           ;SPI.h: 20: SSPIF = 0;
  2058  001A24  969E               	bcf	3998,3,c	;volatile
  2059                           
  2060                           ;SPI.h: 21: return SSPBUF;
  2061  001A26  50C9               	movf	4041,w,c	;volatile
  2062  001A28  0012               	return		;funcret
  2063  001A2A                     __end_of_SPI_write:
  2064                           	opt stack 0
  2065                           tblptru	equ	0xFF8
  2066                           tblptrh	equ	0xFF7
  2067                           tblptrl	equ	0xFF6
  2068                           tablat	equ	0xFF5
  2069                           indf0	equ	0xFEF
  2070                           postinc0	equ	0xFEE
  2071                           fsr0h	equ	0xFEA
  2072                           fsr0l	equ	0xFE9
  2073                           wreg	equ	0xFE8
  2074                           indf2	equ	0xFDF
  2075                           fsr2h	equ	0xFDA
  2076                           fsr2l	equ	0xFD9
  2077                           status	equ	0xFD8
  2078                           
  2079 ;; *************** function _PWM5_set_value *****************
  2080 ;; Defined at:
  2081 ;;		line 93 in file "PWM.h"
  2082 ;; Parameters:    Size  Location     Type
  2083 ;;  value           2    0[COMRAM] int 
  2084 ;; Auto vars:     Size  Location     Type
  2085 ;;		None
  2086 ;; Return value:  Size  Location     Type
  2087 ;;                  1    wreg      void 
  2088 ;; Registers used:
  2089 ;;		wreg, status,2, status,0
  2090 ;; Tracked objects:
  2091 ;;		On entry : 0/0
  2092 ;;		On exit  : 0/0
  2093 ;;		Unchanged: 0/0
  2094 ;; Data sizes:     COMRAM   BANK0   BANK1   BANK2   BANK3   BANK4   BANK5   BANK6   BANK7   BANK8   BANK9  BANK10  BANK1
      +1  BANK12  BANK13  BANK14  BANK15
  2095 ;;      Params:         2       0       0       0       0       0       0       0       0       0       0       0       
      +0       0       0       0       0
  2096 ;;      Locals:         0       0       0       0       0       0       0       0       0       0       0       0       
      +0       0       0       0       0
  2097 ;;      Temps:          2       0       0       0       0       0       0       0       0       0       0       0       
      +0       0       0       0       0
  2098 ;;      Totals:         4       0       0       0       0       0       0       0       0       0       0       0       
      +0       0       0       0       0
  2099 ;;Total ram usage:        4 bytes
  2100 ;; Hardware stack levels used:    1
  2101 ;; This function calls:
  2102 ;;		Nothing
  2103 ;; This function is called by:
  2104 ;;		_main
  2105 ;; This function uses a non-reentrant model
  2106 ;;
  2107                           
  2108                           	psect	text12
  2109  001720                     __ptext12:
  2110                           	opt stack 0
  2111  001720                     _PWM5_set_value:
  2112                           	opt stack 30
  2113                           
  2114                           ;PWM.h: 95: TMR4ON = 0;
  2115                           
  2116                           ;incstack = 0
  2117  001720  9476               	bcf	3958,2,c	;volatile
  2118                           
  2119                           ;PWM.h: 96: CCPR5L = value >> 2;
  2120  001722  C029  F02B         	movff	PWM5_set_value@value,??_PWM5_set_value
  2121  001726  C02A  F02C         	movff	PWM5_set_value@value+1,??_PWM5_set_value+1
  2122  00172A  342C               	rlcf	??_PWM5_set_value+1,w,c
  2123  00172C  322C               	rrcf	??_PWM5_set_value+1,f,c
  2124  00172E  322B               	rrcf	??_PWM5_set_value,f,c
  2125  001730  342C               	rlcf	??_PWM5_set_value+1,w,c
  2126  001732  322C               	rrcf	??_PWM5_set_value+1,f,c
  2127  001734  322B               	rrcf	??_PWM5_set_value,f,c
  2128  001736  502B               	movf	??_PWM5_set_value,w,c
  2129  001738  6E71               	movwf	3953,c	;volatile
  2130                           
  2131                           ;PWM.h: 97: DC5B1 = value >> 1;
  2132  00173A  342A               	rlcf	PWM5_set_value@value+1,w,c
  2133  00173C  302A               	rrcf	PWM5_set_value@value+1,w,c
  2134  00173E  6E2C               	movwf	(??_PWM5_set_value+1)& (0+255),c
  2135  001740  3029               	rrcf	PWM5_set_value@value,w,c
  2136  001742  6E2B               	movwf	??_PWM5_set_value& (0+255),c
  2137  001744  302B               	rrcf	??_PWM5_set_value,w,c
  2138  001746  A0D8               	btfss	status,0,c
  2139  001748  D002               	goto	u1410
  2140  00174A  8A70               	bsf	3952,5,c	;volatile
  2141  00174C  D001               	goto	l2393
  2142  00174E                     u1410:
  2143  00174E  9A70               	bcf	3952,5,c	;volatile
  2144  001750                     l2393:
  2145                           
  2146                           ;PWM.h: 98: DC5B0 = value &0x1;
  2147  001750  A029               	btfss	PWM5_set_value@value,0,c
  2148  001752  D002               	goto	u1430
  2149  001754  8870               	bsf	3952,4,c	;volatile
  2150  001756  D001               	goto	l2395
  2151  001758                     u1430:
  2152  001758  9870               	bcf	3952,4,c	;volatile
  2153  00175A                     l2395:
  2154                           
  2155                           ;PWM.h: 99: TMR4ON = 1;
  2156  00175A  8476               	bsf	3958,2,c	;volatile
  2157  00175C  0012               	return		;funcret
  2158  00175E                     __end_of_PWM5_set_value:
  2159                           	opt stack 0
  2160                           tblptru	equ	0xFF8
  2161                           tblptrh	equ	0xFF7
  2162                           tblptrl	equ	0xFF6
  2163                           tablat	equ	0xFF5
  2164                           indf0	equ	0xFEF
  2165                           postinc0	equ	0xFEE
  2166                           fsr0h	equ	0xFEA
  2167                           fsr0l	equ	0xFE9
  2168                           wreg	equ	0xFE8
  2169                           indf2	equ	0xFDF
  2170                           fsr2h	equ	0xFDA
  2171                           fsr2l	equ	0xFD9
  2172                           status	equ	0xFD8
  2173                           
  2174 ;; *************** function _PWM5_initialize *****************
  2175 ;; Defined at:
  2176 ;;		line 103 in file "PWM.h"
  2177 ;; Parameters:    Size  Location     Type
  2178 ;;		None
  2179 ;; Auto vars:     Size  Location     Type
  2180 ;;		None
  2181 ;; Return value:  Size  Location     Type
  2182 ;;                  1    wreg      void 
  2183 ;; Registers used:
  2184 ;;		wreg, status,2, status,0, cstack
  2185 ;; Tracked objects:
  2186 ;;		On entry : 0/0
  2187 ;;		On exit  : 0/0
  2188 ;;		Unchanged: 0/0
  2189 ;; Data sizes:     COMRAM   BANK0   BANK1   BANK2   BANK3   BANK4   BANK5   BANK6   BANK7   BANK8   BANK9  BANK10  BANK1
      +1  BANK12  BANK13  BANK14  BANK15
  2190 ;;      Params:         0       0       0       0       0       0       0       0       0       0       0       0       
      +0       0       0       0       0
  2191 ;;      Locals:         0       0       0       0       0       0       0       0       0       0       0       0       
      +0       0       0       0       0
  2192 ;;      Temps:          0       0       0       0       0       0       0       0       0       0       0       0       
      +0       0       0       0       0
  2193 ;;      Totals:         0       0       0       0       0       0       0       0       0       0       0       0       
      +0       0       0       0       0
  2194 ;;Total ram usage:        0 bytes
  2195 ;; Hardware stack levels used:    1
  2196 ;; Hardware stack levels required when called:    1
  2197 ;; This function calls:
  2198 ;;		_PWM3_set_value
  2199 ;; This function is called by:
  2200 ;;		_main
  2201 ;; This function uses a non-reentrant model
  2202 ;;
  2203                           
  2204                           	psect	text13
  2205  00195E                     __ptext13:
  2206                           	opt stack 0
  2207  00195E                     _PWM5_initialize:
  2208                           	opt stack 29
  2209                           
  2210                           ;PWM.h: 109: TRISG4 = 0;
  2211                           
  2212                           ;incstack = 0
  2213  00195E  9898               	bcf	3992,4,c	;volatile
  2214                           
  2215                           ;PWM.h: 110: PR4 = 249;
  2216  001960  0EF9               	movlw	249
  2217  001962  6E77               	movwf	3959,c	;volatile
  2218                           
  2219                           ;PWM.h: 111: T4CKPS1=0; T4CKPS0 = 1;
  2220  001964  9276               	bcf	3958,1,c	;volatile
  2221  001966  8076               	bsf	3958,0,c	;volatile
  2222                           
  2223                           ;PWM.h: 112: CCP5M3 = 1;
  2224  001968  8670               	bsf	3952,3,c	;volatile
  2225                           
  2226                           ;PWM.h: 113: CCP5M2 = 1;
  2227  00196A  8470               	bsf	3952,2,c	;volatile
  2228                           
  2229                           ;PWM.h: 115: PWM3_set_value(500);
  2230  00196C  0E01               	movlw	1
  2231  00196E  6E2A               	movwf	PWM3_set_value@value+1,c
  2232  001970  0EF4               	movlw	244
  2233  001972  6E29               	movwf	PWM3_set_value@value,c
  2234  001974  ECAF  F00B         	call	_PWM3_set_value	;wreg free
  2235  001978  0012               	return		;funcret
  2236  00197A                     __end_of_PWM5_initialize:
  2237                           	opt stack 0
  2238                           tblptru	equ	0xFF8
  2239                           tblptrh	equ	0xFF7
  2240                           tblptrl	equ	0xFF6
  2241                           tablat	equ	0xFF5
  2242                           indf0	equ	0xFEF
  2243                           postinc0	equ	0xFEE
  2244                           fsr0h	equ	0xFEA
  2245                           fsr0l	equ	0xFE9
  2246                           wreg	equ	0xFE8
  2247                           indf2	equ	0xFDF
  2248                           fsr2h	equ	0xFDA
  2249                           fsr2l	equ	0xFD9
  2250                           status	equ	0xFD8
  2251                           
  2252 ;; *************** function _PWM3_set_value *****************
  2253 ;; Defined at:
  2254 ;;		line 42 in file "PWM.h"
  2255 ;; Parameters:    Size  Location     Type
  2256 ;;  value           2    0[COMRAM] int 
  2257 ;; Auto vars:     Size  Location     Type
  2258 ;;		None
  2259 ;; Return value:  Size  Location     Type
  2260 ;;                  1    wreg      void 
  2261 ;; Registers used:
  2262 ;;		wreg, status,2, status,0
  2263 ;; Tracked objects:
  2264 ;;		On entry : 0/0
  2265 ;;		On exit  : 0/0
  2266 ;;		Unchanged: 0/0
  2267 ;; Data sizes:     COMRAM   BANK0   BANK1   BANK2   BANK3   BANK4   BANK5   BANK6   BANK7   BANK8   BANK9  BANK10  BANK1
      +1  BANK12  BANK13  BANK14  BANK15
  2268 ;;      Params:         2       0       0       0       0       0       0       0       0       0       0       0       
      +0       0       0       0       0
  2269 ;;      Locals:         0       0       0       0       0       0       0       0       0       0       0       0       
      +0       0       0       0       0
  2270 ;;      Temps:          2       0       0       0       0       0       0       0       0       0       0       0       
      +0       0       0       0       0
  2271 ;;      Totals:         4       0       0       0       0       0       0       0       0       0       0       0       
      +0       0       0       0       0
  2272 ;;Total ram usage:        4 bytes
  2273 ;; Hardware stack levels used:    1
  2274 ;; This function calls:
  2275 ;;		Nothing
  2276 ;; This function is called by:
  2277 ;;		_PWM5_initialize
  2278 ;;		_PWM3_initialize
  2279 ;; This function uses a non-reentrant model
  2280 ;;
  2281                           
  2282                           	psect	text14
  2283  00175E                     __ptext14:
  2284                           	opt stack 0
  2285  00175E                     _PWM3_set_value:
  2286                           	opt stack 29
  2287                           
  2288                           ;PWM.h: 44: TMR2ON = 0;
  2289                           
  2290                           ;incstack = 0
  2291  00175E  94CA               	bcf	4042,2,c	;volatile
  2292                           
  2293                           ;PWM.h: 45: CCPR3L = value >> 2;
  2294  001760  C029  F02B         	movff	PWM3_set_value@value,??_PWM3_set_value
  2295  001764  C02A  F02C         	movff	PWM3_set_value@value+1,??_PWM3_set_value+1
  2296  001768  342C               	rlcf	??_PWM3_set_value+1,w,c
  2297  00176A  322C               	rrcf	??_PWM3_set_value+1,f,c
  2298  00176C  322B               	rrcf	??_PWM3_set_value,f,c
  2299  00176E  342C               	rlcf	??_PWM3_set_value+1,w,c
  2300  001770  322C               	rrcf	??_PWM3_set_value+1,f,c
  2301  001772  322B               	rrcf	??_PWM3_set_value,f,c
  2302  001774  502B               	movf	??_PWM3_set_value,w,c
  2303  001776  6EB8               	movwf	4024,c	;volatile
  2304                           
  2305                           ;PWM.h: 46: DC3B1 = value >> 1;
  2306  001778  342A               	rlcf	PWM3_set_value@value+1,w,c
  2307  00177A  302A               	rrcf	PWM3_set_value@value+1,w,c
  2308  00177C  6E2C               	movwf	(??_PWM3_set_value+1)& (0+255),c
  2309  00177E  3029               	rrcf	PWM3_set_value@value,w,c
  2310  001780  6E2B               	movwf	??_PWM3_set_value& (0+255),c
  2311  001782  302B               	rrcf	??_PWM3_set_value,w,c
  2312  001784  A0D8               	btfss	status,0,c
  2313  001786  D002               	goto	u1260
  2314  001788  8AB7               	bsf	4023,5,c	;volatile
  2315  00178A  D001               	goto	l2255
  2316  00178C                     u1260:
  2317  00178C  9AB7               	bcf	4023,5,c	;volatile
  2318  00178E                     l2255:
  2319                           
  2320                           ;PWM.h: 47: DC3B0 = value &0x1;
  2321  00178E  A029               	btfss	PWM3_set_value@value,0,c
  2322  001790  D002               	goto	u1280
  2323  001792  88B7               	bsf	4023,4,c	;volatile
  2324  001794  D001               	goto	l2257
  2325  001796                     u1280:
  2326  001796  98B7               	bcf	4023,4,c	;volatile
  2327  001798                     l2257:
  2328                           
  2329                           ;PWM.h: 48: TMR2ON = 1;
  2330  001798  84CA               	bsf	4042,2,c	;volatile
  2331  00179A  0012               	return		;funcret
  2332  00179C                     __end_of_PWM3_set_value:
  2333                           	opt stack 0
  2334                           tblptru	equ	0xFF8
  2335                           tblptrh	equ	0xFF7
  2336                           tblptrl	equ	0xFF6
  2337                           tablat	equ	0xFF5
  2338                           indf0	equ	0xFEF
  2339                           postinc0	equ	0xFEE
  2340                           fsr0h	equ	0xFEA
  2341                           fsr0l	equ	0xFE9
  2342                           wreg	equ	0xFE8
  2343                           indf2	equ	0xFDF
  2344                           fsr2h	equ	0xFDA
  2345                           fsr2l	equ	0xFD9
  2346                           status	equ	0xFD8
  2347                           
  2348 ;; *************** function _PWM4_initialize *****************
  2349 ;; Defined at:
  2350 ;;		line 78 in file "PWM.h"
  2351 ;; Parameters:    Size  Location     Type
  2352 ;;		None
  2353 ;; Auto vars:     Size  Location     Type
  2354 ;;		None
  2355 ;; Return value:  Size  Location     Type
  2356 ;;                  1    wreg      void 
  2357 ;; Registers used:
  2358 ;;		wreg, status,2, status,0, cstack
  2359 ;; Tracked objects:
  2360 ;;		On entry : 0/0
  2361 ;;		On exit  : 0/0
  2362 ;;		Unchanged: 0/0
  2363 ;; Data sizes:     COMRAM   BANK0   BANK1   BANK2   BANK3   BANK4   BANK5   BANK6   BANK7   BANK8   BANK9  BANK10  BANK1
      +1  BANK12  BANK13  BANK14  BANK15
  2364 ;;      Params:         0       0       0       0       0       0       0       0       0       0       0       0       
      +0       0       0       0       0
  2365 ;;      Locals:         0       0       0       0       0       0       0       0       0       0       0       0       
      +0       0       0       0       0
  2366 ;;      Temps:          0       0       0       0       0       0       0       0       0       0       0       0       
      +0       0       0       0       0
  2367 ;;      Totals:         0       0       0       0       0       0       0       0       0       0       0       0       
      +0       0       0       0       0
  2368 ;;Total ram usage:        0 bytes
  2369 ;; Hardware stack levels used:    1
  2370 ;; Hardware stack levels required when called:    1
  2371 ;; This function calls:
  2372 ;;		_PWM4_set_value
  2373 ;; This function is called by:
  2374 ;;		_main
  2375 ;; This function uses a non-reentrant model
  2376 ;;
  2377                           
  2378                           	psect	text15
  2379  00197A                     __ptext15:
  2380                           	opt stack 0
  2381  00197A                     _PWM4_initialize:
  2382                           	opt stack 29
  2383                           
  2384                           ;PWM.h: 84: TRISG3 = 0;
  2385                           
  2386                           ;incstack = 0
  2387  00197A  9698               	bcf	3992,3,c	;volatile
  2388                           
  2389                           ;PWM.h: 85: PR2 = 249;
  2390  00197C  0EF9               	movlw	249
  2391  00197E  6ECB               	movwf	4043,c	;volatile
  2392                           
  2393                           ;PWM.h: 86: T2CKPS1=0; T2CKPS0 = 1;
  2394  001980  92CA               	bcf	4042,1,c	;volatile
  2395  001982  80CA               	bsf	4042,0,c	;volatile
  2396                           
  2397                           ;PWM.h: 87: CCP4M3 = 1;
  2398  001984  8673               	bsf	3955,3,c	;volatile
  2399                           
  2400                           ;PWM.h: 88: CCP4M2 = 1;
  2401  001986  8473               	bsf	3955,2,c	;volatile
  2402                           
  2403                           ;PWM.h: 90: PWM4_set_value(500);
  2404  001988  0E01               	movlw	1
  2405  00198A  6E2A               	movwf	PWM4_set_value@value+1,c
  2406  00198C  0EF4               	movlw	244
  2407  00198E  6E29               	movwf	PWM4_set_value@value,c
  2408  001990  ECCE  F00B         	call	_PWM4_set_value	;wreg free
  2409  001994  0012               	return		;funcret
  2410  001996                     __end_of_PWM4_initialize:
  2411                           	opt stack 0
  2412                           tblptru	equ	0xFF8
  2413                           tblptrh	equ	0xFF7
  2414                           tblptrl	equ	0xFF6
  2415                           tablat	equ	0xFF5
  2416                           indf0	equ	0xFEF
  2417                           postinc0	equ	0xFEE
  2418                           fsr0h	equ	0xFEA
  2419                           fsr0l	equ	0xFE9
  2420                           wreg	equ	0xFE8
  2421                           indf2	equ	0xFDF
  2422                           fsr2h	equ	0xFDA
  2423                           fsr2l	equ	0xFD9
  2424                           status	equ	0xFD8
  2425                           
  2426 ;; *************** function _PWM4_set_value *****************
  2427 ;; Defined at:
  2428 ;;		line 68 in file "PWM.h"
  2429 ;; Parameters:    Size  Location     Type
  2430 ;;  value           2    0[COMRAM] int 
  2431 ;; Auto vars:     Size  Location     Type
  2432 ;;		None
  2433 ;; Return value:  Size  Location     Type
  2434 ;;                  1    wreg      void 
  2435 ;; Registers used:
  2436 ;;		wreg, status,2, status,0
  2437 ;; Tracked objects:
  2438 ;;		On entry : 0/0
  2439 ;;		On exit  : 0/0
  2440 ;;		Unchanged: 0/0
  2441 ;; Data sizes:     COMRAM   BANK0   BANK1   BANK2   BANK3   BANK4   BANK5   BANK6   BANK7   BANK8   BANK9  BANK10  BANK1
      +1  BANK12  BANK13  BANK14  BANK15
  2442 ;;      Params:         2       0       0       0       0       0       0       0       0       0       0       0       
      +0       0       0       0       0
  2443 ;;      Locals:         0       0       0       0       0       0       0       0       0       0       0       0       
      +0       0       0       0       0
  2444 ;;      Temps:          2       0       0       0       0       0       0       0       0       0       0       0       
      +0       0       0       0       0
  2445 ;;      Totals:         4       0       0       0       0       0       0       0       0       0       0       0       
      +0       0       0       0       0
  2446 ;;Total ram usage:        4 bytes
  2447 ;; Hardware stack levels used:    1
  2448 ;; This function calls:
  2449 ;;		Nothing
  2450 ;; This function is called by:
  2451 ;;		_PWM4_initialize
  2452 ;;		_main
  2453 ;; This function uses a non-reentrant model
  2454 ;;
  2455                           
  2456                           	psect	text16
  2457  00179C                     __ptext16:
  2458                           	opt stack 0
  2459  00179C                     _PWM4_set_value:
  2460                           	opt stack 30
  2461                           
  2462                           ;PWM.h: 70: TMR2ON = 0;
  2463                           
  2464                           ;incstack = 0
  2465  00179C  94CA               	bcf	4042,2,c	;volatile
  2466                           
  2467                           ;PWM.h: 71: CCPR4L = value >> 2;
  2468  00179E  C029  F02B         	movff	PWM4_set_value@value,??_PWM4_set_value
  2469  0017A2  C02A  F02C         	movff	PWM4_set_value@value+1,??_PWM4_set_value+1
  2470  0017A6  342C               	rlcf	??_PWM4_set_value+1,w,c
  2471  0017A8  322C               	rrcf	??_PWM4_set_value+1,f,c
  2472  0017AA  322B               	rrcf	??_PWM4_set_value,f,c
  2473  0017AC  342C               	rlcf	??_PWM4_set_value+1,w,c
  2474  0017AE  322C               	rrcf	??_PWM4_set_value+1,f,c
  2475  0017B0  322B               	rrcf	??_PWM4_set_value,f,c
  2476  0017B2  502B               	movf	??_PWM4_set_value,w,c
  2477  0017B4  6E74               	movwf	3956,c	;volatile
  2478                           
  2479                           ;PWM.h: 72: DC4B1 = value >> 1;
  2480  0017B6  342A               	rlcf	PWM4_set_value@value+1,w,c
  2481  0017B8  302A               	rrcf	PWM4_set_value@value+1,w,c
  2482  0017BA  6E2C               	movwf	(??_PWM4_set_value+1)& (0+255),c
  2483  0017BC  3029               	rrcf	PWM4_set_value@value,w,c
  2484  0017BE  6E2B               	movwf	??_PWM4_set_value& (0+255),c
  2485  0017C0  302B               	rrcf	??_PWM4_set_value,w,c
  2486  0017C2  A0D8               	btfss	status,0,c
  2487  0017C4  D002               	goto	u1300
  2488  0017C6  8A73               	bsf	3955,5,c	;volatile
  2489  0017C8  D001               	goto	l2263
  2490  0017CA                     u1300:
  2491  0017CA  9A73               	bcf	3955,5,c	;volatile
  2492  0017CC                     l2263:
  2493                           
  2494                           ;PWM.h: 73: DC4B0 = value &0x1;
  2495  0017CC  A029               	btfss	PWM4_set_value@value,0,c
  2496  0017CE  D002               	goto	u1320
  2497  0017D0  8873               	bsf	3955,4,c	;volatile
  2498  0017D2  D001               	goto	l2265
  2499  0017D4                     u1320:
  2500  0017D4  9873               	bcf	3955,4,c	;volatile
  2501  0017D6                     l2265:
  2502                           
  2503                           ;PWM.h: 74: TMR2ON = 1;
  2504  0017D6  84CA               	bsf	4042,2,c	;volatile
  2505  0017D8  0012               	return		;funcret
  2506  0017DA                     __end_of_PWM4_set_value:
  2507                           	opt stack 0
  2508                           tblptru	equ	0xFF8
  2509                           tblptrh	equ	0xFF7
  2510                           tblptrl	equ	0xFF6
  2511                           tablat	equ	0xFF5
  2512                           indf0	equ	0xFEF
  2513                           postinc0	equ	0xFEE
  2514                           fsr0h	equ	0xFEA
  2515                           fsr0l	equ	0xFE9
  2516                           wreg	equ	0xFE8
  2517                           indf2	equ	0xFDF
  2518                           fsr2h	equ	0xFDA
  2519                           fsr2l	equ	0xFD9
  2520                           status	equ	0xFD8
  2521                           
  2522 ;; *************** function _LCD_init *****************
  2523 ;; Defined at:
  2524 ;;		line 185 in file "ShiftLCD.h"
  2525 ;; Parameters:    Size  Location     Type
  2526 ;;		None
  2527 ;; Auto vars:     Size  Location     Type
  2528 ;;		None
  2529 ;; Return value:  Size  Location     Type
  2530 ;;                  1    wreg      void 
  2531 ;; Registers used:
  2532 ;;		wreg, status,2, status,0, cstack
  2533 ;; Tracked objects:
  2534 ;;		On entry : 0/0
  2535 ;;		On exit  : 0/0
  2536 ;;		Unchanged: 0/0
  2537 ;; Data sizes:     COMRAM   BANK0   BANK1   BANK2   BANK3   BANK4   BANK5   BANK6   BANK7   BANK8   BANK9  BANK10  BANK1
      +1  BANK12  BANK13  BANK14  BANK15
  2538 ;;      Params:         0       0       0       0       0       0       0       0       0       0       0       0       
      +0       0       0       0       0
  2539 ;;      Locals:         0       0       0       0       0       0       0       0       0       0       0       0       
      +0       0       0       0       0
  2540 ;;      Temps:          1       0       0       0       0       0       0       0       0       0       0       0       
      +0       0       0       0       0
  2541 ;;      Totals:         1       0       0       0       0       0       0       0       0       0       0       0       
      +0       0       0       0       0
  2542 ;;Total ram usage:        1 bytes
  2543 ;; Hardware stack levels used:    1
  2544 ;; Hardware stack levels required when called:    5
  2545 ;; This function calls:
  2546 ;;		_lcd_clear
  2547 ;;		_lcd_info
  2548 ;;		_shift_reg_set_pin_lcd
  2549 ;; This function is called by:
  2550 ;;		_main
  2551 ;; This function uses a non-reentrant model
  2552 ;;
  2553                           
  2554                           	psect	text17
  2555  001478                     __ptext17:
  2556                           	opt stack 0
  2557  001478                     _LCD_init:
  2558                           	opt stack 25
  2559                           
  2560                           ;ShiftLCD.h: 187: shift_reg_set_pin_lcd(1, 0);
  2561                           
  2562                           ;incstack = 0
  2563  001478  0E00               	movlw	0
  2564  00147A  6E2D               	movwf	shift_reg_set_pin_lcd@value,c
  2565  00147C  0E01               	movlw	1
  2566  00147E  EC23  F00B         	call	_shift_reg_set_pin_lcd
  2567                           
  2568                           ;ShiftLCD.h: 189: shift_reg_set_pin_lcd(2, 0);
  2569  001482  0E00               	movlw	0
  2570  001484  6E2D               	movwf	shift_reg_set_pin_lcd@value,c
  2571  001486  0E02               	movlw	2
  2572  001488  EC23  F00B         	call	_shift_reg_set_pin_lcd
  2573                           
  2574                           ;ShiftLCD.h: 192: lcd_info(0x02, 2);
  2575  00148C  0E02               	movlw	2
  2576  00148E  6E31               	movwf	lcd_info@data_type,c
  2577  001490  0E02               	movlw	2
  2578  001492  EC42  F009         	call	_lcd_info
  2579                           
  2580                           ;ShiftLCD.h: 193: _delay((unsigned long)((10)*(4000000/4000.0)));
  2581  001496  0E0D               	movlw	13
  2582  001498  6E37               	movwf	??_LCD_init& (0+255),c
  2583  00149A  0EFC               	movlw	252
  2584  00149C                     u2047:
  2585  00149C  2EE8               	decfsz	wreg,f,c
  2586  00149E  D7FE               	goto	u2047
  2587  0014A0  2E37               	decfsz	??_LCD_init& (0+255),f,c
  2588  0014A2  D7FC               	goto	u2047
  2589                           
  2590                           ;ShiftLCD.h: 194: lcd_info(0x28, 2);
  2591  0014A4  0E02               	movlw	2
  2592  0014A6  6E31               	movwf	lcd_info@data_type,c
  2593  0014A8  0E28               	movlw	40
  2594  0014AA  EC42  F009         	call	_lcd_info
  2595                           
  2596                           ;ShiftLCD.h: 195: _delay((unsigned long)((10)*(4000000/4000.0)));
  2597  0014AE  0E0D               	movlw	13
  2598  0014B0  6E37               	movwf	??_LCD_init& (0+255),c
  2599  0014B2  0EFC               	movlw	252
  2600  0014B4                     u2057:
  2601  0014B4  2EE8               	decfsz	wreg,f,c
  2602  0014B6  D7FE               	goto	u2057
  2603  0014B8  2E37               	decfsz	??_LCD_init& (0+255),f,c
  2604  0014BA  D7FC               	goto	u2057
  2605                           
  2606                           ;ShiftLCD.h: 197: lcd_info(0x06, 2);
  2607  0014BC  0E02               	movlw	2
  2608  0014BE  6E31               	movwf	lcd_info@data_type,c
  2609  0014C0  0E06               	movlw	6
  2610  0014C2  EC42  F009         	call	_lcd_info
  2611                           
  2612                           ;ShiftLCD.h: 198: _delay((unsigned long)((2)*(4000000/4000.0)));
  2613  0014C6  0E03               	movlw	3
  2614  0014C8  6E37               	movwf	??_LCD_init& (0+255),c
  2615  0014CA  0E98               	movlw	152
  2616  0014CC                     u2067:
  2617  0014CC  2EE8               	decfsz	wreg,f,c
  2618  0014CE  D7FE               	goto	u2067
  2619  0014D0  2E37               	decfsz	??_LCD_init& (0+255),f,c
  2620  0014D2  D7FC               	goto	u2067
  2621                           
  2622                           ;ShiftLCD.h: 200: lcd_info(0x0C, 2);
  2623  0014D4  0E02               	movlw	2
  2624  0014D6  6E31               	movwf	lcd_info@data_type,c
  2625  0014D8  0E0C               	movlw	12
  2626  0014DA  EC42  F009         	call	_lcd_info
  2627                           
  2628                           ;ShiftLCD.h: 201: _delay((unsigned long)((2)*(4000000/4000.0)));
  2629  0014DE  0E03               	movlw	3
  2630  0014E0  6E37               	movwf	??_LCD_init& (0+255),c
  2631  0014E2  0E98               	movlw	152
  2632  0014E4                     u2077:
  2633  0014E4  2EE8               	decfsz	wreg,f,c
  2634  0014E6  D7FE               	goto	u2077
  2635  0014E8  2E37               	decfsz	??_LCD_init& (0+255),f,c
  2636  0014EA  D7FC               	goto	u2077
  2637                           
  2638                           ;ShiftLCD.h: 203: lcd_clear();
  2639  0014EC  EC40  F00C         	call	_lcd_clear	;wreg free
  2640                           
  2641                           ;ShiftLCD.h: 204: _delay((unsigned long)((2)*(4000000/4000.0)));
  2642  0014F0  0E03               	movlw	3
  2643  0014F2  6E37               	movwf	??_LCD_init& (0+255),c
  2644  0014F4  0E98               	movlw	152
  2645  0014F6                     u2087:
  2646  0014F6  2EE8               	decfsz	wreg,f,c
  2647  0014F8  D7FE               	goto	u2087
  2648  0014FA  2E37               	decfsz	??_LCD_init& (0+255),f,c
  2649  0014FC  D7FC               	goto	u2087
  2650                           
  2651                           ;ShiftLCD.h: 206: lcd_info(0x80, 2);
  2652  0014FE  0E02               	movlw	2
  2653  001500  6E31               	movwf	lcd_info@data_type,c
  2654  001502  0E80               	movlw	128
  2655  001504  EC42  F009         	call	_lcd_info
  2656                           
  2657                           ;ShiftLCD.h: 207: _delay((unsigned long)((10)*(4000000/4000.0)));
  2658  001508  0E0D               	movlw	13
  2659  00150A  6E37               	movwf	??_LCD_init& (0+255),c
  2660  00150C  0EFC               	movlw	252
  2661  00150E                     u2097:
  2662  00150E  2EE8               	decfsz	wreg,f,c
  2663  001510  D7FE               	goto	u2097
  2664  001512  2E37               	decfsz	??_LCD_init& (0+255),f,c
  2665  001514  D7FC               	goto	u2097
  2666  001516  0012               	return		;funcret
  2667  001518                     __end_of_LCD_init:
  2668                           	opt stack 0
  2669                           tblptru	equ	0xFF8
  2670                           tblptrh	equ	0xFF7
  2671                           tblptrl	equ	0xFF6
  2672                           tablat	equ	0xFF5
  2673                           indf0	equ	0xFEF
  2674                           postinc0	equ	0xFEE
  2675                           fsr0h	equ	0xFEA
  2676                           fsr0l	equ	0xFE9
  2677                           wreg	equ	0xFE8
  2678                           indf2	equ	0xFDF
  2679                           fsr2h	equ	0xFDA
  2680                           fsr2l	equ	0xFD9
  2681                           status	equ	0xFD8
  2682                           
  2683 ;; *************** function _lcd_clear *****************
  2684 ;; Defined at:
  2685 ;;		line 157 in file "ShiftLCD.h"
  2686 ;; Parameters:    Size  Location     Type
  2687 ;;		None
  2688 ;; Auto vars:     Size  Location     Type
  2689 ;;		None
  2690 ;; Return value:  Size  Location     Type
  2691 ;;                  1    wreg      void 
  2692 ;; Registers used:
  2693 ;;		wreg, status,2, status,0, cstack
  2694 ;; Tracked objects:
  2695 ;;		On entry : 0/0
  2696 ;;		On exit  : 0/0
  2697 ;;		Unchanged: 0/0
  2698 ;; Data sizes:     COMRAM   BANK0   BANK1   BANK2   BANK3   BANK4   BANK5   BANK6   BANK7   BANK8   BANK9  BANK10  BANK1
      +1  BANK12  BANK13  BANK14  BANK15
  2699 ;;      Params:         0       0       0       0       0       0       0       0       0       0       0       0       
      +0       0       0       0       0
  2700 ;;      Locals:         0       0       0       0       0       0       0       0       0       0       0       0       
      +0       0       0       0       0
  2701 ;;      Temps:          1       0       0       0       0       0       0       0       0       0       0       0       
      +0       0       0       0       0
  2702 ;;      Totals:         1       0       0       0       0       0       0       0       0       0       0       0       
      +0       0       0       0       0
  2703 ;;Total ram usage:        1 bytes
  2704 ;; Hardware stack levels used:    1
  2705 ;; Hardware stack levels required when called:    4
  2706 ;; This function calls:
  2707 ;;		_lcd_goto
  2708 ;;		_lcd_info
  2709 ;; This function is called by:
  2710 ;;		_LCD_init
  2711 ;; This function uses a non-reentrant model
  2712 ;;
  2713                           
  2714                           	psect	text18
  2715  001880                     __ptext18:
  2716                           	opt stack 0
  2717  001880                     _lcd_clear:
  2718                           	opt stack 25
  2719                           
  2720                           ;ShiftLCD.h: 160: _y = 1; _x = 1;
  2721                           
  2722                           ;incstack = 0
  2723  001880  0E01               	movlw	1
  2724  001882  6E40               	movwf	__y,c
  2725  001884  0E01               	movlw	1
  2726  001886  6E3F               	movwf	__x,c
  2727                           
  2728                           ;ShiftLCD.h: 161: lcd_info(0x01, 2);
  2729  001888  0E02               	movlw	2
  2730  00188A  6E31               	movwf	lcd_info@data_type,c
  2731  00188C  0E01               	movlw	1
  2732  00188E  EC42  F009         	call	_lcd_info
  2733                           
  2734                           ;ShiftLCD.h: 162: _delay((unsigned long)((2)*(4000000/4000.0)));
  2735  001892  0E03               	movlw	3
  2736  001894  6E36               	movwf	??_lcd_clear& (0+255),c
  2737  001896  0E98               	movlw	152
  2738  001898                     u2107:
  2739  001898  2EE8               	decfsz	wreg,f,c
  2740  00189A  D7FE               	goto	u2107
  2741  00189C  2E36               	decfsz	??_lcd_clear& (0+255),f,c
  2742  00189E  D7FC               	goto	u2107
  2743                           
  2744                           ;ShiftLCD.h: 163: lcd_goto(_y, _x);
  2745  0018A0  C03F  F034         	movff	__x,lcd_goto@p_2
  2746  0018A4  5040               	movf	__y,w,c
  2747  0018A6  EC0A  F00C         	call	_lcd_goto
  2748  0018AA  0012               	return		;funcret
  2749  0018AC                     __end_of_lcd_clear:
  2750                           	opt stack 0
  2751                           tblptru	equ	0xFF8
  2752                           tblptrh	equ	0xFF7
  2753                           tblptrl	equ	0xFF6
  2754                           tablat	equ	0xFF5
  2755                           indf0	equ	0xFEF
  2756                           postinc0	equ	0xFEE
  2757                           fsr0h	equ	0xFEA
  2758                           fsr0l	equ	0xFE9
  2759                           wreg	equ	0xFE8
  2760                           indf2	equ	0xFDF
  2761                           fsr2h	equ	0xFDA
  2762                           fsr2l	equ	0xFD9
  2763                           status	equ	0xFD8
  2764                           
  2765 ;; *************** function _lcd_goto *****************
  2766 ;; Defined at:
  2767 ;;		line 172 in file "ShiftLCD.h"
  2768 ;; Parameters:    Size  Location     Type
  2769 ;;  p_1             1    wreg     unsigned char 
  2770 ;;  p_2             1   11[COMRAM] unsigned char 
  2771 ;; Auto vars:     Size  Location     Type
  2772 ;;  p_1             1   12[COMRAM] unsigned char 
  2773 ;; Return value:  Size  Location     Type
  2774 ;;                  1    wreg      void 
  2775 ;; Registers used:
  2776 ;;		wreg, status,2, status,0, cstack
  2777 ;; Tracked objects:
  2778 ;;		On entry : 0/0
  2779 ;;		On exit  : 0/0
  2780 ;;		Unchanged: 0/0
  2781 ;; Data sizes:     COMRAM   BANK0   BANK1   BANK2   BANK3   BANK4   BANK5   BANK6   BANK7   BANK8   BANK9  BANK10  BANK1
      +1  BANK12  BANK13  BANK14  BANK15
  2782 ;;      Params:         1       0       0       0       0       0       0       0       0       0       0       0       
      +0       0       0       0       0
  2783 ;;      Locals:         1       0       0       0       0       0       0       0       0       0       0       0       
      +0       0       0       0       0
  2784 ;;      Temps:          0       0       0       0       0       0       0       0       0       0       0       0       
      +0       0       0       0       0
  2785 ;;      Totals:         2       0       0       0       0       0       0       0       0       0       0       0       
      +0       0       0       0       0
  2786 ;;Total ram usage:        2 bytes
  2787 ;; Hardware stack levels used:    1
  2788 ;; Hardware stack levels required when called:    3
  2789 ;; This function calls:
  2790 ;;		_lcd_info
  2791 ;; This function is called by:
  2792 ;;		_lcd_clear
  2793 ;;		_lcd_yaz
  2794 ;; This function uses a non-reentrant model
  2795 ;;
  2796                           
  2797                           	psect	text19
  2798  001814                     __ptext19:
  2799                           	opt stack 0
  2800  001814                     _lcd_goto:
  2801                           	opt stack 25
  2802                           
  2803                           ;incstack = 0
  2804                           ;lcd_goto@p_1 stored from wreg
  2805  001814  6E35               	movwf	lcd_goto@p_1,c
  2806                           
  2807                           ;ShiftLCD.h: 174: _y = p_1;
  2808  001816  C035  F040         	movff	lcd_goto@p_1,__y
  2809                           
  2810                           ;ShiftLCD.h: 175: _x = p_2;
  2811  00181A  C034  F03F         	movff	lcd_goto@p_2,__x
  2812                           
  2813                           ;ShiftLCD.h: 176: if(p_1==1)
  2814  00181E  0435               	decf	lcd_goto@p_1,w,c
  2815  001820  A4D8               	btfss	status,2,c
  2816  001822  D008               	goto	l2199
  2817                           
  2818                           ;ShiftLCD.h: 177: {lcd_info(0x80+((p_2-1)%16), 2);
  2819  001824  0E02               	movlw	2
  2820  001826  6E31               	movwf	lcd_info@data_type,c
  2821  001828  0434               	decf	lcd_goto@p_2,w,c
  2822  00182A  0B0F               	andlw	15
  2823  00182C  0F80               	addlw	128
  2824  00182E  EC42  F009         	call	_lcd_info
  2825                           
  2826                           ;ShiftLCD.h: 178: }else{
  2827  001832  D007               	goto	l2201
  2828  001834                     l2199:
  2829                           
  2830                           ;ShiftLCD.h: 179: lcd_info(0xC0+((p_2-1)%16), 2);
  2831  001834  0E02               	movlw	2
  2832  001836  6E31               	movwf	lcd_info@data_type,c
  2833  001838  0434               	decf	lcd_goto@p_2,w,c
  2834  00183A  0B0F               	andlw	15
  2835  00183C  0FC0               	addlw	192
  2836  00183E  EC42  F009         	call	_lcd_info
  2837  001842                     l2201:
  2838                           
  2839                           ;ShiftLCD.h: 180: }
  2840                           ;ShiftLCD.h: 181: _delay((unsigned long)((1)*(4000000/4000.0)));
  2841  001842  0EFA               	movlw	250
  2842  001844                     u2117:
  2843  001844  F000               	nop	
  2844  001846  2EE8               	decfsz	wreg,f,c
  2845  001848  D7FD               	goto	u2117
  2846  00184A  0012               	return		;funcret
  2847  00184C                     __end_of_lcd_goto:
  2848                           	opt stack 0
  2849                           tblptru	equ	0xFF8
  2850                           tblptrh	equ	0xFF7
  2851                           tblptrl	equ	0xFF6
  2852                           tablat	equ	0xFF5
  2853                           indf0	equ	0xFEF
  2854                           postinc0	equ	0xFEE
  2855                           fsr0h	equ	0xFEA
  2856                           fsr0l	equ	0xFE9
  2857                           wreg	equ	0xFE8
  2858                           indf2	equ	0xFDF
  2859                           fsr2h	equ	0xFDA
  2860                           fsr2l	equ	0xFD9
  2861                           status	equ	0xFD8
  2862                           
  2863 ;; *************** function _lcd_info *****************
  2864 ;; Defined at:
  2865 ;;		line 116 in file "ShiftLCD.h"
  2866 ;; Parameters:    Size  Location     Type
  2867 ;;  c               1    wreg     unsigned char 
  2868 ;;  data_type       1    8[COMRAM] unsigned char 
  2869 ;; Auto vars:     Size  Location     Type
  2870 ;;  c               1   10[COMRAM] unsigned char 
  2871 ;; Return value:  Size  Location     Type
  2872 ;;                  1    wreg      void 
  2873 ;; Registers used:
  2874 ;;		wreg, status,2, status,0, cstack
  2875 ;; Tracked objects:
  2876 ;;		On entry : 0/0
  2877 ;;		On exit  : 0/0
  2878 ;;		Unchanged: 0/0
  2879 ;; Data sizes:     COMRAM   BANK0   BANK1   BANK2   BANK3   BANK4   BANK5   BANK6   BANK7   BANK8   BANK9  BANK10  BANK1
      +1  BANK12  BANK13  BANK14  BANK15
  2880 ;;      Params:         1       0       0       0       0       0       0       0       0       0       0       0       
      +0       0       0       0       0
  2881 ;;      Locals:         1       0       0       0       0       0       0       0       0       0       0       0       
      +0       0       0       0       0
  2882 ;;      Temps:          1       0       0       0       0       0       0       0       0       0       0       0       
      +0       0       0       0       0
  2883 ;;      Totals:         3       0       0       0       0       0       0       0       0       0       0       0       
      +0       0       0       0       0
  2884 ;;Total ram usage:        3 bytes
  2885 ;; Hardware stack levels used:    1
  2886 ;; Hardware stack levels required when called:    2
  2887 ;; This function calls:
  2888 ;;		_shift_reg_set_pin_lcd
  2889 ;; This function is called by:
  2890 ;;		_lcd_clear
  2891 ;;		_lcd_goto
  2892 ;;		_LCD_init
  2893 ;;		_lcd_yaz
  2894 ;; This function uses a non-reentrant model
  2895 ;;
  2896                           
  2897                           	psect	text20
  2898  001284                     __ptext20:
  2899                           	opt stack 0
  2900  001284                     _lcd_info:
  2901                           	opt stack 26
  2902                           
  2903                           ;incstack = 0
  2904                           ;lcd_info@c stored from wreg
  2905  001284  6E33               	movwf	lcd_info@c,c
  2906                           
  2907                           ;ShiftLCD.h: 118: if(data_type == 2)
  2908  001286  0E02               	movlw	2
  2909  001288  1831               	xorwf	lcd_info@data_type,w,c
  2910  00128A  A4D8               	btfss	status,2,c
  2911  00128C  D006               	goto	l2165
  2912                           
  2913                           ;ShiftLCD.h: 119: shift_reg_set_pin_lcd(1, 0);
  2914  00128E  0E00               	movlw	0
  2915  001290  6E2D               	movwf	shift_reg_set_pin_lcd@value,c
  2916  001292  0E01               	movlw	1
  2917  001294  EC23  F00B         	call	_shift_reg_set_pin_lcd
  2918  001298  D005               	goto	l330
  2919  00129A                     l2165:
  2920                           
  2921                           ;ShiftLCD.h: 120: else shift_reg_set_pin_lcd(1, 1);
  2922  00129A  0E01               	movlw	1
  2923  00129C  6E2D               	movwf	shift_reg_set_pin_lcd@value,c
  2924  00129E  0E01               	movlw	1
  2925  0012A0  EC23  F00B         	call	_shift_reg_set_pin_lcd
  2926  0012A4                     l330:
  2927                           
  2928                           ;ShiftLCD.h: 122: shift_reg_set_pin_lcd(2, 1);
  2929  0012A4  0E01               	movlw	1
  2930  0012A6  6E2D               	movwf	shift_reg_set_pin_lcd@value,c
  2931  0012A8  0E02               	movlw	2
  2932  0012AA  EC23  F00B         	call	_shift_reg_set_pin_lcd
  2933                           
  2934                           ;ShiftLCD.h: 126: _temp_ = c&0xF0 ;
  2935  0012AE  5033               	movf	lcd_info@c,w,c
  2936  0012B0  0BF0               	andlw	240
  2937  0012B2  6E14               	movwf	__temp_,c
  2938                           
  2939                           ;ShiftLCD.h: 127: shift_reg_set_pin_lcd(6, (_temp_ >> 7)&0x1);
  2940  0012B4  4414               	rlncf	__temp_,w,c
  2941  0012B6  0B01               	andlw	1
  2942  0012B8  6E2D               	movwf	shift_reg_set_pin_lcd@value,c
  2943  0012BA  0E06               	movlw	6
  2944  0012BC  EC23  F00B         	call	_shift_reg_set_pin_lcd
  2945                           
  2946                           ;ShiftLCD.h: 128: shift_reg_set_pin_lcd(5, (_temp_ >> 6)&0x1);
  2947  0012C0  4414               	rlncf	__temp_,w,c
  2948  0012C2  46E8               	rlncf	wreg,f,c
  2949  0012C4  0B03               	andlw	3
  2950  0012C6  0B01               	andlw	1
  2951  0012C8  6E2D               	movwf	shift_reg_set_pin_lcd@value,c
  2952  0012CA  0E05               	movlw	5
  2953  0012CC  EC23  F00B         	call	_shift_reg_set_pin_lcd
  2954                           
  2955                           ;ShiftLCD.h: 129: shift_reg_set_pin_lcd(4, (_temp_ >> 5)&0x1);
  2956  0012D0  3814               	swapf	__temp_,w,c
  2957  0012D2  42E8               	rrncf	wreg,f,c
  2958  0012D4  0B07               	andlw	7
  2959  0012D6  0B01               	andlw	1
  2960  0012D8  6E2D               	movwf	shift_reg_set_pin_lcd@value,c
  2961  0012DA  0E04               	movlw	4
  2962  0012DC  EC23  F00B         	call	_shift_reg_set_pin_lcd
  2963                           
  2964                           ;ShiftLCD.h: 130: shift_reg_set_pin_lcd(3, (_temp_ >> 4)&0x1);
  2965  0012E0  3814               	swapf	__temp_,w,c
  2966  0012E2  0B0F               	andlw	15
  2967  0012E4  0B01               	andlw	1
  2968  0012E6  6E2D               	movwf	shift_reg_set_pin_lcd@value,c
  2969  0012E8  0E03               	movlw	3
  2970  0012EA  EC23  F00B         	call	_shift_reg_set_pin_lcd
  2971                           
  2972                           ;ShiftLCD.h: 133: _delay((unsigned long)((4)*(4000000/4000.0)));
  2973  0012EE  0E06               	movlw	6
  2974  0012F0  6E32               	movwf	??_lcd_info& (0+255),c
  2975  0012F2  0E30               	movlw	48
  2976  0012F4                     u2127:
  2977  0012F4  2EE8               	decfsz	wreg,f,c
  2978  0012F6  D7FE               	goto	u2127
  2979  0012F8  2E32               	decfsz	??_lcd_info& (0+255),f,c
  2980  0012FA  D7FC               	goto	u2127
  2981  0012FC  D000               	nop2	
  2982                           
  2983                           ;ShiftLCD.h: 134: shift_reg_set_pin_lcd(2, 0);
  2984  0012FE  0E00               	movlw	0
  2985  001300  6E2D               	movwf	shift_reg_set_pin_lcd@value,c
  2986  001302  0E02               	movlw	2
  2987  001304  EC23  F00B         	call	_shift_reg_set_pin_lcd
  2988                           
  2989                           ;ShiftLCD.h: 137: _delay((unsigned long)((4)*(4000000/4000.0)));
  2990  001308  0E06               	movlw	6
  2991  00130A  6E32               	movwf	??_lcd_info& (0+255),c
  2992  00130C  0E30               	movlw	48
  2993  00130E                     u2137:
  2994  00130E  2EE8               	decfsz	wreg,f,c
  2995  001310  D7FE               	goto	u2137
  2996  001312  2E32               	decfsz	??_lcd_info& (0+255),f,c
  2997  001314  D7FC               	goto	u2137
  2998  001316  D000               	nop2	
  2999                           
  3000                           ;ShiftLCD.h: 138: shift_reg_set_pin_lcd(2, 1);
  3001  001318  0E01               	movlw	1
  3002  00131A  6E2D               	movwf	shift_reg_set_pin_lcd@value,c
  3003  00131C  0E02               	movlw	2
  3004  00131E  EC23  F00B         	call	_shift_reg_set_pin_lcd
  3005                           
  3006                           ;ShiftLCD.h: 140: _temp_ = ((c & 0x0F)<<4) ;
  3007  001322  C033  F032         	movff	lcd_info@c,??_lcd_info
  3008  001326  0E0F               	movlw	15
  3009  001328  1632               	andwf	??_lcd_info,f,c
  3010  00132A  3832               	swapf	??_lcd_info,w,c
  3011  00132C  0BF0               	andlw	240
  3012  00132E  6E14               	movwf	__temp_,c
  3013                           
  3014                           ;ShiftLCD.h: 142: shift_reg_set_pin_lcd(6, (_temp_ >> 7)&0x1);
  3015  001330  4414               	rlncf	__temp_,w,c
  3016  001332  0B01               	andlw	1
  3017  001334  6E2D               	movwf	shift_reg_set_pin_lcd@value,c
  3018  001336  0E06               	movlw	6
  3019  001338  EC23  F00B         	call	_shift_reg_set_pin_lcd
  3020                           
  3021                           ;ShiftLCD.h: 143: shift_reg_set_pin_lcd(5, (_temp_ >> 6)&0x1);
  3022  00133C  4414               	rlncf	__temp_,w,c
  3023  00133E  46E8               	rlncf	wreg,f,c
  3024  001340  0B03               	andlw	3
  3025  001342  0B01               	andlw	1
  3026  001344  6E2D               	movwf	shift_reg_set_pin_lcd@value,c
  3027  001346  0E05               	movlw	5
  3028  001348  EC23  F00B         	call	_shift_reg_set_pin_lcd
  3029                           
  3030                           ;ShiftLCD.h: 144: shift_reg_set_pin_lcd(4, (_temp_ >> 5)&0x1);
  3031  00134C  3814               	swapf	__temp_,w,c
  3032  00134E  42E8               	rrncf	wreg,f,c
  3033  001350  0B07               	andlw	7
  3034  001352  0B01               	andlw	1
  3035  001354  6E2D               	movwf	shift_reg_set_pin_lcd@value,c
  3036  001356  0E04               	movlw	4
  3037  001358  EC23  F00B         	call	_shift_reg_set_pin_lcd
  3038                           
  3039                           ;ShiftLCD.h: 145: shift_reg_set_pin_lcd(3, (_temp_ >> 4)&0x1);
  3040  00135C  3814               	swapf	__temp_,w,c
  3041  00135E  0B0F               	andlw	15
  3042  001360  0B01               	andlw	1
  3043  001362  6E2D               	movwf	shift_reg_set_pin_lcd@value,c
  3044  001364  0E03               	movlw	3
  3045  001366  EC23  F00B         	call	_shift_reg_set_pin_lcd
  3046                           
  3047                           ;ShiftLCD.h: 150: _delay((unsigned long)((4)*(4000000/4000.0)));
  3048  00136A  0E06               	movlw	6
  3049  00136C  6E32               	movwf	??_lcd_info& (0+255),c
  3050  00136E  0E30               	movlw	48
  3051  001370                     u2147:
  3052  001370  2EE8               	decfsz	wreg,f,c
  3053  001372  D7FE               	goto	u2147
  3054  001374  2E32               	decfsz	??_lcd_info& (0+255),f,c
  3055  001376  D7FC               	goto	u2147
  3056  001378  D000               	nop2	
  3057                           
  3058                           ;ShiftLCD.h: 151: shift_reg_set_pin_lcd(2, 0);
  3059  00137A  0E00               	movlw	0
  3060  00137C  6E2D               	movwf	shift_reg_set_pin_lcd@value,c
  3061  00137E  0E02               	movlw	2
  3062  001380  EC23  F00B         	call	_shift_reg_set_pin_lcd
  3063                           
  3064                           ;ShiftLCD.h: 154: _delay((unsigned long)((10)*(4000000/4000.0)));
  3065  001384  0E0D               	movlw	13
  3066  001386  6E32               	movwf	??_lcd_info& (0+255),c
  3067  001388  0EFC               	movlw	252
  3068  00138A                     u2157:
  3069  00138A  2EE8               	decfsz	wreg,f,c
  3070  00138C  D7FE               	goto	u2157
  3071  00138E  2E32               	decfsz	??_lcd_info& (0+255),f,c
  3072  001390  D7FC               	goto	u2157
  3073  001392  0012               	return		;funcret
  3074  001394                     __end_of_lcd_info:
  3075                           	opt stack 0
  3076                           tblptru	equ	0xFF8
  3077                           tblptrh	equ	0xFF7
  3078                           tblptrl	equ	0xFF6
  3079                           tablat	equ	0xFF5
  3080                           indf0	equ	0xFEF
  3081                           postinc0	equ	0xFEE
  3082                           fsr0h	equ	0xFEA
  3083                           fsr0l	equ	0xFE9
  3084                           wreg	equ	0xFE8
  3085                           indf2	equ	0xFDF
  3086                           fsr2h	equ	0xFDA
  3087                           fsr2l	equ	0xFD9
  3088                           status	equ	0xFD8
  3089                           
  3090 ;; *************** function _shift_reg_set_pin_lcd *****************
  3091 ;; Defined at:
  3092 ;;		line 42 in file "ShiftLCD.h"
  3093 ;; Parameters:    Size  Location     Type
  3094 ;;  pin_number      1    wreg     unsigned char 
  3095 ;;  value           1    4[COMRAM] unsigned char 
  3096 ;; Auto vars:     Size  Location     Type
  3097 ;;  pin_number      1    7[COMRAM] unsigned char 
  3098 ;; Return value:  Size  Location     Type
  3099 ;;                  1    wreg      void 
  3100 ;; Registers used:
  3101 ;;		wreg, status,2, status,0, cstack
  3102 ;; Tracked objects:
  3103 ;;		On entry : 0/0
  3104 ;;		On exit  : 0/0
  3105 ;;		Unchanged: 0/0
  3106 ;; Data sizes:     COMRAM   BANK0   BANK1   BANK2   BANK3   BANK4   BANK5   BANK6   BANK7   BANK8   BANK9  BANK10  BANK1
      +1  BANK12  BANK13  BANK14  BANK15
  3107 ;;      Params:         1       0       0       0       0       0       0       0       0       0       0       0       
      +0       0       0       0       0
  3108 ;;      Locals:         1       0       0       0       0       0       0       0       0       0       0       0       
      +0       0       0       0       0
  3109 ;;      Temps:          2       0       0       0       0       0       0       0       0       0       0       0       
      +0       0       0       0       0
  3110 ;;      Totals:         4       0       0       0       0       0       0       0       0       0       0       0       
      +0       0       0       0       0
  3111 ;;Total ram usage:        4 bytes
  3112 ;; Hardware stack levels used:    1
  3113 ;; Hardware stack levels required when called:    1
  3114 ;; This function calls:
  3115 ;;		_load_shift_data_lcd
  3116 ;; This function is called by:
  3117 ;;		_lcd_info
  3118 ;;		_LCD_init
  3119 ;; This function uses a non-reentrant model
  3120 ;;
  3121                           
  3122                           	psect	text21
  3123  001646                     __ptext21:
  3124                           	opt stack 0
  3125  001646                     _shift_reg_set_pin_lcd:
  3126                           	opt stack 26
  3127                           
  3128                           ;incstack = 0
  3129                           ;shift_reg_set_pin_lcd@pin_number stored from wreg
  3130  001646  6E30               	movwf	shift_reg_set_pin_lcd@pin_number,c
  3131                           
  3132                           ;ShiftLCD.h: 44: value = value & 0x1;
  3133  001648  502D               	movf	shift_reg_set_pin_lcd@value,w,c
  3134  00164A  0B01               	andlw	1
  3135  00164C  6E2D               	movwf	shift_reg_set_pin_lcd@value,c
  3136                           
  3137                           ;ShiftLCD.h: 45: if(value)
  3138  00164E  502D               	movf	shift_reg_set_pin_lcd@value,w,c
  3139  001650  B4D8               	btfsc	status,2,c
  3140  001652  D00D               	goto	l2157
  3141                           
  3142                           ;ShiftLCD.h: 46: {
  3143                           ;ShiftLCD.h: 47: current_value_lcd |= 1 <<pin_number;
  3144  001654  C030  F02E         	movff	shift_reg_set_pin_lcd@pin_number,??_shift_reg_set_pin_lcd
  3145  001658  0E01               	movlw	1
  3146  00165A  6E2F               	movwf	(??_shift_reg_set_pin_lcd+1)& (0+255),c
  3147  00165C  2A2E               	incf	??_shift_reg_set_pin_lcd,f,c
  3148  00165E  D002               	goto	u1154
  3149  001660                     u1155:
  3150  001660  90D8               	bcf	status,0,c
  3151  001662  362F               	rlcf	??_shift_reg_set_pin_lcd+1,f,c
  3152  001664                     u1154:
  3153  001664  2E2E               	decfsz	??_shift_reg_set_pin_lcd,f,c
  3154  001666  D7FC               	goto	u1155
  3155  001668  502F               	movf	??_shift_reg_set_pin_lcd+1,w,c
  3156  00166A  1216               	iorwf	_current_value_lcd,f,c
  3157                           
  3158                           ;ShiftLCD.h: 48: }
  3159  00166C  D00D               	goto	l2159
  3160  00166E                     l2157:
  3161                           
  3162                           ;ShiftLCD.h: 49: else
  3163                           ;ShiftLCD.h: 50: {
  3164                           ;ShiftLCD.h: 51: current_value_lcd &= ~(1<<pin_number);
  3165  00166E  C030  F02E         	movff	shift_reg_set_pin_lcd@pin_number,??_shift_reg_set_pin_lcd
  3166  001672  0E01               	movlw	1
  3167  001674  6E2F               	movwf	(??_shift_reg_set_pin_lcd+1)& (0+255),c
  3168  001676  2A2E               	incf	??_shift_reg_set_pin_lcd,f,c
  3169  001678  D002               	goto	u1164
  3170  00167A                     u1165:
  3171  00167A  90D8               	bcf	status,0,c
  3172  00167C  362F               	rlcf	??_shift_reg_set_pin_lcd+1,f,c
  3173  00167E                     u1164:
  3174  00167E  2E2E               	decfsz	??_shift_reg_set_pin_lcd,f,c
  3175  001680  D7FC               	goto	u1165
  3176  001682  502F               	movf	??_shift_reg_set_pin_lcd+1,w,c
  3177  001684  0AFF               	xorlw	255
  3178  001686  1616               	andwf	_current_value_lcd,f,c
  3179  001688                     l2159:
  3180                           
  3181                           ;ShiftLCD.h: 52: }
  3182                           ;ShiftLCD.h: 54: load_shift_data_lcd(current_value_lcd);
  3183  001688  5016               	movf	_current_value_lcd,w,c
  3184  00168A  EC48  F00B         	call	_load_shift_data_lcd
  3185  00168E  0012               	return		;funcret
  3186  001690                     __end_of_shift_reg_set_pin_lcd:
  3187                           	opt stack 0
  3188                           tblptru	equ	0xFF8
  3189                           tblptrh	equ	0xFF7
  3190                           tblptrl	equ	0xFF6
  3191                           tablat	equ	0xFF5
  3192                           indf0	equ	0xFEF
  3193                           postinc0	equ	0xFEE
  3194                           fsr0h	equ	0xFEA
  3195                           fsr0l	equ	0xFE9
  3196                           wreg	equ	0xFE8
  3197                           indf2	equ	0xFDF
  3198                           fsr2h	equ	0xFDA
  3199                           fsr2l	equ	0xFD9
  3200                           status	equ	0xFD8
  3201                           
  3202 ;; *************** function _load_shift_data_lcd *****************
  3203 ;; Defined at:
  3204 ;;		line 22 in file "ShiftLCD.h"
  3205 ;; Parameters:    Size  Location     Type
  3206 ;;  data            1    wreg     unsigned char 
  3207 ;; Auto vars:     Size  Location     Type
  3208 ;;  data            1    2[COMRAM] unsigned char 
  3209 ;;  a               1    3[COMRAM] char 
  3210 ;; Return value:  Size  Location     Type
  3211 ;;                  1    wreg      void 
  3212 ;; Registers used:
  3213 ;;		wreg, status,2, status,0
  3214 ;; Tracked objects:
  3215 ;;		On entry : 0/0
  3216 ;;		On exit  : 0/0
  3217 ;;		Unchanged: 0/0
  3218 ;; Data sizes:     COMRAM   BANK0   BANK1   BANK2   BANK3   BANK4   BANK5   BANK6   BANK7   BANK8   BANK9  BANK10  BANK1
      +1  BANK12  BANK13  BANK14  BANK15
  3219 ;;      Params:         0       0       0       0       0       0       0       0       0       0       0       0       
      +0       0       0       0       0
  3220 ;;      Locals:         2       0       0       0       0       0       0       0       0       0       0       0       
      +0       0       0       0       0
  3221 ;;      Temps:          2       0       0       0       0       0       0       0       0       0       0       0       
      +0       0       0       0       0
  3222 ;;      Totals:         4       0       0       0       0       0       0       0       0       0       0       0       
      +0       0       0       0       0
  3223 ;;Total ram usage:        4 bytes
  3224 ;; Hardware stack levels used:    1
  3225 ;; This function calls:
  3226 ;;		Nothing
  3227 ;; This function is called by:
  3228 ;;		_shift_reg_set_pin_lcd
  3229 ;; This function uses a non-reentrant model
  3230 ;;
  3231                           
  3232                           	psect	text22
  3233  001690                     __ptext22:
  3234                           	opt stack 0
  3235  001690                     _load_shift_data_lcd:
  3236                           	opt stack 26
  3237                           
  3238                           ;incstack = 0
  3239                           ;load_shift_data_lcd@data stored from wreg
  3240  001690  6E2B               	movwf	load_shift_data_lcd@data,c
  3241                           
  3242                           ;ShiftLCD.h: 24: for(signed char a = 7; a > -1;a--)
  3243  001692  0E07               	movlw	7
  3244  001694  6E2C               	movwf	load_shift_data_lcd@a,c
  3245  001696                     l2131:
  3246  001696  BE2C               	btfsc	load_shift_data_lcd@a,7,c
  3247  001698  D019               	goto	l304
  3248                           
  3249                           ;ShiftLCD.h: 25: {
  3250                           ;ShiftLCD.h: 26: RE4 = (data>>a)&0x1;
  3251  00169A  C02C  F029         	movff	load_shift_data_lcd@a,??_load_shift_data_lcd
  3252  00169E  C02B  F02A         	movff	load_shift_data_lcd@data,??_load_shift_data_lcd+1
  3253  0016A2  2A29               	incf	??_load_shift_data_lcd,f,c
  3254  0016A4  D002               	goto	u1104
  3255  0016A6                     u1105:
  3256  0016A6  90D8               	bcf	status,0,c
  3257  0016A8  322A               	rrcf	??_load_shift_data_lcd+1,f,c
  3258  0016AA                     u1104:
  3259  0016AA  2E29               	decfsz	??_load_shift_data_lcd,f,c
  3260  0016AC  D7FC               	goto	u1105
  3261  0016AE  302A               	rrcf	??_load_shift_data_lcd+1,w,c
  3262  0016B0  A0D8               	btfss	status,0,c
  3263  0016B2  D002               	goto	u1110
  3264  0016B4  8884               	bsf	3972,4,c	;volatile
  3265  0016B6  D001               	goto	l2137
  3266  0016B8                     u1110:
  3267  0016B8  9884               	bcf	3972,4,c	;volatile
  3268  0016BA                     l2137:
  3269                           
  3270                           ;ShiftLCD.h: 27: _delay((unsigned long)((1)*(4000000/4000000.0)));
  3271  0016BA  F000               	nop	
  3272                           
  3273                           ;ShiftLCD.h: 28: RE3 =1;
  3274  0016BC  8684               	bsf	3972,3,c	;volatile
  3275                           
  3276                           ;ShiftLCD.h: 29: _delay((unsigned long)((3)*(4000000/4000000.0)));
  3277  0016BE  F000               	nop	
  3278  0016C0  D000               	nop2		;2 cycle nop
  3279                           
  3280                           ;ShiftLCD.h: 30: RE3 = 0;
  3281  0016C2  9684               	bcf	3972,3,c	;volatile
  3282                           
  3283                           ;ShiftLCD.h: 31: _delay((unsigned long)((3)*(4000000/4000000.0)));
  3284  0016C4  F000               	nop	
  3285  0016C6  D000               	nop2		;2 cycle nop
  3286  0016C8  062C               	decf	load_shift_data_lcd@a,f,c
  3287  0016CA  D7E5               	goto	l2131
  3288  0016CC                     l304:
  3289                           
  3290                           ;ShiftLCD.h: 33: }
  3291                           ;ShiftLCD.h: 35: RE5 = 1;
  3292  0016CC  8A84               	bsf	3972,5,c	;volatile
  3293                           
  3294                           ;ShiftLCD.h: 36: _delay((unsigned long)((3)*(4000000/4000000.0)));
  3295  0016CE  F000               	nop	
  3296  0016D0  D000               	nop2		;2 cycle nop
  3297                           
  3298                           ;ShiftLCD.h: 37: RE5 = 0;
  3299  0016D2  9A84               	bcf	3972,5,c	;volatile
  3300                           
  3301                           ;ShiftLCD.h: 38: _delay((unsigned long)((3)*(4000000/4000000.0)));
  3302  0016D4  F000               	nop	
  3303  0016D6  D000               	nop2		;2 cycle nop
  3304  0016D8  0012               	return		;funcret
  3305  0016DA                     __end_of_load_shift_data_lcd:
  3306                           	opt stack 0
  3307                           tblptru	equ	0xFF8
  3308                           tblptrh	equ	0xFF7
  3309                           tblptrl	equ	0xFF6
  3310                           tablat	equ	0xFF5
  3311                           indf0	equ	0xFEF
  3312                           postinc0	equ	0xFEE
  3313                           fsr0h	equ	0xFEA
  3314                           fsr0l	equ	0xFE9
  3315                           wreg	equ	0xFE8
  3316                           indf2	equ	0xFDF
  3317                           fsr2h	equ	0xFDA
  3318                           fsr2l	equ	0xFD9
  3319                           status	equ	0xFD8
  3320                           
  3321 ;; *************** function _I2C2_initialize *****************
  3322 ;; Defined at:
  3323 ;;		line 211 in file "I2C.h"
  3324 ;; Parameters:    Size  Location     Type
  3325 ;;		None
  3326 ;; Auto vars:     Size  Location     Type
  3327 ;;		None
  3328 ;; Return value:  Size  Location     Type
  3329 ;;                  1    wreg      void 
  3330 ;; Registers used:
  3331 ;;		wreg, status,2, status,0, cstack
  3332 ;; Tracked objects:
  3333 ;;		On entry : 0/0
  3334 ;;		On exit  : 0/0
  3335 ;;		Unchanged: 0/0
  3336 ;; Data sizes:     COMRAM   BANK0   BANK1   BANK2   BANK3   BANK4   BANK5   BANK6   BANK7   BANK8   BANK9  BANK10  BANK1
      +1  BANK12  BANK13  BANK14  BANK15
  3337 ;;      Params:         0       0       0       0       0       0       0       0       0       0       0       0       
      +0       0       0       0       0
  3338 ;;      Locals:         0       0       0       0       0       0       0       0       0       0       0       0       
      +0       0       0       0       0
  3339 ;;      Temps:          0       0       0       0       0       0       0       0       0       0       0       0       
      +0       0       0       0       0
  3340 ;;      Totals:         0       0       0       0       0       0       0       0       0       0       0       0       
      +0       0       0       0       0
  3341 ;;Total ram usage:        0 bytes
  3342 ;; Hardware stack levels used:    1
  3343 ;; Hardware stack levels required when called:    1
  3344 ;; This function calls:
  3345 ;;		_DELAY
  3346 ;; This function is called by:
  3347 ;;		_main
  3348 ;; This function uses a non-reentrant model
  3349 ;;
  3350                           
  3351                           	psect	text23
  3352  001940                     __ptext23:
  3353                           	opt stack 0
  3354  001940                     _I2C2_initialize:
  3355                           	opt stack 29
  3356                           
  3357                           ;I2C.h: 221: TRISD5 = 1;
  3358                           
  3359                           ;incstack = 0
  3360  001940  8A95               	bsf	3989,5,c	;volatile
  3361                           
  3362                           ;I2C.h: 222: TRISD6 = 1;
  3363  001942  8C95               	bsf	3989,6,c	;volatile
  3364                           
  3365                           ;I2C.h: 224: SSPM32 = 1;
  3366  001944  8663               	bsf	3939,3,c	;volatile
  3367                           
  3368                           ;I2C.h: 225: SSPM22 = 0;
  3369  001946  9463               	bcf	3939,2,c	;volatile
  3370                           
  3371                           ;I2C.h: 226: SSPM12 = 0;
  3372  001948  9263               	bcf	3939,1,c	;volatile
  3373                           
  3374                           ;I2C.h: 227: SSPM02 = 0;
  3375  00194A  9063               	bcf	3939,0,c	;volatile
  3376                           
  3377                           ;I2C.h: 258: SMP2 = 1;
  3378  00194C  8E64               	bsf	3940,7,c	;volatile
  3379                           
  3380                           ;I2C.h: 259: SSP2ADD = 9;
  3381  00194E  0E09               	movlw	9
  3382  001950  6E65               	movwf	3941,c	;volatile
  3383                           
  3384                           ;I2C.h: 265: SSPEN2 = 1 ;
  3385  001952  8A63               	bsf	3939,5,c	;volatile
  3386                           
  3387                           ;I2C.h: 266: SSP2IF = 0;
  3388  001954  9EA4               	bcf	4004,7,c	;volatile
  3389                           
  3390                           ;I2C.h: 267: DELAY(5);
  3391  001956  0E05               	movlw	5
  3392  001958  ECCB  F00C         	call	_DELAY
  3393  00195C  0012               	return		;funcret
  3394  00195E                     __end_of_I2C2_initialize:
  3395                           	opt stack 0
  3396                           tblptru	equ	0xFF8
  3397                           tblptrh	equ	0xFF7
  3398                           tblptrl	equ	0xFF6
  3399                           tablat	equ	0xFF5
  3400                           indf0	equ	0xFEF
  3401                           postinc0	equ	0xFEE
  3402                           fsr0h	equ	0xFEA
  3403                           fsr0l	equ	0xFE9
  3404                           wreg	equ	0xFE8
  3405                           indf2	equ	0xFDF
  3406                           fsr2h	equ	0xFDA
  3407                           fsr2l	equ	0xFD9
  3408                           status	equ	0xFD8
  3409                           
  3410 ;; *************** function _DELAY *****************
  3411 ;; Defined at:
  3412 ;;		line 57 in file "PIC18F8722.c"
  3413 ;; Parameters:    Size  Location     Type
  3414 ;;  number          1    wreg     unsigned char 
  3415 ;; Auto vars:     Size  Location     Type
  3416 ;;  number          1    0[COMRAM] unsigned char 
  3417 ;;  k               1    1[COMRAM] unsigned char 
  3418 ;; Return value:  Size  Location     Type
  3419 ;;                  1    wreg      void 
  3420 ;; Registers used:
  3421 ;;		wreg, status,2, status,0, cstack
  3422 ;; Tracked objects:
  3423 ;;		On entry : 0/0
  3424 ;;		On exit  : 0/0
  3425 ;;		Unchanged: 0/0
  3426 ;; Data sizes:     COMRAM   BANK0   BANK1   BANK2   BANK3   BANK4   BANK5   BANK6   BANK7   BANK8   BANK9  BANK10  BANK1
      +1  BANK12  BANK13  BANK14  BANK15
  3427 ;;      Params:         0       0       0       0       0       0       0       0       0       0       0       0       
      +0       0       0       0       0
  3428 ;;      Locals:         2       0       0       0       0       0       0       0       0       0       0       0       
      +0       0       0       0       0
  3429 ;;      Temps:          0       0       0       0       0       0       0       0       0       0       0       0       
      +0       0       0       0       0
  3430 ;;      Totals:         2       0       0       0       0       0       0       0       0       0       0       0       
      +0       0       0       0       0
  3431 ;;Total ram usage:        2 bytes
  3432 ;; Hardware stack levels used:    1
  3433 ;; This function calls:
  3434 ;;		Nothing
  3435 ;; This function is called by:
  3436 ;;		_I2C2_initialize
  3437 ;;		_SDCARD_send_command
  3438 ;;		_SDCARD_baslat
  3439 ;;		_main
  3440 ;;		_I2C_initialize
  3441 ;; This function uses a non-reentrant model
  3442 ;;
  3443                           
  3444                           	psect	text24
  3445  001996                     __ptext24:
  3446                           	opt stack 0
  3447  001996                     _DELAY:
  3448                           	opt stack 28
  3449                           
  3450                           ;incstack = 0
  3451                           ;DELAY@number stored from wreg
  3452  001996  6E29               	movwf	DELAY@number,c
  3453                           
  3454                           ;PIC18F8722.c: 59: for(byte k=0; k != number; k++)
  3455  001998  0E00               	movlw	0
  3456  00199A  6E2A               	movwf	DELAY@k,c
  3457  00199C  D005               	goto	l2209
  3458  00199E                     l2205:
  3459                           
  3460                           ;PIC18F8722.c: 60: _delay((unsigned long)((1)*(4000000/4000.0)));
  3461  00199E  0EFA               	movlw	250
  3462  0019A0                     u2167:
  3463  0019A0  F000               	nop	
  3464  0019A2  2EE8               	decfsz	wreg,f,c
  3465  0019A4  D7FD               	goto	u2167
  3466  0019A6  2A2A               	incf	DELAY@k,f,c
  3467  0019A8                     l2209:
  3468  0019A8  5029               	movf	DELAY@number,w,c
  3469  0019AA  182A               	xorwf	DELAY@k,w,c
  3470  0019AC  B4D8               	btfsc	status,2,c
  3471  0019AE  0012               	return	
  3472  0019B0  D7F6               	goto	l2205
  3473  0019B2                     __end_of_DELAY:
  3474                           	opt stack 0
  3475                           tblptru	equ	0xFF8
  3476                           tblptrh	equ	0xFF7
  3477                           tblptrl	equ	0xFF6
  3478                           tablat	equ	0xFF5
  3479                           indf0	equ	0xFEF
  3480                           postinc0	equ	0xFEE
  3481                           fsr0h	equ	0xFEA
  3482                           fsr0l	equ	0xFE9
  3483                           wreg	equ	0xFE8
  3484                           indf2	equ	0xFDF
  3485                           fsr2h	equ	0xFDA
  3486                           fsr2l	equ	0xFD9
  3487                           status	equ	0xFD8
  3488                           
  3489 ;; *************** function _I2C2_data_send *****************
  3490 ;; Defined at:
  3491 ;;		line 406 in file "I2C.h"
  3492 ;; Parameters:    Size  Location     Type
  3493 ;;  data            1    wreg     unsigned char 
  3494 ;; Auto vars:     Size  Location     Type
  3495 ;;  data            1    0[COMRAM] unsigned char 
  3496 ;; Return value:  Size  Location     Type
  3497 ;;                  1    wreg      void 
  3498 ;; Registers used:
  3499 ;;		wreg, status,2, status,0
  3500 ;; Tracked objects:
  3501 ;;		On entry : 0/0
  3502 ;;		On exit  : 0/0
  3503 ;;		Unchanged: 0/0
  3504 ;; Data sizes:     COMRAM   BANK0   BANK1   BANK2   BANK3   BANK4   BANK5   BANK6   BANK7   BANK8   BANK9  BANK10  BANK1
      +1  BANK12  BANK13  BANK14  BANK15
  3505 ;;      Params:         0       0       0       0       0       0       0       0       0       0       0       0       
      +0       0       0       0       0
  3506 ;;      Locals:         1       0       0       0       0       0       0       0       0       0       0       0       
      +0       0       0       0       0
  3507 ;;      Temps:          0       0       0       0       0       0       0       0       0       0       0       0       
      +0       0       0       0       0
  3508 ;;      Totals:         1       0       0       0       0       0       0       0       0       0       0       0       
      +0       0       0       0       0
  3509 ;;Total ram usage:        1 bytes
  3510 ;; Hardware stack levels used:    1
  3511 ;; This function calls:
  3512 ;;		Nothing
  3513 ;; This function is called by:
  3514 ;;		_main
  3515 ;;		_DS1307_shared_get
  3516 ;; This function uses a non-reentrant model
  3517 ;;
  3518                           
  3519                           	psect	text25
  3520  0018FA                     __ptext25:
  3521                           	opt stack 0
  3522  0018FA                     _I2C2_data_send:
  3523                           	opt stack 30
  3524                           
  3525                           ;incstack = 0
  3526                           ;I2C2_data_send@data stored from wreg
  3527  0018FA  6E29               	movwf	I2C2_data_send@data,c
  3528                           
  3529                           ;I2C.h: 408: SSP2IF = 0;
  3530  0018FC  9EA4               	bcf	4004,7,c	;volatile
  3531                           
  3532                           ;I2C.h: 409: SSP2BUF = data ;
  3533  0018FE  C029  FF66         	movff	I2C2_data_send@data,3942	;volatile
  3534  001902                     l475:
  3535  001902  A064               	btfss	3940,0,c	;volatile
  3536  001904  D006               	goto	l478
  3537  001906  D7FD               	goto	l475
  3538  001908                     l2437:
  3539  001908  2A1E               	incf	_unnecessary,f,c
  3540  00190A  0EC8               	movlw	200
  3541  00190C  181E               	xorwf	_unnecessary,w,c
  3542  00190E  B4D8               	btfsc	status,2,c
  3543  001910  D002               	goto	l481
  3544  001912                     l478:
  3545  001912  AEA4               	btfss	4004,7,c	;volatile
  3546  001914  D7F9               	goto	l2437
  3547  001916                     l481:
  3548                           
  3549                           ;I2C.h: 412: SSP2IF = 0;
  3550  001916  9EA4               	bcf	4004,7,c	;volatile
  3551                           
  3552                           ;I2C.h: 413: unnecessary = 0;
  3553  001918  0E00               	movlw	0
  3554  00191A  6E1E               	movwf	_unnecessary,c
  3555  00191C  0012               	return		;funcret
  3556  00191E                     __end_of_I2C2_data_send:
  3557                           	opt stack 0
  3558                           tblptru	equ	0xFF8
  3559                           tblptrh	equ	0xFF7
  3560                           tblptrl	equ	0xFF6
  3561                           tablat	equ	0xFF5
  3562                           indf0	equ	0xFEF
  3563                           postinc0	equ	0xFEE
  3564                           fsr0h	equ	0xFEA
  3565                           fsr0l	equ	0xFE9
  3566                           wreg	equ	0xFE8
  3567                           indf2	equ	0xFDF
  3568                           fsr2h	equ	0xFDA
  3569                           fsr2l	equ	0xFD9
  3570                           status	equ	0xFD8
  3571                           
  3572 ;; *************** function _I2C2_Stop *****************
  3573 ;; Defined at:
  3574 ;;		line 498 in file "I2C.h"
  3575 ;; Parameters:    Size  Location     Type
  3576 ;;		None
  3577 ;; Auto vars:     Size  Location     Type
  3578 ;;		None
  3579 ;; Return value:  Size  Location     Type
  3580 ;;                  1    wreg      void 
  3581 ;; Registers used:
  3582 ;;		None
  3583 ;; Tracked objects:
  3584 ;;		On entry : 0/0
  3585 ;;		On exit  : 0/0
  3586 ;;		Unchanged: 0/0
  3587 ;; Data sizes:     COMRAM   BANK0   BANK1   BANK2   BANK3   BANK4   BANK5   BANK6   BANK7   BANK8   BANK9  BANK10  BANK1
      +1  BANK12  BANK13  BANK14  BANK15
  3588 ;;      Params:         0       0       0       0       0       0       0       0       0       0       0       0       
      +0       0       0       0       0
  3589 ;;      Locals:         0       0       0       0       0       0       0       0       0       0       0       0       
      +0       0       0       0       0
  3590 ;;      Temps:          0       0       0       0       0       0       0       0       0       0       0       0       
      +0       0       0       0       0
  3591 ;;      Totals:         0       0       0       0       0       0       0       0       0       0       0       0       
      +0       0       0       0       0
  3592 ;;Total ram usage:        0 bytes
  3593 ;; Hardware stack levels used:    1
  3594 ;; This function calls:
  3595 ;;		Nothing
  3596 ;; This function is called by:
  3597 ;;		_main
  3598 ;;		_DS1307_shared_get
  3599 ;; This function uses a non-reentrant model
  3600 ;;
  3601                           
  3602                           	psect	text26
  3603  001A42                     __ptext26:
  3604                           	opt stack 0
  3605  001A42                     _I2C2_Stop:
  3606                           	opt stack 30
  3607                           
  3608                           ;I2C.h: 500: PEN2 = 1;
  3609                           
  3610                           ;incstack = 0
  3611  001A42  8462               	bsf	3938,2,c	;volatile
  3612  001A44                     l515:
  3613  001A44  B462               	btfsc	3938,2,c	;volatile
  3614  001A46  D7FE               	goto	l515
  3615                           
  3616                           ;I2C.h: 503: SSP2IF = 0;
  3617  001A48  9EA4               	bcf	4004,7,c	;volatile
  3618  001A4A  0012               	return		;funcret
  3619  001A4C                     __end_of_I2C2_Stop:
  3620                           	opt stack 0
  3621                           tblptru	equ	0xFF8
  3622                           tblptrh	equ	0xFF7
  3623                           tblptrl	equ	0xFF6
  3624                           tablat	equ	0xFF5
  3625                           indf0	equ	0xFEF
  3626                           postinc0	equ	0xFEE
  3627                           fsr0h	equ	0xFEA
  3628                           fsr0l	equ	0xFE9
  3629                           wreg	equ	0xFE8
  3630                           indf2	equ	0xFDF
  3631                           fsr2h	equ	0xFDA
  3632                           fsr2l	equ	0xFD9
  3633                           status	equ	0xFD8
  3634                           
  3635 ;; *************** function _I2C2_Start *****************
  3636 ;; Defined at:
  3637 ;;		line 285 in file "I2C.h"
  3638 ;; Parameters:    Size  Location     Type
  3639 ;;		None
  3640 ;; Auto vars:     Size  Location     Type
  3641 ;;		None
  3642 ;; Return value:  Size  Location     Type
  3643 ;;                  1    wreg      void 
  3644 ;; Registers used:
  3645 ;;		wreg
  3646 ;; Tracked objects:
  3647 ;;		On entry : 0/0
  3648 ;;		On exit  : 0/0
  3649 ;;		Unchanged: 0/0
  3650 ;; Data sizes:     COMRAM   BANK0   BANK1   BANK2   BANK3   BANK4   BANK5   BANK6   BANK7   BANK8   BANK9  BANK10  BANK1
      +1  BANK12  BANK13  BANK14  BANK15
  3651 ;;      Params:         0       0       0       0       0       0       0       0       0       0       0       0       
      +0       0       0       0       0
  3652 ;;      Locals:         0       0       0       0       0       0       0       0       0       0       0       0       
      +0       0       0       0       0
  3653 ;;      Temps:          1       0       0       0       0       0       0       0       0       0       0       0       
      +0       0       0       0       0
  3654 ;;      Totals:         1       0       0       0       0       0       0       0       0       0       0       0       
      +0       0       0       0       0
  3655 ;;Total ram usage:        1 bytes
  3656 ;; Hardware stack levels used:    1
  3657 ;; This function calls:
  3658 ;;		Nothing
  3659 ;; This function is called by:
  3660 ;;		_main
  3661 ;;		_DS1307_shared_get
  3662 ;; This function uses a non-reentrant model
  3663 ;;
  3664                           
  3665                           	psect	text27
  3666  0019E6                     __ptext27:
  3667                           	opt stack 0
  3668  0019E6                     _I2C2_Start:
  3669                           	opt stack 30
  3670                           
  3671                           ;I2C.h: 288: SEN2 = 1;
  3672                           
  3673                           ;incstack = 0
  3674  0019E6  8062               	bsf	3938,0,c	;volatile
  3675  0019E8                     l439:
  3676  0019E8  B062               	btfsc	3938,0,c	;volatile
  3677  0019EA  D7FE               	goto	l439
  3678                           
  3679                           ;I2C.h: 292: SSP2IF = 0;
  3680  0019EC  9EA4               	bcf	4004,7,c	;volatile
  3681                           
  3682                           ;I2C.h: 293: _delay((unsigned long)((2)*(4000000/4000.0)));
  3683  0019EE  0E03               	movlw	3
  3684  0019F0  6E29               	movwf	??_I2C2_Start& (0+255),c
  3685  0019F2  0E98               	movlw	152
  3686  0019F4                     u2177:
  3687  0019F4  2EE8               	decfsz	wreg,f,c
  3688  0019F6  D7FE               	goto	u2177
  3689  0019F8  2E29               	decfsz	??_I2C2_Start& (0+255),f,c
  3690  0019FA  D7FC               	goto	u2177
  3691  0019FC  0012               	return		;funcret
  3692  0019FE                     __end_of_I2C2_Start:
  3693                           	opt stack 0
  3694                           tblptru	equ	0xFF8
  3695                           tblptrh	equ	0xFF7
  3696                           tblptrl	equ	0xFF6
  3697                           tablat	equ	0xFF5
  3698                           indf0	equ	0xFEF
  3699                           postinc0	equ	0xFEE
  3700                           fsr0h	equ	0xFEA
  3701                           fsr0l	equ	0xFE9
  3702                           wreg	equ	0xFE8
  3703                           indf2	equ	0xFDF
  3704                           fsr2h	equ	0xFDA
  3705                           fsr2l	equ	0xFD9
  3706                           status	equ	0xFD8
  3707                           
  3708 ;; *************** function _EEPROM_write_byte *****************
  3709 ;; Defined at:
  3710 ;;		line 28 in file "EEPROM.h"
  3711 ;; Parameters:    Size  Location     Type
  3712 ;;  address         2    0[COMRAM] int 
  3713 ;;  value           1    2[COMRAM] unsigned char 
  3714 ;; Auto vars:     Size  Location     Type
  3715 ;;		None
  3716 ;; Return value:  Size  Location     Type
  3717 ;;                  1    wreg      void 
  3718 ;; Registers used:
  3719 ;;		wreg, status,2
  3720 ;; Tracked objects:
  3721 ;;		On entry : 0/0
  3722 ;;		On exit  : 0/0
  3723 ;;		Unchanged: 0/0
  3724 ;; Data sizes:     COMRAM   BANK0   BANK1   BANK2   BANK3   BANK4   BANK5   BANK6   BANK7   BANK8   BANK9  BANK10  BANK1
      +1  BANK12  BANK13  BANK14  BANK15
  3725 ;;      Params:         3       0       0       0       0       0       0       0       0       0       0       0       
      +0       0       0       0       0
  3726 ;;      Locals:         0       0       0       0       0       0       0       0       0       0       0       0       
      +0       0       0       0       0
  3727 ;;      Temps:          0       0       0       0       0       0       0       0       0       0       0       0       
      +0       0       0       0       0
  3728 ;;      Totals:         3       0       0       0       0       0       0       0       0       0       0       0       
      +0       0       0       0       0
  3729 ;;Total ram usage:        3 bytes
  3730 ;; Hardware stack levels used:    1
  3731 ;; This function calls:
  3732 ;;		Nothing
  3733 ;; This function is called by:
  3734 ;;		_main
  3735 ;; This function uses a non-reentrant model
  3736 ;;
  3737                           
  3738                           	psect	text28
  3739  0018D4                     __ptext28:
  3740                           	opt stack 0
  3741  0018D4                     _EEPROM_write_byte:
  3742                           	opt stack 30
  3743                           
  3744                           ;EEPROM.h: 30: EEDATA = value;
  3745                           
  3746                           ;incstack = 0
  3747  0018D4  C02B  FFA8         	movff	EEPROM_write_byte@value,4008	;volatile
  3748                           
  3749                           ;EEPROM.h: 31: EEPGD = 0;
  3750  0018D8  9EA6               	bcf	4006,7,c	;volatile
  3751                           
  3752                           ;EEPROM.h: 32: CFGS = 0;
  3753  0018DA  9CA6               	bcf	4006,6,c	;volatile
  3754                           
  3755                           ;EEPROM.h: 33: EEADRH = (address>>8)&0xff;
  3756  0018DC  502A               	movf	EEPROM_write_byte@address+1,w,c
  3757  0018DE  6EAA               	movwf	4010,c	;volatile
  3758                           
  3759                           ;EEPROM.h: 34: EEADR = address&0xff;
  3760  0018E0  C029  FFA9         	movff	EEPROM_write_byte@address,4009	;volatile
  3761                           
  3762                           ;EEPROM.h: 36: WREN = 1;
  3763  0018E4  84A6               	bsf	4006,2,c	;volatile
  3764                           
  3765                           ;EEPROM.h: 38: EECON2 = 0x55;
  3766  0018E6  0E55               	movlw	85
  3767  0018E8  6EA7               	movwf	4007,c	;volatile
  3768                           
  3769                           ;EEPROM.h: 39: EECON2 = 0xaa;
  3770  0018EA  0EAA               	movlw	170
  3771  0018EC  6EA7               	movwf	4007,c	;volatile
  3772                           
  3773                           ;EEPROM.h: 41: WR = 1;
  3774  0018EE  82A6               	bsf	4006,1,c	;volatile
  3775  0018F0                     l379:
  3776  0018F0  B2A6               	btfsc	4006,1,c	;volatile
  3777  0018F2  D7FE               	goto	l379
  3778                           
  3779                           ;EEPROM.h: 45: EEIF = 0;
  3780  0018F4  98A1               	bcf	4001,4,c	;volatile
  3781                           
  3782                           ;EEPROM.h: 46: WREN = 0;
  3783  0018F6  94A6               	bcf	4006,2,c	;volatile
  3784  0018F8  0012               	return		;funcret
  3785  0018FA                     __end_of_EEPROM_write_byte:
  3786                           	opt stack 0
  3787                           tblptru	equ	0xFF8
  3788                           tblptrh	equ	0xFF7
  3789                           tblptrl	equ	0xFF6
  3790                           tablat	equ	0xFF5
  3791                           indf0	equ	0xFEF
  3792                           postinc0	equ	0xFEE
  3793                           fsr0h	equ	0xFEA
  3794                           fsr0l	equ	0xFE9
  3795                           wreg	equ	0xFE8
  3796                           indf2	equ	0xFDF
  3797                           fsr2h	equ	0xFDA
  3798                           fsr2l	equ	0xFD9
  3799                           status	equ	0xFD8
  3800                           
  3801 ;; *************** function _EEPROM_read_byte *****************
  3802 ;; Defined at:
  3803 ;;		line 17 in file "EEPROM.h"
  3804 ;; Parameters:    Size  Location     Type
  3805 ;;  address         2    0[COMRAM] int 
  3806 ;; Auto vars:     Size  Location     Type
  3807 ;;		None
  3808 ;; Return value:  Size  Location     Type
  3809 ;;                  1    wreg      unsigned char 
  3810 ;; Registers used:
  3811 ;;		wreg, status,2
  3812 ;; Tracked objects:
  3813 ;;		On entry : 0/0
  3814 ;;		On exit  : 0/0
  3815 ;;		Unchanged: 0/0
  3816 ;; Data sizes:     COMRAM   BANK0   BANK1   BANK2   BANK3   BANK4   BANK5   BANK6   BANK7   BANK8   BANK9  BANK10  BANK1
      +1  BANK12  BANK13  BANK14  BANK15
  3817 ;;      Params:         2       0       0       0       0       0       0       0       0       0       0       0       
      +0       0       0       0       0
  3818 ;;      Locals:         0       0       0       0       0       0       0       0       0       0       0       0       
      +0       0       0       0       0
  3819 ;;      Temps:          0       0       0       0       0       0       0       0       0       0       0       0       
      +0       0       0       0       0
  3820 ;;      Totals:         2       0       0       0       0       0       0       0       0       0       0       0       
      +0       0       0       0       0
  3821 ;;Total ram usage:        2 bytes
  3822 ;; Hardware stack levels used:    1
  3823 ;; This function calls:
  3824 ;;		Nothing
  3825 ;; This function is called by:
  3826 ;;		_main
  3827 ;; This function uses a non-reentrant model
  3828 ;;
  3829                           
  3830                           	psect	text29
  3831  0019FE                     __ptext29:
  3832                           	opt stack 0
  3833  0019FE                     _EEPROM_read_byte:
  3834                           	opt stack 30
  3835                           
  3836                           ;EEPROM.h: 19: EEPGD = 0;
  3837                           
  3838                           ;incstack = 0
  3839  0019FE  9EA6               	bcf	4006,7,c	;volatile
  3840                           
  3841                           ;EEPROM.h: 20: CFGS = 0;
  3842  001A00  9CA6               	bcf	4006,6,c	;volatile
  3843                           
  3844                           ;EEPROM.h: 21: EEADRH = (address >> 8)&0xff;
  3845  001A02  502A               	movf	EEPROM_read_byte@address+1,w,c
  3846  001A04  6EAA               	movwf	4010,c	;volatile
  3847                           
  3848                           ;EEPROM.h: 22: EEADR = address &0xff;
  3849  001A06  C029  FFA9         	movff	EEPROM_read_byte@address,4009	;volatile
  3850                           
  3851                           ;EEPROM.h: 23: RD = 1;
  3852  001A0A  80A6               	bsf	4006,0,c	;volatile
  3853  001A0C                     l373:
  3854  001A0C  B0A6               	btfsc	4006,0,c	;volatile
  3855  001A0E  D7FE               	goto	l373
  3856                           
  3857                           ;EEPROM.h: 25: EEIF = 0;
  3858  001A10  98A1               	bcf	4001,4,c	;volatile
  3859                           
  3860                           ;EEPROM.h: 26: return EEDATA;
  3861  001A12  50A8               	movf	4008,w,c	;volatile
  3862  001A14  0012               	return	
  3863  001A16                     __end_of_EEPROM_read_byte:
  3864                           	opt stack 0
  3865                           tblptru	equ	0xFF8
  3866                           tblptrh	equ	0xFF7
  3867                           tblptrl	equ	0xFF6
  3868                           tablat	equ	0xFF5
  3869                           indf0	equ	0xFEF
  3870                           postinc0	equ	0xFEE
  3871                           fsr0h	equ	0xFEA
  3872                           fsr0l	equ	0xFE9
  3873                           wreg	equ	0xFE8
  3874                           indf2	equ	0xFDF
  3875                           fsr2h	equ	0xFDA
  3876                           fsr2l	equ	0xFD9
  3877                           status	equ	0xFD8
  3878                           
  3879 ;; *************** function _DELAY100 *****************
  3880 ;; Defined at:
  3881 ;;		line 62 in file "PIC18F8722.c"
  3882 ;; Parameters:    Size  Location     Type
  3883 ;;  number          1    wreg     unsigned char 
  3884 ;; Auto vars:     Size  Location     Type
  3885 ;;  number          1    1[COMRAM] unsigned char 
  3886 ;;  k               1    2[COMRAM] unsigned char 
  3887 ;; Return value:  Size  Location     Type
  3888 ;;                  1    wreg      void 
  3889 ;; Registers used:
  3890 ;;		wreg, status,2, status,0, cstack
  3891 ;; Tracked objects:
  3892 ;;		On entry : 0/0
  3893 ;;		On exit  : 0/0
  3894 ;;		Unchanged: 0/0
  3895 ;; Data sizes:     COMRAM   BANK0   BANK1   BANK2   BANK3   BANK4   BANK5   BANK6   BANK7   BANK8   BANK9  BANK10  BANK1
      +1  BANK12  BANK13  BANK14  BANK15
  3896 ;;      Params:         0       0       0       0       0       0       0       0       0       0       0       0       
      +0       0       0       0       0
  3897 ;;      Locals:         2       0       0       0       0       0       0       0       0       0       0       0       
      +0       0       0       0       0
  3898 ;;      Temps:          1       0       0       0       0       0       0       0       0       0       0       0       
      +0       0       0       0       0
  3899 ;;      Totals:         3       0       0       0       0       0       0       0       0       0       0       0       
      +0       0       0       0       0
  3900 ;;Total ram usage:        3 bytes
  3901 ;; Hardware stack levels used:    1
  3902 ;; This function calls:
  3903 ;;		Nothing
  3904 ;; This function is called by:
  3905 ;;		_main
  3906 ;; This function uses a non-reentrant model
  3907 ;;
  3908                           
  3909                           	psect	text30
  3910  00191E                     __ptext30:
  3911                           	opt stack 0
  3912  00191E                     _DELAY100:
  3913                           	opt stack 30
  3914                           
  3915                           ;incstack = 0
  3916                           ;DELAY100@number stored from wreg
  3917  00191E  6E2A               	movwf	DELAY100@number,c
  3918                           
  3919                           ;PIC18F8722.c: 64: for(byte k=0; k != number; k++)
  3920  001920  0E00               	movlw	0
  3921  001922  6E2B               	movwf	DELAY100@k,c
  3922  001924  D008               	goto	l2311
  3923  001926                     l2307:
  3924                           
  3925                           ;PIC18F8722.c: 65: _delay((unsigned long)((100)*(4000000/4000.0)));
  3926  001926  0E82               	movlw	130
  3927  001928  6E29               	movwf	??_DELAY100& (0+255),c
  3928  00192A  0EDE               	movlw	222
  3929  00192C                     u2187:
  3930  00192C  2EE8               	decfsz	wreg,f,c
  3931  00192E  D7FE               	goto	u2187
  3932  001930  2E29               	decfsz	??_DELAY100& (0+255),f,c
  3933  001932  D7FC               	goto	u2187
  3934  001934  2A2B               	incf	DELAY100@k,f,c
  3935  001936                     l2311:
  3936  001936  502A               	movf	DELAY100@number,w,c
  3937  001938  182B               	xorwf	DELAY100@k,w,c
  3938  00193A  B4D8               	btfsc	status,2,c
  3939  00193C  0012               	return	
  3940  00193E  D7F3               	goto	l2307
  3941  001940                     __end_of_DELAY100:
  3942                           	opt stack 0
  3943                           tblptru	equ	0xFF8
  3944                           tblptrh	equ	0xFF7
  3945                           tblptrl	equ	0xFF6
  3946                           tablat	equ	0xFF5
  3947                           indf0	equ	0xFEF
  3948                           postinc0	equ	0xFEE
  3949                           fsr0h	equ	0xFEA
  3950                           fsr0l	equ	0xFE9
  3951                           wreg	equ	0xFE8
  3952                           indf2	equ	0xFDF
  3953                           fsr2h	equ	0xFDA
  3954                           fsr2l	equ	0xFD9
  3955                           status	equ	0xFD8
  3956                           
  3957 ;; *************** function _ADC_read *****************
  3958 ;; Defined at:
  3959 ;;		line 83 in file "ADC.h"
  3960 ;; Parameters:    Size  Location     Type
  3961 ;;  channel_numb    1    wreg     unsigned char 
  3962 ;; Auto vars:     Size  Location     Type
  3963 ;;  channel_numb    1    6[COMRAM] unsigned char 
  3964 ;;  val             2    4[COMRAM] int 
  3965 ;; Return value:  Size  Location     Type
  3966 ;;                  2    0[COMRAM] int 
  3967 ;; Registers used:
  3968 ;;		wreg, status,2, status,0
  3969 ;; Tracked objects:
  3970 ;;		On entry : 0/0
  3971 ;;		On exit  : 0/0
  3972 ;;		Unchanged: 0/0
  3973 ;; Data sizes:     COMRAM   BANK0   BANK1   BANK2   BANK3   BANK4   BANK5   BANK6   BANK7   BANK8   BANK9  BANK10  BANK1
      +1  BANK12  BANK13  BANK14  BANK15
  3974 ;;      Params:         2       0       0       0       0       0       0       0       0       0       0       0       
      +0       0       0       0       0
  3975 ;;      Locals:         3       0       0       0       0       0       0       0       0       0       0       0       
      +0       0       0       0       0
  3976 ;;      Temps:          2       0       0       0       0       0       0       0       0       0       0       0       
      +0       0       0       0       0
  3977 ;;      Totals:         7       0       0       0       0       0       0       0       0       0       0       0       
      +0       0       0       0       0
  3978 ;;Total ram usage:        7 bytes
  3979 ;; Hardware stack levels used:    1
  3980 ;; This function calls:
  3981 ;;		Nothing
  3982 ;; This function is called by:
  3983 ;;		_main
  3984 ;;		_TempIndicator_read
  3985 ;; This function uses a non-reentrant model
  3986 ;;
  3987                           
  3988                           	psect	text31
  3989  0015EA                     __ptext31:
  3990                           	opt stack 0
  3991  0015EA                     _ADC_read:
  3992                           	opt stack 30
  3993                           
  3994                           ;incstack = 0
  3995                           ;ADC_read@channel_number stored from wreg
  3996  0015EA  6E2F               	movwf	ADC_read@channel_number,c
  3997                           
  3998                           ;ADC.h: 87: ADCON0 = (channel_number<<2) | (ADCON0 & 0b00000011);
  3999  0015EC  CFC2 F02B          	movff	4034,??_ADC_read	;volatile
  4000  0015F0  0E03               	movlw	3
  4001  0015F2  162B               	andwf	??_ADC_read,f,c
  4002  0015F4  442F               	rlncf	ADC_read@channel_number,w,c
  4003  0015F6  46E8               	rlncf	wreg,f,c
  4004  0015F8  0BFC               	andlw	252
  4005  0015FA  102B               	iorwf	??_ADC_read,w,c
  4006  0015FC  6EC2               	movwf	4034,c	;volatile
  4007                           
  4008                           ;ADC.h: 90: _delay((unsigned long)((3)*(4000000/4000.0)));
  4009  0015FE  0E04               	movlw	4
  4010  001600  6E2B               	movwf	??_ADC_read& (0+255),c
  4011  001602  0EE4               	movlw	228
  4012  001604                     u2197:
  4013  001604  2EE8               	decfsz	wreg,f,c
  4014  001606  D7FE               	goto	u2197
  4015  001608  2E2B               	decfsz	??_ADC_read& (0+255),f,c
  4016  00160A  D7FC               	goto	u2197
  4017  00160C  D000               	nop2	
  4018                           
  4019                           ;ADC.h: 91: int val;
  4020                           ;ADC.h: 92: GODONE = 1;
  4021  00160E  82C2               	bsf	4034,1,c	;volatile
  4022  001610                     l367:
  4023  001610  B2C2               	btfsc	4034,1,c	;volatile
  4024  001612  D7FE               	goto	l367
  4025                           
  4026                           ;ADC.h: 94: val = (ADRESH << 8) | ADRESL;
  4027  001614  50C3               	movf	4035,w,c	;volatile
  4028  001616  CFC4 F02B          	movff	4036,??_ADC_read	;volatile
  4029  00161A  6A2C               	clrf	(??_ADC_read+1)& (0+255),c
  4030  00161C  C02B  F02C         	movff	??_ADC_read,??_ADC_read+1
  4031  001620  6A2B               	clrf	??_ADC_read,c
  4032  001622  102B               	iorwf	??_ADC_read,w,c
  4033  001624  6E2D               	movwf	ADC_read@val,c
  4034  001626  502C               	movf	??_ADC_read+1,w,c
  4035  001628  6E2E               	movwf	ADC_read@val+1,c
  4036                           
  4037                           ;ADC.h: 95: ADIF = 0;
  4038  00162A  9C9E               	bcf	3998,6,c	;volatile
  4039                           
  4040                           ;ADC.h: 96: _delay((unsigned long)((3)*(4000000/4000.0)));
  4041  00162C  0E04               	movlw	4
  4042  00162E  6E2B               	movwf	??_ADC_read& (0+255),c
  4043  001630  0EE4               	movlw	228
  4044  001632                     u2207:
  4045  001632  2EE8               	decfsz	wreg,f,c
  4046  001634  D7FE               	goto	u2207
  4047  001636  2E2B               	decfsz	??_ADC_read& (0+255),f,c
  4048  001638  D7FC               	goto	u2207
  4049  00163A  D000               	nop2	
  4050                           
  4051                           ;ADC.h: 97: return val;
  4052  00163C  C02D  F029         	movff	ADC_read@val,?_ADC_read
  4053  001640  C02E  F02A         	movff	ADC_read@val+1,?_ADC_read+1
  4054  001644  0012               	return	
  4055  001646                     __end_of_ADC_read:
  4056                           	opt stack 0
  4057                           tblptru	equ	0xFF8
  4058                           tblptrh	equ	0xFF7
  4059                           tblptrl	equ	0xFF6
  4060                           tablat	equ	0xFF5
  4061                           indf0	equ	0xFEF
  4062                           postinc0	equ	0xFEE
  4063                           fsr0h	equ	0xFEA
  4064                           fsr0l	equ	0xFE9
  4065                           wreg	equ	0xFE8
  4066                           indf2	equ	0xFDF
  4067                           fsr2h	equ	0xFDA
  4068                           fsr2l	equ	0xFD9
  4069                           status	equ	0xFD8
  4070                           
  4071 ;; *************** function _ADC_init *****************
  4072 ;; Defined at:
  4073 ;;		line 45 in file "ADC.h"
  4074 ;; Parameters:    Size  Location     Type
  4075 ;;		None
  4076 ;; Auto vars:     Size  Location     Type
  4077 ;;		None
  4078 ;; Return value:  Size  Location     Type
  4079 ;;                  1    wreg      void 
  4080 ;; Registers used:
  4081 ;;		wreg
  4082 ;; Tracked objects:
  4083 ;;		On entry : 0/0
  4084 ;;		On exit  : 0/0
  4085 ;;		Unchanged: 0/0
  4086 ;; Data sizes:     COMRAM   BANK0   BANK1   BANK2   BANK3   BANK4   BANK5   BANK6   BANK7   BANK8   BANK9  BANK10  BANK1
      +1  BANK12  BANK13  BANK14  BANK15
  4087 ;;      Params:         0       0       0       0       0       0       0       0       0       0       0       0       
      +0       0       0       0       0
  4088 ;;      Locals:         0       0       0       0       0       0       0       0       0       0       0       0       
      +0       0       0       0       0
  4089 ;;      Temps:          1       0       0       0       0       0       0       0       0       0       0       0       
      +0       0       0       0       0
  4090 ;;      Totals:         1       0       0       0       0       0       0       0       0       0       0       0       
      +0       0       0       0       0
  4091 ;;Total ram usage:        1 bytes
  4092 ;; Hardware stack levels used:    1
  4093 ;; This function calls:
  4094 ;;		Nothing
  4095 ;; This function is called by:
  4096 ;;		_main
  4097 ;; This function uses a non-reentrant model
  4098 ;;
  4099                           
  4100                           	psect	text32
  4101  0016DA                     __ptext32:
  4102                           	opt stack 0
  4103  0016DA                     _ADC_init:
  4104                           	opt stack 30
  4105                           
  4106                           ;ADC.h: 48: TRISA0 = 1;
  4107                           
  4108                           ;incstack = 0
  4109  0016DA  8092               	bsf	3986,0,c	;volatile
  4110                           
  4111                           ;ADC.h: 49: TRISA1 = 1;
  4112  0016DC  8292               	bsf	3986,1,c	;volatile
  4113                           
  4114                           ;ADC.h: 50: CHS3 = 0;
  4115  0016DE  9AC2               	bcf	4034,5,c	;volatile
  4116                           
  4117                           ;ADC.h: 51: CHS2 = 0;
  4118  0016E0  98C2               	bcf	4034,4,c	;volatile
  4119                           
  4120                           ;ADC.h: 52: CHS1 = 0;
  4121  0016E2  96C2               	bcf	4034,3,c	;volatile
  4122                           
  4123                           ;ADC.h: 53: CHS0 = 0;
  4124  0016E4  94C2               	bcf	4034,2,c	;volatile
  4125                           
  4126                           ;ADC.h: 56: ADFM = 1;
  4127  0016E6  8EC0               	bsf	4032,7,c	;volatile
  4128                           
  4129                           ;ADC.h: 59: ADCS2 = 1;
  4130  0016E8  84C0               	bsf	4032,2,c	;volatile
  4131                           
  4132                           ;ADC.h: 60: ADCS1 = 1;
  4133  0016EA  82C0               	bsf	4032,1,c	;volatile
  4134                           
  4135                           ;ADC.h: 61: ADCS0 = 0;
  4136  0016EC  90C0               	bcf	4032,0,c	;volatile
  4137                           
  4138                           ;ADC.h: 73: ACQT2=1; ACQT1=1; ACQT0=0;
  4139  0016EE  8AC0               	bsf	4032,5,c	;volatile
  4140  0016F0  88C0               	bsf	4032,4,c	;volatile
  4141  0016F2  96C0               	bcf	4032,3,c	;volatile
  4142                           
  4143                           ;ADC.h: 74: PCFG3 = PCFG2 = PCFG1 = PCFG0 = 0;
  4144  0016F4  90C1               	bcf	4033,0,c	;volatile
  4145  0016F6  92C1               	bcf	4033,1,c	;volatile
  4146  0016F8  94C1               	bcf	4033,2,c	;volatile
  4147  0016FA  96C1               	bcf	4033,3,c	;volatile
  4148                           
  4149                           ;ADC.h: 75: VCFG1=0; VCFG0 = 0;
  4150  0016FC  9AC1               	bcf	4033,5,c	;volatile
  4151  0016FE  98C1               	bcf	4033,4,c	;volatile
  4152                           
  4153                           ;ADC.h: 76: _delay((unsigned long)((15)*(4000000/4000.0)));
  4154  001700  0E14               	movlw	20
  4155  001702  6E29               	movwf	??_ADC_init& (0+255),c
  4156  001704  0E7A               	movlw	122
  4157  001706                     u2217:
  4158  001706  2EE8               	decfsz	wreg,f,c
  4159  001708  D7FE               	goto	u2217
  4160  00170A  2E29               	decfsz	??_ADC_init& (0+255),f,c
  4161  00170C  D7FC               	goto	u2217
  4162                           
  4163                           ;ADC.h: 77: ADON = 1;
  4164  00170E  80C2               	bsf	4034,0,c	;volatile
  4165                           
  4166                           ;ADC.h: 78: _delay((unsigned long)((15)*(4000000/4000.0)));
  4167  001710  0E14               	movlw	20
  4168  001712  6E29               	movwf	??_ADC_init& (0+255),c
  4169  001714  0E7A               	movlw	122
  4170  001716                     u2227:
  4171  001716  2EE8               	decfsz	wreg,f,c
  4172  001718  D7FE               	goto	u2227
  4173  00171A  2E29               	decfsz	??_ADC_init& (0+255),f,c
  4174  00171C  D7FC               	goto	u2227
  4175  00171E  0012               	return		;funcret
  4176  001720                     __end_of_ADC_init:
  4177                           	opt stack 0
  4178                           tblptru	equ	0xFF8
  4179                           tblptrh	equ	0xFF7
  4180                           tblptrl	equ	0xFF6
  4181                           tablat	equ	0xFF5
  4182                           indf0	equ	0xFEF
  4183                           postinc0	equ	0xFEE
  4184                           fsr0h	equ	0xFEA
  4185                           fsr0l	equ	0xFE9
  4186                           wreg	equ	0xFE8
  4187                           indf2	equ	0xFDF
  4188                           fsr2h	equ	0xFDA
  4189                           fsr2l	equ	0xFD9
  4190                           status	equ	0xFD8
  4191                           tblptru	equ	0xFF8
  4192                           tblptrh	equ	0xFF7
  4193                           tblptrl	equ	0xFF6
  4194                           tablat	equ	0xFF5
  4195                           indf0	equ	0xFEF
  4196                           postinc0	equ	0xFEE
  4197                           fsr0h	equ	0xFEA
  4198                           fsr0l	equ	0xFE9
  4199                           wreg	equ	0xFE8
  4200                           indf2	equ	0xFDF
  4201                           fsr2h	equ	0xFDA
  4202                           fsr2l	equ	0xFD9
  4203                           status	equ	0xFD8
  4204                           
  4205                           	psect	rparam
  4206  0000                     tblptru	equ	0xFF8
  4207                           tblptrh	equ	0xFF7
  4208                           tblptrl	equ	0xFF6
  4209                           tablat	equ	0xFF5
  4210                           indf0	equ	0xFEF
  4211                           postinc0	equ	0xFEE
  4212                           fsr0h	equ	0xFEA
  4213                           fsr0l	equ	0xFE9
  4214                           wreg	equ	0xFE8
  4215                           indf2	equ	0xFDF
  4216                           fsr2h	equ	0xFDA
  4217                           fsr2l	equ	0xFD9
  4218                           status	equ	0xFD8


Data Sizes:
    Strings     27
    Constant    0
    Data        2
    BSS         104
    Persistent  0
    Stack       0

Auto Spaces:
    Space          Size  Autos    Used
    COMRAM           95     22      64
    BANK0           160      0      64
    BANK1           256      0       0
    BANK2           256      0       0
    BANK3           256      0       0
    BANK4           256      0       0
    BANK5           256      0       0
    BANK6           256      0       0
    BANK7           256      0       0
    BANK8           256      0       0
    BANK9           256      0       0
    BANK10          256      0       0
    BANK11          256      0       0
    BANK12          256      0       0
    BANK13          256      0       0
    BANK14          256      0       0
    BANK15           96      0       0

Pointer List with Targets:

    allocated	PTR unsigned char  size(2) Largest target is 0
		 -> NULL(NULL[0]), 

    sp__utoa	PTR unsigned char  size(2) Largest target is 5
		 -> number_array(COMRAM[5]), 

    SDCARD_bir_sektor_oku@buff	PTR unsigned char  size(2) Largest target is 64
		 -> buff(BANK0[64]), 

    sp__itoa	PTR unsigned char  size(2) Largest target is 5
		 -> number_array(COMRAM[5]), 

    lcd_write@s	PTR const unsigned char  size(2) Largest target is 12
		 -> STR_6(CODE[12]), STR_5(CODE[8]), STR_4(CODE[8]), STR_3(CODE[3]), 
		 -> STR_2(CODE[2]), STR_1(CODE[2]), number_array(COMRAM[5]), 


Critical Paths under _main in COMRAM

    _main->_SDCARD_baslat
    _SDCARD_bir_sektor_oku->_SPI_write
    _SDCARD_baslat->_lcd_write
    _lcd_write->_lcd_yaz
    _lcd_yaz->_lcd_goto
    _SDCARD_send_command->_DELAY
    _SDCARD_send_command->_SPI_write
    _PWM5_initialize->_PWM3_set_value
    _PWM4_initialize->_PWM4_set_value
    _LCD_init->_lcd_clear
    _lcd_clear->_lcd_goto
    _lcd_goto->_lcd_info
    _lcd_info->_shift_reg_set_pin_lcd
    _shift_reg_set_pin_lcd->_load_shift_data_lcd
    _I2C2_initialize->_DELAY

Critical Paths under _main in BANK0

    None.

Critical Paths under _main in BANK1

    None.

Critical Paths under _main in BANK2

    None.

Critical Paths under _main in BANK3

    None.

Critical Paths under _main in BANK4

    None.

Critical Paths under _main in BANK5

    None.

Critical Paths under _main in BANK6

    None.

Critical Paths under _main in BANK7

    None.

Critical Paths under _main in BANK8

    None.

Critical Paths under _main in BANK9

    None.

Critical Paths under _main in BANK10

    None.

Critical Paths under _main in BANK11

    None.

Critical Paths under _main in BANK12

    None.

Critical Paths under _main in BANK13

    None.

Critical Paths under _main in BANK14

    None.

Critical Paths under _main in BANK15

    None.

Call Graph Tables:

 ---------------------------------------------------------------------------------
 (Depth) Function   	        Calls       Base Space   Used Autos Params    Refs
 ---------------------------------------------------------------------------------
 (0) _main                                                 3     3      0   18812
                                             19 COMRAM     3     3      0
                           _ADC_init
                           _ADC_read
                              _DELAY
                           _DELAY100
                   _EEPROM_read_byte
                  _EEPROM_write_byte
                         _I2C2_Start
                          _I2C2_Stop
                     _I2C2_data_send
                    _I2C2_initialize
                           _LCD_init
                    _PWM4_initialize
                     _PWM4_set_value
                    _PWM5_initialize
                     _PWM5_set_value
                      _SDCARD_baslat
              _SDCARD_bir_sektor_oku
                           _SPI_init
                    _UART1_byte_send
                         _UART1_init
                    _UART2_byte_send
                         _UART2_init
                          _lcd_write
 ---------------------------------------------------------------------------------
 (1) _UART2_init                                           0     0      0       0
 ---------------------------------------------------------------------------------
 (1) _UART2_byte_send                                      1     1      0      22
                                              0 COMRAM     1     1      0
 ---------------------------------------------------------------------------------
 (1) _UART1_init                                           0     0      0       0
 ---------------------------------------------------------------------------------
 (1) _UART1_byte_send                                      1     1      0      22
                                              0 COMRAM     1     1      0
 ---------------------------------------------------------------------------------
 (1) _SPI_init                                             1     1      0       0
                                              0 COMRAM     1     1      0
 ---------------------------------------------------------------------------------
 (1) _SDCARD_bir_sektor_oku                               12     6      6     443
                                              2 COMRAM    12     6      6
                          _SPI_write
 ---------------------------------------------------------------------------------
 (1) _SDCARD_baslat                                        2     2      0    5597
                                             17 COMRAM     2     2      0
                              _DELAY
                _SDCARD_send_command
                          _SPI_write
                          _lcd_write
 ---------------------------------------------------------------------------------
 (1) _lcd_write                                            3     1      2    4443
                                             14 COMRAM     3     1      2
                            _lcd_yaz
 ---------------------------------------------------------------------------------
 (2) _lcd_yaz                                              1     1      0    3950
                                             13 COMRAM     1     1      0
                           _lcd_goto
                           _lcd_info
 ---------------------------------------------------------------------------------
 (2) _SDCARD_send_command                                  8     3      5    1039
                                              2 COMRAM     8     3      5
                              _DELAY
                          _SPI_write
 ---------------------------------------------------------------------------------
 (2) _SPI_write                                            2     2      0      23
                                              0 COMRAM     2     2      0
 ---------------------------------------------------------------------------------
 (1) _PWM5_set_value                                       4     2      2     130
                                              0 COMRAM     4     2      2
 ---------------------------------------------------------------------------------
 (1) _PWM5_initialize                                      0     0      0     194
                     _PWM3_set_value
 ---------------------------------------------------------------------------------
 (2) _PWM3_set_value                                       4     2      2     194
                                              0 COMRAM     4     2      2
 ---------------------------------------------------------------------------------
 (1) _PWM4_initialize                                      0     0      0     194
                     _PWM4_set_value
 ---------------------------------------------------------------------------------
 (1) _PWM4_set_value                                       4     2      2     194
                                              0 COMRAM     4     2      2
 ---------------------------------------------------------------------------------
 (1) _LCD_init                                             1     1      0    6976
                                             14 COMRAM     1     1      0
                          _lcd_clear
                           _lcd_info
              _shift_reg_set_pin_lcd
 ---------------------------------------------------------------------------------
 (2) _lcd_clear                                            1     1      0    3928
                                             13 COMRAM     1     1      0
                           _lcd_goto
                           _lcd_info
 ---------------------------------------------------------------------------------
 (3) _lcd_goto                                             2     1      1    2083
                                             11 COMRAM     2     1      1
                           _lcd_info
 ---------------------------------------------------------------------------------
 (3) _lcd_info                                             3     2      1    1845
                                              8 COMRAM     3     2      1
              _shift_reg_set_pin_lcd
 ---------------------------------------------------------------------------------
 (4) _shift_reg_set_pin_lcd                                4     3      1    1203
                                              4 COMRAM     4     3      1
                _load_shift_data_lcd
 ---------------------------------------------------------------------------------
 (5) _load_shift_data_lcd                                  4     4      0      90
                                              0 COMRAM     4     4      0
 ---------------------------------------------------------------------------------
 (1) _I2C2_initialize                                      0     0      0      46
                              _DELAY
 ---------------------------------------------------------------------------------
 (3) _DELAY                                                2     2      0      46
                                              0 COMRAM     2     2      0
 ---------------------------------------------------------------------------------
 (1) _I2C2_data_send                                       1     1      0      22
                                              0 COMRAM     1     1      0
 ---------------------------------------------------------------------------------
 (1) _I2C2_Stop                                            0     0      0       0
 ---------------------------------------------------------------------------------
 (1) _I2C2_Start                                           1     1      0       0
                                              0 COMRAM     1     1      0
 ---------------------------------------------------------------------------------
 (1) _EEPROM_write_byte                                    3     0      3     194
                                              0 COMRAM     3     0      3
 ---------------------------------------------------------------------------------
 (1) _EEPROM_read_byte                                     2     0      2     108
                                              0 COMRAM     2     0      2
 ---------------------------------------------------------------------------------
 (1) _DELAY100                                             3     3      0      46
                                              0 COMRAM     3     3      0
 ---------------------------------------------------------------------------------
 (1) _ADC_read                                             7     5      2      45
                                              0 COMRAM     7     5      2
 ---------------------------------------------------------------------------------
 (1) _ADC_init                                             1     1      0       0
                                              0 COMRAM     1     1      0
 ---------------------------------------------------------------------------------
 Estimated maximum stack depth 5
 ---------------------------------------------------------------------------------

 Call Graph Graphs:

 _main (ROOT)
   _ADC_init
   _ADC_read
   _DELAY
   _DELAY100
   _EEPROM_read_byte
   _EEPROM_write_byte
   _I2C2_Start
   _I2C2_Stop
   _I2C2_data_send
   _I2C2_initialize
     _DELAY
   _LCD_init
     _lcd_clear
       _lcd_goto
         _lcd_info
           _shift_reg_set_pin_lcd
             _load_shift_data_lcd
       _lcd_info
         _shift_reg_set_pin_lcd
           _load_shift_data_lcd
     _lcd_info
       _shift_reg_set_pin_lcd
         _load_shift_data_lcd
     _shift_reg_set_pin_lcd
       _load_shift_data_lcd
   _PWM4_initialize
     _PWM4_set_value
   _PWM4_set_value
   _PWM5_initialize
     _PWM3_set_value
   _PWM5_set_value
   _SDCARD_baslat
     _DELAY
     _SDCARD_send_command
       _DELAY
       _SPI_write
     _SPI_write
     _lcd_write
       _lcd_yaz
         _lcd_goto
           _lcd_info
             _shift_reg_set_pin_lcd
               _load_shift_data_lcd
         _lcd_info
           _shift_reg_set_pin_lcd
             _load_shift_data_lcd
   _SDCARD_bir_sektor_oku
     _SPI_write
   _SPI_init
   _UART1_byte_send
   _UART1_init
   _UART2_byte_send
   _UART2_init
   _lcd_write
     _lcd_yaz
       _lcd_goto
         _lcd_info
           _shift_reg_set_pin_lcd
             _load_shift_data_lcd
       _lcd_info
         _shift_reg_set_pin_lcd
           _load_shift_data_lcd

 Address spaces:
Name               Size   Autos  Total    Cost      Usage
BIGRAM             F5F      0       0      37        0.0%
EEDATA             400      0       0       0        0.0%
BITBANK14          100      0       0      33        0.0%
BANK14             100      0       0      34        0.0%
BITBANK13          100      0       0      30        0.0%
BANK13             100      0       0      31        0.0%
BITBANK12          100      0       0      28        0.0%
BANK12             100      0       0      29        0.0%
BITBANK11          100      0       0      26        0.0%
BANK11             100      0       0      27        0.0%
BITBANK10          100      0       0      24        0.0%
BANK10             100      0       0      25        0.0%
BITBANK9           100      0       0      22        0.0%
BANK9              100      0       0      23        0.0%
BITBANK8           100      0       0      20        0.0%
BANK8              100      0       0      21        0.0%
BITBANK7           100      0       0      18        0.0%
BANK7              100      0       0      19        0.0%
BITBANK6           100      0       0      16        0.0%
BANK6              100      0       0      17        0.0%
BITBANK5           100      0       0      14        0.0%
BANK5              100      0       0      15        0.0%
BITBANK4           100      0       0      12        0.0%
BANK4              100      0       0      13        0.0%
BITBANK3           100      0       0      10        0.0%
BANK3              100      0       0      11        0.0%
BITBANK2           100      0       0       8        0.0%
BANK2              100      0       0       9        0.0%
BITBANK1           100      0       0       6        0.0%
BANK1              100      0       0       7        0.0%
BITBANK0            A0      0       0       4        0.0%
BANK0               A0      0      40       5       40.0%
BITBANK15           60      0       0      35        0.0%
BANK15              60      0       0      36        0.0%
BITCOMRAM           5F      0       0       0        0.0%
COMRAM              5F     16      40       1       67.4%
BITSFR               0      0       0      40        0.0%
SFR                  0      0       0      40        0.0%
STACK                0      0       0       2        0.0%
NULL                 0      0       0       0        0.0%
ABS                  0      0      80      32        0.0%
DATA                 0      0      80       3        0.0%
CODE                 0      0       0       0        0.0%


Microchip Technology PIC18 Macro Assembler V1.37 build -260352376 
Symbol Table                                                                                   Thu Mar 19 11:19:34 2020

                             _BF 007E38                               _RD 007D30  
                             _WR 007D31                               __x 003F  
                             __y 0040                      __CFG_BORV$3 000000  
                            _BF2 007B20                              l304 16CC  
                            l330 12A4                              l409 1A20  
                            l515 1A44                              l373 1A0C  
                            l613 107E                              l367 1610  
                            l439 19E8                              l632 1A38  
                            l481 1916                              l626 115C  
                            l618 10DA                              l379 18F0  
                            l475 1902                              l478 1912  
                            l647 1A2C                              _CKE 007E3E  
                            _CKP 007E34                     __CFG_CPB$OFF 000000  
                            _RB0 007C08                              _RC1 007C11  
                            _RE3 007C23                              _RE4 007C24  
                            _RE5 007C25                              _PR2 000FCB  
                            _PEN 007E2A                              _PR4 000F77  
                   __CFG_CPD$OFF 000000                              _SEN 007E28  
                            _SMP 007E3F                      _unnecessary 001E  
                            _dat 000B                              _t_i 001C  
                    lcd_goto@p_1 0035                      lcd_goto@p_2 0034  
                            wreg 000FE8                       _TXSTA1bits 000FAC  
                   __CFG_IESO$ON 000000                       _TXSTA2bits 000F6C  
                   __CFG_MODE$MC 000000                 ??_PWM3_set_value 002B  
                   __CFG_LVP$OFF 000000                     __CFG_WDT$OFF 000000  
                           l2201 1842                             l2131 1696  
                           l2205 199E                             l2311 1936  
                           l2209 19A8                             l2137 16BA  
                           l2225 1874                             l2241 1522  
                           l2307 1926                             l2157 166E  
                           l2165 129A                             l2159 1688  
                           l2263 17CC                             l2255 178E  
                           l2247 1554                             l2265 17D6  
                           l2257 1798                             l2513 13F4  
                           l2291 15D4                             l2283 15BA  
                           l2531 142A                             l2437 1908  
                           l2517 1404                             l2509 13E6  
                           l2199 1834                             l2287 15CC  
                           l2543 1462                             l2535 1436  
                           l2527 141A                             l2393 1750  
                           l2297 15DE                             l2561 103E  
                           l2395 175A                             l2539 144E  
                           l2547 1468                             l2573 1080  
                           l2557 102E                             l2549 1474  
                           l2567 104A                             l2495 13C2  
                           l2593 110C                             l2585 10DC  
                           l2833 11CA                             l2579 10AC  
                           l2499 13D2                             l2843 11F0  
                           l2597 112E                             l2837 11DA  
                           l2855 124A                             l2849 1224  
                           _ADIF 007CF6                             _ADFM 007E07  
                           _CKE2 007B26                             _ADON 007E10  
                           _CHS0 007E12                             _CHS1 007E13  
                           _CHS2 007E14                             _CHS3 007E15  
                           _CFGS 007D36                             _EEIF 007D0C  
                           _CKP2 007B1C                             STR_1 1018  
                           STR_2 101A                             STR_3 1015  
                           STR_4 100D                             STR_5 100D  
                           STR_6 1001                             u1110 16B8  
                           u1104 16AA                             u1105 16A6  
                           u1300 17CA                             u1230 1544  
                           u2007 18C6                             u1320 17D4  
                           u1240 1576                             u2017 151A  
                           u1154 1664                             u1410 174E  
                           u1155 1660                             u2107 1898  
                           u2027 154E                             u1164 167E  
                           u1260 178C                             u1165 167A  
                           u2117 1844                             u2037 1582  
                           u1237 153A                             u1430 1758  
                           u2207 1632                             u2127 12F4  
                           u2047 149C                             u1247 156C  
                           u1280 1796                             u2217 1706  
                           u2137 130E                             u2057 14B4  
                           u2227 1716                             u2147 1370  
                           u2067 14CC                             u2157 138A  
                           u2077 14E4                             u2167 19A0  
                           u2087 14F6                             u2177 19F4  
                           u2097 150E                             u2187 192C  
                           u2197 1604                             _PEN2 007B12  
                           u1950 1248                             u1977 125C  
                           u1987 126A                             _RCEN 007E2B  
                           u1997 1276                             _SEN2 007B10  
                           _SMP2 007B27                             _WREN 007D32  
              _current_value_lcd 0016                      lcd_yaz@data 0036  
                           _buff 0060                             _main 115E  
                           _saat 001A                             _nisa 0019  
                           fsr0h 000FEA                             indf0 000FEF  
                           fsr0l 000FE9                             indf2 000FDF  
                           fsr2l 000FD9                 ??_PWM4_set_value 002B  
               __end_of_DELAY100 1940                ??_PWM4_initialize 002D  
               _EEPROM_read_byte 19FE                             start 0000  
               __end_of_ADC_init 1720                 __end_of_ADC_read 1646  
                   ___param_bank 000010           __size_of_SDCARD_baslat 0140  
               ??_PWM5_set_value 002B                      ?_UART1_init 0029  
                    ?_UART2_init 0029                     _BAUDCON1bits 000F7E  
                   _BAUDCON2bits 000F7C                    __CFG_WAIT$OFF 000000  
               __end_of_LCD_init 1518                            _DC2B0 007DD4  
                          _DC2B1 007DD5                            _DC3B0 007DBC  
                          _DC3B1 007DBD                            _DC4B0 007B9C  
                          _DC4B1 007B9D                            _DC5B0 007B84  
                          _DC5B1 007B85                            _ADCS0 007E00  
                          _ADCS1 007E01                            _ADCS2 007E02  
                          ?_main 0029                            _ACKEN 007E2C  
                          _ACKDT 007E2D                            _ACQT0 007E03  
                          _ACQT1 007E04                            _ACQT2 007E05  
                          _EEADR 000FA9                __end_of_I2C2_Stop 1A4C  
                          _DELAY 1996                            _EEPGD 007D37  
                          _IRCF0 007E9C                            _IRCF1 007E9D  
                          _IRCF2 007E9E                            _PCFG0 007E08  
                          _PCFG1 007E09                            _PCFG2 007E0A  
              ??_PWM5_initialize 002D                            _PCFG3 007E0B  
                          _RCEN2 007B13                            _VCFG0 007E0C  
                          _VCFG1 007E0D                            _PLLEN 007CDE  
                          _SSPM0 007E30                            _SSPM1 007E31  
                          _SSPM2 007E32                            _SSPM3 007E33  
                          _TRISE 000F96                            _SSPIF 007CF3  
                          _SSPEN 007E35                    __CFG_PWRT$OFF 000000  
                 __CFG_FCMEN$OFF 000000                  __end_of_lcd_yaz 1880  
                 __CFG_EBTRB$OFF 000000                            _cevap 0015  
                          _error 0018                            _temp1 000D  
                          _temp2 000F                            _zaman 0024  
                          main@c 003D                   __CFG_BOREN$OFF 000000  
                          tablat 000FF5                 __end_of_SPI_init 18D4  
                          status 000FD8              UART1_byte_send@data 0029  
             __size_of_SPI_write 0014                   __CFG_MCLRE$OFF 000000  
                   ??_I2C2_Start 0029                  __initialization 17DA  
                   __end_of_main 1284                           DELAY@k 002A  
           SDCARD_send_command@j 0032                           ??_main 003C  
               ??_I2C2_data_send 0029                           ?_DELAY 0029  
                   _CARD_VERSION 0011                    __activetblptr 000002  
   __size_of_SDCARD_send_command 005C          ??_SDCARD_bir_sektor_oku 0031  
                  _SDCARD_baslat 101E                           _ADCON0 000FC2  
                         _ACKEN2 007B14                        DELAY100@k 002B  
                         _ACKDT2 007B15                           _CCP2M2 007DD2  
                         _CCP2M3 007DD3                           _CCP3M2 007DBA  
                         _CCP3M3 007DBB                           _CCP4M2 007B9A  
                         _CCP4M3 007B9B                           _CCP5M2 007B82  
                         _CCP5M3 007B83                           _ADRESH 000FC4  
                         _EEADRH 000FAA                           _ADRESL 000FC3  
                         _EEDATA 000FA8                           _CCPR2L 000FBB  
                         _CCPR3L 000FB8                           _CCPR4L 000F74  
                         _CCPR5L 000F71                           _EECON2 000FA7  
             __end_of_I2C2_Start 19FE                           _GODONE 007E11  
                __CFG_BBSIZ$BB2K 000000          ??_shift_reg_set_pin_lcd 002E  
                         _INTSRC 007CDF                           _RCREG1 000FAE  
                         _RCREG2 000F6E              __size_of_UART1_init 001A  
            __size_of_UART2_init 001A                           _SPBRG1 000FAF  
                         _SPBRG2 000F6F                           _TMR2ON 007E52  
                         _TMR4ON 007BB2                           _SSP2IF 007D27  
                         _SSPM02 007B18                           _SSPM12 007B19  
                         _SSPM22 007B1A                           _SSPM32 007B1B  
                         _SSPADD 000FC8                           _TRISA0 007C90  
                         _TRISA1 007C91                           _TRISB0 007C98  
                         _TRISC1 007CA1                           _TRISC2 007CA2  
                         _TRISC3 007CA3                           _TRISC4 007CA4  
                         _TRISC5 007CA5                           _TRISD4 007CAC  
                         _TRISC6 007CA6                           _TRISD5 007CAD  
                         _TRISC7 007CA7                           _TRISD6 007CAE  
                         _SSPEN2 007B1D                           _TRISG1 007CC1  
                         _TRISG2 007CC2                           _TRISG3 007CC3  
                         _TRISG4 007CC4                           _SSPBUF 000FC9  
                         _TXREG1 000FAD                           _TXREG2 000F6D  
                 __CFG_XINST$OFF 000000                 __end_of_lcd_info 1394  
               __end_of_lcd_goto 184C                           _dakika 0017  
                         __temp_ 0014                  _UART1_byte_send 1A36  
                         clear_0 17E0                           clear_1 17EC  
                         _saniye 001B                   SDCARD_baslat@a 003A  
                      ??_lcd_yaz 0036                     __pdataCOMRAM 003F  
                      ?_DELAY100 0029                     __mediumconst 0000  
                _UART2_byte_send 1A2A                   ?_SDCARD_baslat 0029  
                         tblptrh 000FF7                           tblptrl 000FF6  
                         tblptru 000FF8                __end_of_SPI_write 1A2A  
                      ?_ADC_init 0029                        ?_ADC_read 0029  
              _EEPROM_write_byte 18D4                       __accesstop 0060  
        __end_of__initialization 180A               ?_EEPROM_write_byte 0029  
       __size_of_I2C2_initialize 001E                        ?_LCD_init 0029  
                  __end_of_DELAY 19B2                    ___rparam_used 000001  
            ??_EEPROM_write_byte 002C                   __pcstackCOMRAM 0029  
                      ?_SPI_init 0029                          ??_DELAY 0029  
       __end_of_EEPROM_read_byte 1A16                       ??_DELAY100 0029  
             __size_of_lcd_clear 002C                  _PWM4_initialize 197A  
                     ??_ADC_init 0029                       ??_ADC_read 002B  
      __end_of_EEPROM_write_byte 18FA       shift_reg_set_pin_lcd@value 002D  
             __size_of_lcd_write 0076                       __pbssBANK0 0060  
                     ??_LCD_init 0037          __end_of_UART1_byte_send 1A42  
                _PWM5_initialize 195E     __size_of_load_shift_data_lcd 004A  
                   ??_UART1_init 0029                     ??_UART2_init 0029  
        __end_of_UART2_byte_send 1A36                       ??_SPI_init 0029  
shift_reg_set_pin_lcd@pin_number 0030                          _T2CKPS0 007E50  
                        _T2CKPS1 007E51                          _T4CKPS0 007BB0  
                        _T4CKPS1 007BB1                  ??_SDCARD_baslat 003A  
                      _I2C2_Stop 1A42                          _SSP2ADD 000F65  
                        _SSP2BUF 000F66                          _SD_RESP 0001  
                      ?_lcd_info 0031                        ?_lcd_goto 0034  
             __end_of_UART1_init 19E6               __end_of_UART2_init 19CC  
            _SDCARD_send_command 158E                          __Hparam 0000  
                        __Lparam 0000                __end_of_lcd_clear 18AC  
              ??_I2C2_initialize 002B                __end_of_lcd_write 158E  
         SDCARD_bir_sektor_oku@a 0031           SDCARD_bir_sektor_oku@j 0033  
         SDCARD_bir_sektor_oku@k 0035                     __psmallconst 1000  
                __CFG_STVREN$OFF 000000                          __pcinit 17DA  
                        __ramtop 1000          __end_of_PWM4_initialize 1996  
       SDCARD_send_command@param 002B                          __ptext0 115E  
                        __ptext1 19B2                          __ptext2 1A2A  
                        __ptext3 19CC                          __ptext4 1A36  
                        __ptext5 18AC                          __ptext6 1394  
                        __ptext7 101E                          __ptext8 1518  
                        __ptext9 184C                          _lcd_yaz 184C  
           ?_SDCARD_send_command 002B                       ?_I2C2_Stop 0029  
     __size_of_EEPROM_write_byte 0026   __size_of_SDCARD_bir_sektor_oku 00E4  
  __end_of_SDCARD_bir_sektor_oku 1478                       ??_lcd_info 0032  
                     ??_lcd_goto 0035             end_of_initialization 180A  
        __end_of_PWM5_initialize 197A                    __Lmediumconst 0000  
 __size_of_shift_reg_set_pin_lcd 004A    __end_of_shift_reg_set_pin_lcd 1690  
        __size_of_PWM3_set_value 003E                 ?_UART1_byte_send 0029  
                        postinc0 000FEE               I2C2_data_send@data 0029  
                     _time_array 0006          __size_of_PWM4_set_value 003E  
               ?_UART2_byte_send 0029            ??_SDCARD_send_command 0030  
        __size_of_PWM5_set_value 003E                __size_of_DELAY100 0022  
              __size_of_ADC_init 0046                __size_of_ADC_read 005C  
                      _SPI_write 1A16                   DELAY100@number 002A  
            PWM3_set_value@value 0029                       lcd_write@s 0037  
              __size_of_LCD_init 00A0                    __pidataCOMRAM 1A4C  
               ?_PWM4_initialize 0029                lcd_info@data_type 0031  
              ?_EEPROM_read_byte 0029              start_initialization 17DA  
              __size_of_SPI_init 0028                      ??_I2C2_Stop 0029  
             ??_EEPROM_read_byte 002B              _load_shift_data_lcd 1690  
        __size_of_I2C2_data_send 0024                       ?_SPI_write 0029  
               ?_PWM5_initialize 0029                 __CFG_OSC$INTIO67 000000  
           ?_load_shift_data_lcd 0029           SDCARD_send_command@crc 002F  
               __CFG_LPT1OSC$OFF 000000              PWM4_set_value@value 0029  
                    __pbssCOMRAM 0001                  _I2C2_initialize 1940  
              __size_of_lcd_info 0110                __size_of_lcd_goto 0038  
                 _PWM3_set_value 175E            ??_load_shift_data_lcd 0029  
              __CFG_CCP2MX$PORTC 000000                    SPI_write@data 002A  
                      _allocated 0009              UART2_byte_send@data 0029  
                 _PWM4_set_value 179C                        _lcd_clear 1880  
                      _lcd_write 1518                         ?_lcd_yaz 0029  
                 __size_of_DELAY 001C                      __smallconst 1000  
       EEPROM_write_byte@address 0029                   _PWM5_set_value 1720  
                       _DELAY100 191E              PWM5_set_value@value 0029  
          __end_of_SDCARD_baslat 115E                         _ADC_init 16DA  
                       _ADC_read 15EA                      ??_SPI_write 0029  
              SPI_write@received 0029           __end_of_PWM3_set_value 179C  
    SDCARD_send_command@response 0031                         _LCD_init 1478  
                       _PIR1bits 000F9E                         _PIR3bits 000FA4  
                     _I2C2_Start 19E6            __CFG_DATABW$DATA16BIT 000000  
         __end_of_PWM4_set_value 17DA                 __CFG_WDTPS$32768 000000  
                     ?_lcd_clear 0029                        _threshold 001D  
              __CFG_ECCPMX$PORTE 000000           __end_of_PWM5_set_value 175E  
                     ?_lcd_write 0037                         _SPI_init 18AC  
                      lcd_info@c 0033       SDCARD_bir_sektor_oku@adres 002B  
                    DELAY@number 0029          __end_of_I2C2_initialize 195E  
         ADC_read@channel_number 002F                      ADC_read@val 002D  
                 _I2C2_data_send 18FA            _SDCARD_bir_sektor_oku 1394  
                ?_PWM3_set_value 0029                         __Hrparam 0000  
          _shift_reg_set_pin_lcd 1646                         __Lrparam 0000  
                ?_PWM4_set_value 0029      __end_of_SDCARD_send_command 15EA  
        load_shift_data_lcd@data 002B         __size_of_UART1_byte_send 000C  
                ?_PWM5_set_value 0029                 __size_of_lcd_yaz 0034  
         __end_of_I2C2_data_send 191E         __size_of_UART2_byte_send 000C  
                       __ptext10 158E                         __ptext11 1A16  
                       __ptext20 1284                         __ptext12 1720  
                       __ptext21 1646                         __ptext13 195E  
                       __ptext30 191E                         __ptext22 1690  
                       __ptext14 175E                         __ptext31 15EA  
                       __ptext23 1940                         __ptext15 197A  
                       __ptext32 16DA                         __ptext24 1996  
                       __ptext16 179C                         __ptext25 18FA  
                       __ptext17 1478                         __ptext26 1A42  
                       __ptext18 1880                         __ptext27 19E6  
                       __ptext19 1814                         __ptext28 18D4  
                       __ptext29 19FE                         _lcd_info 1284  
                       _lcd_goto 1814       SDCARD_send_command@command 0030  
           load_shift_data_lcd@a 002C                    __size_of_main 0126  
      __size_of_EEPROM_read_byte 0018                      ?_I2C2_Start 0029  
      SDCARD_bir_sektor_oku@buff 002F                      ??_lcd_clear 0036  
                    ??_lcd_write 0039            __CFG_ADDRBW$ADDR20BIT 000000  
               ?_I2C2_initialize 0029                  ?_I2C2_data_send 0029  
       __size_of_PWM4_initialize 001C           ?_SDCARD_bir_sektor_oku 002B  
                   _number_array 001F                      _SHOWN_BYTES 0013  
                     _RCSTA1bits 000FAB                       _RCSTA2bits 000F6B  
         ?_shift_reg_set_pin_lcd 002D           EEPROM_write_byte@value 002B  
       __size_of_PWM5_initialize 001C                       _UART1_init 19CC  
                     _UART2_init 19B2                ??_UART1_byte_send 0029  
            __size_of_I2C2_Start 0018      __end_of_load_shift_data_lcd 16DA  
             __size_of_I2C2_Stop 000A                ??_UART2_byte_send 0029  
                _CURRENT_MESSAGE 0012          EEPROM_read_byte@address 0029  
